
Debug/out.elf:     file format elf32-i386


Disassembly of section .text:

00100000 <multiboot_header>:
  100000:	02 b0 ad 1b 03 00    	add    0x31bad(%eax),%dh
  100006:	00 00                	add    %al,(%eax)
  100008:	fb                   	sti    
  100009:	4f                   	dec    %edi
  10000a:	52                   	push   %edx
  10000b:	e4 66                	in     $0x66,%al
  10000d:	90                   	nop
  10000e:	66 90                	xchg   %ax,%ax
  100010:	66 90                	xchg   %ax,%ax
  100012:	66 90                	xchg   %ax,%ax
  100014:	66 90                	xchg   %ax,%ax
  100016:	66 90                	xchg   %ax,%ax
  100018:	66 90                	xchg   %ax,%ax
  10001a:	66 90                	xchg   %ax,%ax
  10001c:	66 90                	xchg   %ax,%ax
  10001e:	66 90                	xchg   %ax,%ax
  100020:	66 90                	xchg   %ax,%ax
  100022:	66 90                	xchg   %ax,%ax
  100024:	66 90                	xchg   %ax,%ax
  100026:	66 90                	xchg   %ax,%ax
  100028:	66 90                	xchg   %ax,%ax
  10002a:	66 90                	xchg   %ax,%ax
  10002c:	66 90                	xchg   %ax,%ax
  10002e:	66 90                	xchg   %ax,%ax
  100030:	66 90                	xchg   %ax,%ax
  100032:	66 90                	xchg   %ax,%ax
  100034:	66 90                	xchg   %ax,%ax
  100036:	66 90                	xchg   %ax,%ax
  100038:	66 90                	xchg   %ax,%ax
  10003a:	66 90                	xchg   %ax,%ax
  10003c:	66 90                	xchg   %ax,%ax
  10003e:	66 90                	xchg   %ax,%ax
  100040:	66 90                	xchg   %ax,%ax
  100042:	66 90                	xchg   %ax,%ax
  100044:	66 90                	xchg   %ax,%ax
  100046:	66 90                	xchg   %ax,%ax
  100048:	66 90                	xchg   %ax,%ax
  10004a:	66 90                	xchg   %ax,%ax
  10004c:	66 90                	xchg   %ax,%ax
  10004e:	66 90                	xchg   %ax,%ax
  100050:	66 90                	xchg   %ax,%ax
  100052:	66 90                	xchg   %ax,%ax
  100054:	66 90                	xchg   %ax,%ax
  100056:	66 90                	xchg   %ax,%ax
  100058:	66 90                	xchg   %ax,%ax
  10005a:	66 90                	xchg   %ax,%ax
  10005c:	66 90                	xchg   %ax,%ax
  10005e:	66 90                	xchg   %ax,%ax
  100060:	66 90                	xchg   %ax,%ax
  100062:	66 90                	xchg   %ax,%ax
  100064:	66 90                	xchg   %ax,%ax
  100066:	66 90                	xchg   %ax,%ax
  100068:	66 90                	xchg   %ax,%ax
  10006a:	66 90                	xchg   %ax,%ax
  10006c:	66 90                	xchg   %ax,%ax
  10006e:	66 90                	xchg   %ax,%ax
  100070:	66 90                	xchg   %ax,%ax
  100072:	66 90                	xchg   %ax,%ax
  100074:	66 90                	xchg   %ax,%ax
  100076:	66 90                	xchg   %ax,%ax
  100078:	66 90                	xchg   %ax,%ax
  10007a:	66 90                	xchg   %ax,%ax
  10007c:	66 90                	xchg   %ax,%ax
  10007e:	66 90                	xchg   %ax,%ax
  100080:	66 90                	xchg   %ax,%ax
  100082:	66 90                	xchg   %ax,%ax
  100084:	66 90                	xchg   %ax,%ax
  100086:	66 90                	xchg   %ax,%ax
  100088:	66 90                	xchg   %ax,%ax
  10008a:	66 90                	xchg   %ax,%ax
  10008c:	66 90                	xchg   %ax,%ax
  10008e:	66 90                	xchg   %ax,%ax
  100090:	66 90                	xchg   %ax,%ax
  100092:	66 90                	xchg   %ax,%ax
  100094:	66 90                	xchg   %ax,%ax
  100096:	66 90                	xchg   %ax,%ax
  100098:	66 90                	xchg   %ax,%ax
  10009a:	66 90                	xchg   %ax,%ax
  10009c:	66 90                	xchg   %ax,%ax
  10009e:	66 90                	xchg   %ax,%ax
  1000a0:	66 90                	xchg   %ax,%ax
  1000a2:	66 90                	xchg   %ax,%ax
  1000a4:	66 90                	xchg   %ax,%ax
  1000a6:	66 90                	xchg   %ax,%ax
  1000a8:	66 90                	xchg   %ax,%ax
  1000aa:	66 90                	xchg   %ax,%ax
  1000ac:	66 90                	xchg   %ax,%ax
  1000ae:	66 90                	xchg   %ax,%ax
  1000b0:	66 90                	xchg   %ax,%ax
  1000b2:	66 90                	xchg   %ax,%ax
  1000b4:	66 90                	xchg   %ax,%ax
  1000b6:	66 90                	xchg   %ax,%ax
  1000b8:	66 90                	xchg   %ax,%ax
  1000ba:	66 90                	xchg   %ax,%ax
  1000bc:	66 90                	xchg   %ax,%ax
  1000be:	66 90                	xchg   %ax,%ax
  1000c0:	66 90                	xchg   %ax,%ax
  1000c2:	66 90                	xchg   %ax,%ax
  1000c4:	66 90                	xchg   %ax,%ax
  1000c6:	66 90                	xchg   %ax,%ax
  1000c8:	66 90                	xchg   %ax,%ax
  1000ca:	66 90                	xchg   %ax,%ax
  1000cc:	66 90                	xchg   %ax,%ax
  1000ce:	66 90                	xchg   %ax,%ax
  1000d0:	66 90                	xchg   %ax,%ax
  1000d2:	66 90                	xchg   %ax,%ax
  1000d4:	66 90                	xchg   %ax,%ax
  1000d6:	66 90                	xchg   %ax,%ax
  1000d8:	66 90                	xchg   %ax,%ax
  1000da:	66 90                	xchg   %ax,%ax
  1000dc:	66 90                	xchg   %ax,%ax
  1000de:	66 90                	xchg   %ax,%ax
  1000e0:	66 90                	xchg   %ax,%ax
  1000e2:	66 90                	xchg   %ax,%ax
  1000e4:	66 90                	xchg   %ax,%ax
  1000e6:	66 90                	xchg   %ax,%ax
  1000e8:	66 90                	xchg   %ax,%ax
  1000ea:	66 90                	xchg   %ax,%ax
  1000ec:	66 90                	xchg   %ax,%ax
  1000ee:	66 90                	xchg   %ax,%ax
  1000f0:	66 90                	xchg   %ax,%ax
  1000f2:	66 90                	xchg   %ax,%ax
  1000f4:	66 90                	xchg   %ax,%ax
  1000f6:	66 90                	xchg   %ax,%ax
  1000f8:	66 90                	xchg   %ax,%ax
  1000fa:	66 90                	xchg   %ax,%ax
  1000fc:	66 90                	xchg   %ax,%ax
  1000fe:	66 90                	xchg   %ax,%ax
  100100:	66 90                	xchg   %ax,%ax
  100102:	66 90                	xchg   %ax,%ax
  100104:	66 90                	xchg   %ax,%ax
  100106:	66 90                	xchg   %ax,%ax
  100108:	66 90                	xchg   %ax,%ax
  10010a:	66 90                	xchg   %ax,%ax
  10010c:	66 90                	xchg   %ax,%ax
  10010e:	66 90                	xchg   %ax,%ax
  100110:	66 90                	xchg   %ax,%ax
  100112:	66 90                	xchg   %ax,%ax
  100114:	66 90                	xchg   %ax,%ax
  100116:	66 90                	xchg   %ax,%ax
  100118:	66 90                	xchg   %ax,%ax
  10011a:	66 90                	xchg   %ax,%ax
  10011c:	66 90                	xchg   %ax,%ax
  10011e:	66 90                	xchg   %ax,%ax
  100120:	66 90                	xchg   %ax,%ax
  100122:	66 90                	xchg   %ax,%ax
  100124:	66 90                	xchg   %ax,%ax
  100126:	66 90                	xchg   %ax,%ax
  100128:	66 90                	xchg   %ax,%ax
  10012a:	66 90                	xchg   %ax,%ax
  10012c:	66 90                	xchg   %ax,%ax
  10012e:	66 90                	xchg   %ax,%ax
  100130:	66 90                	xchg   %ax,%ax
  100132:	66 90                	xchg   %ax,%ax
  100134:	66 90                	xchg   %ax,%ax
  100136:	66 90                	xchg   %ax,%ax
  100138:	66 90                	xchg   %ax,%ax
  10013a:	66 90                	xchg   %ax,%ax
  10013c:	66 90                	xchg   %ax,%ax
  10013e:	66 90                	xchg   %ax,%ax
  100140:	66 90                	xchg   %ax,%ax
  100142:	66 90                	xchg   %ax,%ax
  100144:	66 90                	xchg   %ax,%ax
  100146:	66 90                	xchg   %ax,%ax
  100148:	66 90                	xchg   %ax,%ax
  10014a:	66 90                	xchg   %ax,%ax
  10014c:	66 90                	xchg   %ax,%ax
  10014e:	66 90                	xchg   %ax,%ax
  100150:	66 90                	xchg   %ax,%ax
  100152:	66 90                	xchg   %ax,%ax
  100154:	66 90                	xchg   %ax,%ax
  100156:	66 90                	xchg   %ax,%ax
  100158:	66 90                	xchg   %ax,%ax
  10015a:	66 90                	xchg   %ax,%ax
  10015c:	66 90                	xchg   %ax,%ax
  10015e:	66 90                	xchg   %ax,%ax
  100160:	66 90                	xchg   %ax,%ax
  100162:	66 90                	xchg   %ax,%ax
  100164:	66 90                	xchg   %ax,%ax
  100166:	66 90                	xchg   %ax,%ax
  100168:	66 90                	xchg   %ax,%ax
  10016a:	66 90                	xchg   %ax,%ax
  10016c:	66 90                	xchg   %ax,%ax
  10016e:	66 90                	xchg   %ax,%ax
  100170:	66 90                	xchg   %ax,%ax
  100172:	66 90                	xchg   %ax,%ax
  100174:	66 90                	xchg   %ax,%ax
  100176:	66 90                	xchg   %ax,%ax
  100178:	66 90                	xchg   %ax,%ax
  10017a:	66 90                	xchg   %ax,%ax
  10017c:	66 90                	xchg   %ax,%ax
  10017e:	66 90                	xchg   %ax,%ax
  100180:	66 90                	xchg   %ax,%ax
  100182:	66 90                	xchg   %ax,%ax
  100184:	66 90                	xchg   %ax,%ax
  100186:	66 90                	xchg   %ax,%ax
  100188:	66 90                	xchg   %ax,%ax
  10018a:	66 90                	xchg   %ax,%ax
  10018c:	66 90                	xchg   %ax,%ax
  10018e:	66 90                	xchg   %ax,%ax
  100190:	66 90                	xchg   %ax,%ax
  100192:	66 90                	xchg   %ax,%ax
  100194:	66 90                	xchg   %ax,%ax
  100196:	66 90                	xchg   %ax,%ax
  100198:	66 90                	xchg   %ax,%ax
  10019a:	66 90                	xchg   %ax,%ax
  10019c:	66 90                	xchg   %ax,%ax
  10019e:	66 90                	xchg   %ax,%ax
  1001a0:	66 90                	xchg   %ax,%ax
  1001a2:	66 90                	xchg   %ax,%ax
  1001a4:	66 90                	xchg   %ax,%ax
  1001a6:	66 90                	xchg   %ax,%ax
  1001a8:	66 90                	xchg   %ax,%ax
  1001aa:	66 90                	xchg   %ax,%ax
  1001ac:	66 90                	xchg   %ax,%ax
  1001ae:	66 90                	xchg   %ax,%ax
  1001b0:	66 90                	xchg   %ax,%ax
  1001b2:	66 90                	xchg   %ax,%ax
  1001b4:	66 90                	xchg   %ax,%ax
  1001b6:	66 90                	xchg   %ax,%ax
  1001b8:	66 90                	xchg   %ax,%ax
  1001ba:	66 90                	xchg   %ax,%ax
  1001bc:	66 90                	xchg   %ax,%ax
  1001be:	66 90                	xchg   %ax,%ax
  1001c0:	66 90                	xchg   %ax,%ax
  1001c2:	66 90                	xchg   %ax,%ax
  1001c4:	66 90                	xchg   %ax,%ax
  1001c6:	66 90                	xchg   %ax,%ax
  1001c8:	66 90                	xchg   %ax,%ax
  1001ca:	66 90                	xchg   %ax,%ax
  1001cc:	66 90                	xchg   %ax,%ax
  1001ce:	66 90                	xchg   %ax,%ax
  1001d0:	66 90                	xchg   %ax,%ax
  1001d2:	66 90                	xchg   %ax,%ax
  1001d4:	66 90                	xchg   %ax,%ax
  1001d6:	66 90                	xchg   %ax,%ax
  1001d8:	66 90                	xchg   %ax,%ax
  1001da:	66 90                	xchg   %ax,%ax
  1001dc:	66 90                	xchg   %ax,%ax
  1001de:	66 90                	xchg   %ax,%ax
  1001e0:	66 90                	xchg   %ax,%ax
  1001e2:	66 90                	xchg   %ax,%ax
  1001e4:	66 90                	xchg   %ax,%ax
  1001e6:	66 90                	xchg   %ax,%ax
  1001e8:	66 90                	xchg   %ax,%ax
  1001ea:	66 90                	xchg   %ax,%ax
  1001ec:	66 90                	xchg   %ax,%ax
  1001ee:	66 90                	xchg   %ax,%ax
  1001f0:	66 90                	xchg   %ax,%ax
  1001f2:	66 90                	xchg   %ax,%ax
  1001f4:	66 90                	xchg   %ax,%ax
  1001f6:	66 90                	xchg   %ax,%ax
  1001f8:	66 90                	xchg   %ax,%ax
  1001fa:	66 90                	xchg   %ax,%ax
  1001fc:	66 90                	xchg   %ax,%ax
  1001fe:	66 90                	xchg   %ax,%ax
  100200:	66 90                	xchg   %ax,%ax
  100202:	66 90                	xchg   %ax,%ax
  100204:	66 90                	xchg   %ax,%ax
  100206:	66 90                	xchg   %ax,%ax
  100208:	66 90                	xchg   %ax,%ax
  10020a:	66 90                	xchg   %ax,%ax
  10020c:	66 90                	xchg   %ax,%ax
  10020e:	66 90                	xchg   %ax,%ax
  100210:	66 90                	xchg   %ax,%ax
  100212:	66 90                	xchg   %ax,%ax
  100214:	66 90                	xchg   %ax,%ax
  100216:	66 90                	xchg   %ax,%ax
  100218:	66 90                	xchg   %ax,%ax
  10021a:	66 90                	xchg   %ax,%ax
  10021c:	66 90                	xchg   %ax,%ax
  10021e:	66 90                	xchg   %ax,%ax
  100220:	66 90                	xchg   %ax,%ax
  100222:	66 90                	xchg   %ax,%ax
  100224:	66 90                	xchg   %ax,%ax
  100226:	66 90                	xchg   %ax,%ax
  100228:	66 90                	xchg   %ax,%ax
  10022a:	66 90                	xchg   %ax,%ax
  10022c:	66 90                	xchg   %ax,%ax
  10022e:	66 90                	xchg   %ax,%ax
  100230:	66 90                	xchg   %ax,%ax
  100232:	66 90                	xchg   %ax,%ax
  100234:	66 90                	xchg   %ax,%ax
  100236:	66 90                	xchg   %ax,%ax
  100238:	66 90                	xchg   %ax,%ax
  10023a:	66 90                	xchg   %ax,%ax
  10023c:	66 90                	xchg   %ax,%ax
  10023e:	66 90                	xchg   %ax,%ax
  100240:	66 90                	xchg   %ax,%ax
  100242:	66 90                	xchg   %ax,%ax
  100244:	66 90                	xchg   %ax,%ax
  100246:	66 90                	xchg   %ax,%ax
  100248:	66 90                	xchg   %ax,%ax
  10024a:	66 90                	xchg   %ax,%ax
  10024c:	66 90                	xchg   %ax,%ax
  10024e:	66 90                	xchg   %ax,%ax
  100250:	66 90                	xchg   %ax,%ax
  100252:	66 90                	xchg   %ax,%ax
  100254:	66 90                	xchg   %ax,%ax
  100256:	66 90                	xchg   %ax,%ax
  100258:	66 90                	xchg   %ax,%ax
  10025a:	66 90                	xchg   %ax,%ax
  10025c:	66 90                	xchg   %ax,%ax
  10025e:	66 90                	xchg   %ax,%ax
  100260:	66 90                	xchg   %ax,%ax
  100262:	66 90                	xchg   %ax,%ax
  100264:	66 90                	xchg   %ax,%ax
  100266:	66 90                	xchg   %ax,%ax
  100268:	66 90                	xchg   %ax,%ax
  10026a:	66 90                	xchg   %ax,%ax
  10026c:	66 90                	xchg   %ax,%ax
  10026e:	66 90                	xchg   %ax,%ax
  100270:	66 90                	xchg   %ax,%ax
  100272:	66 90                	xchg   %ax,%ax
  100274:	66 90                	xchg   %ax,%ax
  100276:	66 90                	xchg   %ax,%ax
  100278:	66 90                	xchg   %ax,%ax
  10027a:	66 90                	xchg   %ax,%ax
  10027c:	66 90                	xchg   %ax,%ax
  10027e:	66 90                	xchg   %ax,%ax
  100280:	66 90                	xchg   %ax,%ax
  100282:	66 90                	xchg   %ax,%ax
  100284:	66 90                	xchg   %ax,%ax
  100286:	66 90                	xchg   %ax,%ax
  100288:	66 90                	xchg   %ax,%ax
  10028a:	66 90                	xchg   %ax,%ax
  10028c:	66 90                	xchg   %ax,%ax
  10028e:	66 90                	xchg   %ax,%ax
  100290:	66 90                	xchg   %ax,%ax
  100292:	66 90                	xchg   %ax,%ax
  100294:	66 90                	xchg   %ax,%ax
  100296:	66 90                	xchg   %ax,%ax
  100298:	66 90                	xchg   %ax,%ax
  10029a:	66 90                	xchg   %ax,%ax
  10029c:	66 90                	xchg   %ax,%ax
  10029e:	66 90                	xchg   %ax,%ax
  1002a0:	66 90                	xchg   %ax,%ax
  1002a2:	66 90                	xchg   %ax,%ax
  1002a4:	66 90                	xchg   %ax,%ax
  1002a6:	66 90                	xchg   %ax,%ax
  1002a8:	66 90                	xchg   %ax,%ax
  1002aa:	66 90                	xchg   %ax,%ax
  1002ac:	66 90                	xchg   %ax,%ax
  1002ae:	66 90                	xchg   %ax,%ax
  1002b0:	66 90                	xchg   %ax,%ax
  1002b2:	66 90                	xchg   %ax,%ax
  1002b4:	66 90                	xchg   %ax,%ax
  1002b6:	66 90                	xchg   %ax,%ax
  1002b8:	66 90                	xchg   %ax,%ax
  1002ba:	66 90                	xchg   %ax,%ax
  1002bc:	66 90                	xchg   %ax,%ax
  1002be:	66 90                	xchg   %ax,%ax
  1002c0:	66 90                	xchg   %ax,%ax
  1002c2:	66 90                	xchg   %ax,%ax
  1002c4:	66 90                	xchg   %ax,%ax
  1002c6:	66 90                	xchg   %ax,%ax
  1002c8:	66 90                	xchg   %ax,%ax
  1002ca:	66 90                	xchg   %ax,%ax
  1002cc:	66 90                	xchg   %ax,%ax
  1002ce:	66 90                	xchg   %ax,%ax
  1002d0:	66 90                	xchg   %ax,%ax
  1002d2:	66 90                	xchg   %ax,%ax
  1002d4:	66 90                	xchg   %ax,%ax
  1002d6:	66 90                	xchg   %ax,%ax
  1002d8:	66 90                	xchg   %ax,%ax
  1002da:	66 90                	xchg   %ax,%ax
  1002dc:	66 90                	xchg   %ax,%ax
  1002de:	66 90                	xchg   %ax,%ax
  1002e0:	66 90                	xchg   %ax,%ax
  1002e2:	66 90                	xchg   %ax,%ax
  1002e4:	66 90                	xchg   %ax,%ax
  1002e6:	66 90                	xchg   %ax,%ax
  1002e8:	66 90                	xchg   %ax,%ax
  1002ea:	66 90                	xchg   %ax,%ax
  1002ec:	66 90                	xchg   %ax,%ax
  1002ee:	66 90                	xchg   %ax,%ax
  1002f0:	66 90                	xchg   %ax,%ax
  1002f2:	66 90                	xchg   %ax,%ax
  1002f4:	66 90                	xchg   %ax,%ax
  1002f6:	66 90                	xchg   %ax,%ax
  1002f8:	66 90                	xchg   %ax,%ax
  1002fa:	66 90                	xchg   %ax,%ax
  1002fc:	66 90                	xchg   %ax,%ax
  1002fe:	66 90                	xchg   %ax,%ax
  100300:	66 90                	xchg   %ax,%ax
  100302:	66 90                	xchg   %ax,%ax
  100304:	66 90                	xchg   %ax,%ax
  100306:	66 90                	xchg   %ax,%ax
  100308:	66 90                	xchg   %ax,%ax
  10030a:	66 90                	xchg   %ax,%ax
  10030c:	66 90                	xchg   %ax,%ax
  10030e:	66 90                	xchg   %ax,%ax
  100310:	66 90                	xchg   %ax,%ax
  100312:	66 90                	xchg   %ax,%ax
  100314:	66 90                	xchg   %ax,%ax
  100316:	66 90                	xchg   %ax,%ax
  100318:	66 90                	xchg   %ax,%ax
  10031a:	66 90                	xchg   %ax,%ax
  10031c:	66 90                	xchg   %ax,%ax
  10031e:	66 90                	xchg   %ax,%ax
  100320:	66 90                	xchg   %ax,%ax
  100322:	66 90                	xchg   %ax,%ax
  100324:	66 90                	xchg   %ax,%ax
  100326:	66 90                	xchg   %ax,%ax
  100328:	66 90                	xchg   %ax,%ax
  10032a:	66 90                	xchg   %ax,%ax
  10032c:	66 90                	xchg   %ax,%ax
  10032e:	66 90                	xchg   %ax,%ax
  100330:	66 90                	xchg   %ax,%ax
  100332:	66 90                	xchg   %ax,%ax
  100334:	66 90                	xchg   %ax,%ax
  100336:	66 90                	xchg   %ax,%ax
  100338:	66 90                	xchg   %ax,%ax
  10033a:	66 90                	xchg   %ax,%ax
  10033c:	66 90                	xchg   %ax,%ax
  10033e:	66 90                	xchg   %ax,%ax
  100340:	66 90                	xchg   %ax,%ax
  100342:	66 90                	xchg   %ax,%ax
  100344:	66 90                	xchg   %ax,%ax
  100346:	66 90                	xchg   %ax,%ax
  100348:	66 90                	xchg   %ax,%ax
  10034a:	66 90                	xchg   %ax,%ax
  10034c:	66 90                	xchg   %ax,%ax
  10034e:	66 90                	xchg   %ax,%ax
  100350:	66 90                	xchg   %ax,%ax
  100352:	66 90                	xchg   %ax,%ax
  100354:	66 90                	xchg   %ax,%ax
  100356:	66 90                	xchg   %ax,%ax
  100358:	66 90                	xchg   %ax,%ax
  10035a:	66 90                	xchg   %ax,%ax
  10035c:	66 90                	xchg   %ax,%ax
  10035e:	66 90                	xchg   %ax,%ax
  100360:	66 90                	xchg   %ax,%ax
  100362:	66 90                	xchg   %ax,%ax
  100364:	66 90                	xchg   %ax,%ax
  100366:	66 90                	xchg   %ax,%ax
  100368:	66 90                	xchg   %ax,%ax
  10036a:	66 90                	xchg   %ax,%ax
  10036c:	66 90                	xchg   %ax,%ax
  10036e:	66 90                	xchg   %ax,%ax
  100370:	66 90                	xchg   %ax,%ax
  100372:	66 90                	xchg   %ax,%ax
  100374:	66 90                	xchg   %ax,%ax
  100376:	66 90                	xchg   %ax,%ax
  100378:	66 90                	xchg   %ax,%ax
  10037a:	66 90                	xchg   %ax,%ax
  10037c:	66 90                	xchg   %ax,%ax
  10037e:	66 90                	xchg   %ax,%ax
  100380:	66 90                	xchg   %ax,%ax
  100382:	66 90                	xchg   %ax,%ax
  100384:	66 90                	xchg   %ax,%ax
  100386:	66 90                	xchg   %ax,%ax
  100388:	66 90                	xchg   %ax,%ax
  10038a:	66 90                	xchg   %ax,%ax
  10038c:	66 90                	xchg   %ax,%ax
  10038e:	66 90                	xchg   %ax,%ax
  100390:	66 90                	xchg   %ax,%ax
  100392:	66 90                	xchg   %ax,%ax
  100394:	66 90                	xchg   %ax,%ax
  100396:	66 90                	xchg   %ax,%ax
  100398:	66 90                	xchg   %ax,%ax
  10039a:	66 90                	xchg   %ax,%ax
  10039c:	66 90                	xchg   %ax,%ax
  10039e:	66 90                	xchg   %ax,%ax
  1003a0:	66 90                	xchg   %ax,%ax
  1003a2:	66 90                	xchg   %ax,%ax
  1003a4:	66 90                	xchg   %ax,%ax
  1003a6:	66 90                	xchg   %ax,%ax
  1003a8:	66 90                	xchg   %ax,%ax
  1003aa:	66 90                	xchg   %ax,%ax
  1003ac:	66 90                	xchg   %ax,%ax
  1003ae:	66 90                	xchg   %ax,%ax
  1003b0:	66 90                	xchg   %ax,%ax
  1003b2:	66 90                	xchg   %ax,%ax
  1003b4:	66 90                	xchg   %ax,%ax
  1003b6:	66 90                	xchg   %ax,%ax
  1003b8:	66 90                	xchg   %ax,%ax
  1003ba:	66 90                	xchg   %ax,%ax
  1003bc:	66 90                	xchg   %ax,%ax
  1003be:	66 90                	xchg   %ax,%ax
  1003c0:	66 90                	xchg   %ax,%ax
  1003c2:	66 90                	xchg   %ax,%ax
  1003c4:	66 90                	xchg   %ax,%ax
  1003c6:	66 90                	xchg   %ax,%ax
  1003c8:	66 90                	xchg   %ax,%ax
  1003ca:	66 90                	xchg   %ax,%ax
  1003cc:	66 90                	xchg   %ax,%ax
  1003ce:	66 90                	xchg   %ax,%ax
  1003d0:	66 90                	xchg   %ax,%ax
  1003d2:	66 90                	xchg   %ax,%ax
  1003d4:	66 90                	xchg   %ax,%ax
  1003d6:	66 90                	xchg   %ax,%ax
  1003d8:	66 90                	xchg   %ax,%ax
  1003da:	66 90                	xchg   %ax,%ax
  1003dc:	66 90                	xchg   %ax,%ax
  1003de:	66 90                	xchg   %ax,%ax
  1003e0:	66 90                	xchg   %ax,%ax
  1003e2:	66 90                	xchg   %ax,%ax
  1003e4:	66 90                	xchg   %ax,%ax
  1003e6:	66 90                	xchg   %ax,%ax
  1003e8:	66 90                	xchg   %ax,%ax
  1003ea:	66 90                	xchg   %ax,%ax
  1003ec:	66 90                	xchg   %ax,%ax
  1003ee:	66 90                	xchg   %ax,%ax
  1003f0:	66 90                	xchg   %ax,%ax
  1003f2:	66 90                	xchg   %ax,%ax
  1003f4:	66 90                	xchg   %ax,%ax
  1003f6:	66 90                	xchg   %ax,%ax
  1003f8:	66 90                	xchg   %ax,%ax
  1003fa:	66 90                	xchg   %ax,%ax
  1003fc:	66 90                	xchg   %ax,%ax
  1003fe:	66 90                	xchg   %ax,%ax
  100400:	66 90                	xchg   %ax,%ax
  100402:	66 90                	xchg   %ax,%ax
  100404:	66 90                	xchg   %ax,%ax
  100406:	66 90                	xchg   %ax,%ax
  100408:	66 90                	xchg   %ax,%ax
  10040a:	66 90                	xchg   %ax,%ax
  10040c:	66 90                	xchg   %ax,%ax
  10040e:	66 90                	xchg   %ax,%ax
  100410:	66 90                	xchg   %ax,%ax
  100412:	66 90                	xchg   %ax,%ax
  100414:	66 90                	xchg   %ax,%ax
  100416:	66 90                	xchg   %ax,%ax
  100418:	66 90                	xchg   %ax,%ax
  10041a:	66 90                	xchg   %ax,%ax
  10041c:	66 90                	xchg   %ax,%ax
  10041e:	66 90                	xchg   %ax,%ax
  100420:	66 90                	xchg   %ax,%ax
  100422:	66 90                	xchg   %ax,%ax
  100424:	66 90                	xchg   %ax,%ax
  100426:	66 90                	xchg   %ax,%ax
  100428:	66 90                	xchg   %ax,%ax
  10042a:	66 90                	xchg   %ax,%ax
  10042c:	66 90                	xchg   %ax,%ax
  10042e:	66 90                	xchg   %ax,%ax
  100430:	66 90                	xchg   %ax,%ax
  100432:	66 90                	xchg   %ax,%ax
  100434:	66 90                	xchg   %ax,%ax
  100436:	66 90                	xchg   %ax,%ax
  100438:	66 90                	xchg   %ax,%ax
  10043a:	66 90                	xchg   %ax,%ax
  10043c:	66 90                	xchg   %ax,%ax
  10043e:	66 90                	xchg   %ax,%ax
  100440:	66 90                	xchg   %ax,%ax
  100442:	66 90                	xchg   %ax,%ax
  100444:	66 90                	xchg   %ax,%ax
  100446:	66 90                	xchg   %ax,%ax
  100448:	66 90                	xchg   %ax,%ax
  10044a:	66 90                	xchg   %ax,%ax
  10044c:	66 90                	xchg   %ax,%ax
  10044e:	66 90                	xchg   %ax,%ax
  100450:	66 90                	xchg   %ax,%ax
  100452:	66 90                	xchg   %ax,%ax
  100454:	66 90                	xchg   %ax,%ax
  100456:	66 90                	xchg   %ax,%ax
  100458:	66 90                	xchg   %ax,%ax
  10045a:	66 90                	xchg   %ax,%ax
  10045c:	66 90                	xchg   %ax,%ax
  10045e:	66 90                	xchg   %ax,%ax
  100460:	66 90                	xchg   %ax,%ax
  100462:	66 90                	xchg   %ax,%ax
  100464:	66 90                	xchg   %ax,%ax
  100466:	66 90                	xchg   %ax,%ax
  100468:	66 90                	xchg   %ax,%ax
  10046a:	66 90                	xchg   %ax,%ax
  10046c:	66 90                	xchg   %ax,%ax
  10046e:	66 90                	xchg   %ax,%ax
  100470:	66 90                	xchg   %ax,%ax
  100472:	66 90                	xchg   %ax,%ax
  100474:	66 90                	xchg   %ax,%ax
  100476:	66 90                	xchg   %ax,%ax
  100478:	66 90                	xchg   %ax,%ax
  10047a:	66 90                	xchg   %ax,%ax
  10047c:	66 90                	xchg   %ax,%ax
  10047e:	66 90                	xchg   %ax,%ax
  100480:	66 90                	xchg   %ax,%ax
  100482:	66 90                	xchg   %ax,%ax
  100484:	66 90                	xchg   %ax,%ax
  100486:	66 90                	xchg   %ax,%ax
  100488:	66 90                	xchg   %ax,%ax
  10048a:	66 90                	xchg   %ax,%ax
  10048c:	66 90                	xchg   %ax,%ax
  10048e:	66 90                	xchg   %ax,%ax
  100490:	66 90                	xchg   %ax,%ax
  100492:	66 90                	xchg   %ax,%ax
  100494:	66 90                	xchg   %ax,%ax
  100496:	66 90                	xchg   %ax,%ax
  100498:	66 90                	xchg   %ax,%ax
  10049a:	66 90                	xchg   %ax,%ax
  10049c:	66 90                	xchg   %ax,%ax
  10049e:	66 90                	xchg   %ax,%ax
  1004a0:	66 90                	xchg   %ax,%ax
  1004a2:	66 90                	xchg   %ax,%ax
  1004a4:	66 90                	xchg   %ax,%ax
  1004a6:	66 90                	xchg   %ax,%ax
  1004a8:	66 90                	xchg   %ax,%ax
  1004aa:	66 90                	xchg   %ax,%ax
  1004ac:	66 90                	xchg   %ax,%ax
  1004ae:	66 90                	xchg   %ax,%ax
  1004b0:	66 90                	xchg   %ax,%ax
  1004b2:	66 90                	xchg   %ax,%ax
  1004b4:	66 90                	xchg   %ax,%ax
  1004b6:	66 90                	xchg   %ax,%ax
  1004b8:	66 90                	xchg   %ax,%ax
  1004ba:	66 90                	xchg   %ax,%ax
  1004bc:	66 90                	xchg   %ax,%ax
  1004be:	66 90                	xchg   %ax,%ax
  1004c0:	66 90                	xchg   %ax,%ax
  1004c2:	66 90                	xchg   %ax,%ax
  1004c4:	66 90                	xchg   %ax,%ax
  1004c6:	66 90                	xchg   %ax,%ax
  1004c8:	66 90                	xchg   %ax,%ax
  1004ca:	66 90                	xchg   %ax,%ax
  1004cc:	66 90                	xchg   %ax,%ax
  1004ce:	66 90                	xchg   %ax,%ax
  1004d0:	66 90                	xchg   %ax,%ax
  1004d2:	66 90                	xchg   %ax,%ax
  1004d4:	66 90                	xchg   %ax,%ax
  1004d6:	66 90                	xchg   %ax,%ax
  1004d8:	66 90                	xchg   %ax,%ax
  1004da:	66 90                	xchg   %ax,%ax
  1004dc:	66 90                	xchg   %ax,%ax
  1004de:	66 90                	xchg   %ax,%ax
  1004e0:	66 90                	xchg   %ax,%ax
  1004e2:	66 90                	xchg   %ax,%ax
  1004e4:	66 90                	xchg   %ax,%ax
  1004e6:	66 90                	xchg   %ax,%ax
  1004e8:	66 90                	xchg   %ax,%ax
  1004ea:	66 90                	xchg   %ax,%ax
  1004ec:	66 90                	xchg   %ax,%ax
  1004ee:	66 90                	xchg   %ax,%ax
  1004f0:	66 90                	xchg   %ax,%ax
  1004f2:	66 90                	xchg   %ax,%ax
  1004f4:	66 90                	xchg   %ax,%ax
  1004f6:	66 90                	xchg   %ax,%ax
  1004f8:	66 90                	xchg   %ax,%ax
  1004fa:	66 90                	xchg   %ax,%ax
  1004fc:	66 90                	xchg   %ax,%ax
  1004fe:	66 90                	xchg   %ax,%ax
  100500:	66 90                	xchg   %ax,%ax
  100502:	66 90                	xchg   %ax,%ax
  100504:	66 90                	xchg   %ax,%ax
  100506:	66 90                	xchg   %ax,%ax
  100508:	66 90                	xchg   %ax,%ax
  10050a:	66 90                	xchg   %ax,%ax
  10050c:	66 90                	xchg   %ax,%ax
  10050e:	66 90                	xchg   %ax,%ax
  100510:	66 90                	xchg   %ax,%ax
  100512:	66 90                	xchg   %ax,%ax
  100514:	66 90                	xchg   %ax,%ax
  100516:	66 90                	xchg   %ax,%ax
  100518:	66 90                	xchg   %ax,%ax
  10051a:	66 90                	xchg   %ax,%ax
  10051c:	66 90                	xchg   %ax,%ax
  10051e:	66 90                	xchg   %ax,%ax
  100520:	66 90                	xchg   %ax,%ax
  100522:	66 90                	xchg   %ax,%ax
  100524:	66 90                	xchg   %ax,%ax
  100526:	66 90                	xchg   %ax,%ax
  100528:	66 90                	xchg   %ax,%ax
  10052a:	66 90                	xchg   %ax,%ax
  10052c:	66 90                	xchg   %ax,%ax
  10052e:	66 90                	xchg   %ax,%ax
  100530:	66 90                	xchg   %ax,%ax
  100532:	66 90                	xchg   %ax,%ax
  100534:	66 90                	xchg   %ax,%ax
  100536:	66 90                	xchg   %ax,%ax
  100538:	66 90                	xchg   %ax,%ax
  10053a:	66 90                	xchg   %ax,%ax
  10053c:	66 90                	xchg   %ax,%ax
  10053e:	66 90                	xchg   %ax,%ax
  100540:	66 90                	xchg   %ax,%ax
  100542:	66 90                	xchg   %ax,%ax
  100544:	66 90                	xchg   %ax,%ax
  100546:	66 90                	xchg   %ax,%ax
  100548:	66 90                	xchg   %ax,%ax
  10054a:	66 90                	xchg   %ax,%ax
  10054c:	66 90                	xchg   %ax,%ax
  10054e:	66 90                	xchg   %ax,%ax
  100550:	66 90                	xchg   %ax,%ax
  100552:	66 90                	xchg   %ax,%ax
  100554:	66 90                	xchg   %ax,%ax
  100556:	66 90                	xchg   %ax,%ax
  100558:	66 90                	xchg   %ax,%ax
  10055a:	66 90                	xchg   %ax,%ax
  10055c:	66 90                	xchg   %ax,%ax
  10055e:	66 90                	xchg   %ax,%ax
  100560:	66 90                	xchg   %ax,%ax
  100562:	66 90                	xchg   %ax,%ax
  100564:	66 90                	xchg   %ax,%ax
  100566:	66 90                	xchg   %ax,%ax
  100568:	66 90                	xchg   %ax,%ax
  10056a:	66 90                	xchg   %ax,%ax
  10056c:	66 90                	xchg   %ax,%ax
  10056e:	66 90                	xchg   %ax,%ax
  100570:	66 90                	xchg   %ax,%ax
  100572:	66 90                	xchg   %ax,%ax
  100574:	66 90                	xchg   %ax,%ax
  100576:	66 90                	xchg   %ax,%ax
  100578:	66 90                	xchg   %ax,%ax
  10057a:	66 90                	xchg   %ax,%ax
  10057c:	66 90                	xchg   %ax,%ax
  10057e:	66 90                	xchg   %ax,%ax
  100580:	66 90                	xchg   %ax,%ax
  100582:	66 90                	xchg   %ax,%ax
  100584:	66 90                	xchg   %ax,%ax
  100586:	66 90                	xchg   %ax,%ax
  100588:	66 90                	xchg   %ax,%ax
  10058a:	66 90                	xchg   %ax,%ax
  10058c:	66 90                	xchg   %ax,%ax
  10058e:	66 90                	xchg   %ax,%ax
  100590:	66 90                	xchg   %ax,%ax
  100592:	66 90                	xchg   %ax,%ax
  100594:	66 90                	xchg   %ax,%ax
  100596:	66 90                	xchg   %ax,%ax
  100598:	66 90                	xchg   %ax,%ax
  10059a:	66 90                	xchg   %ax,%ax
  10059c:	66 90                	xchg   %ax,%ax
  10059e:	66 90                	xchg   %ax,%ax
  1005a0:	66 90                	xchg   %ax,%ax
  1005a2:	66 90                	xchg   %ax,%ax
  1005a4:	66 90                	xchg   %ax,%ax
  1005a6:	66 90                	xchg   %ax,%ax
  1005a8:	66 90                	xchg   %ax,%ax
  1005aa:	66 90                	xchg   %ax,%ax
  1005ac:	66 90                	xchg   %ax,%ax
  1005ae:	66 90                	xchg   %ax,%ax
  1005b0:	66 90                	xchg   %ax,%ax
  1005b2:	66 90                	xchg   %ax,%ax
  1005b4:	66 90                	xchg   %ax,%ax
  1005b6:	66 90                	xchg   %ax,%ax
  1005b8:	66 90                	xchg   %ax,%ax
  1005ba:	66 90                	xchg   %ax,%ax
  1005bc:	66 90                	xchg   %ax,%ax
  1005be:	66 90                	xchg   %ax,%ax
  1005c0:	66 90                	xchg   %ax,%ax
  1005c2:	66 90                	xchg   %ax,%ax
  1005c4:	66 90                	xchg   %ax,%ax
  1005c6:	66 90                	xchg   %ax,%ax
  1005c8:	66 90                	xchg   %ax,%ax
  1005ca:	66 90                	xchg   %ax,%ax
  1005cc:	66 90                	xchg   %ax,%ax
  1005ce:	66 90                	xchg   %ax,%ax
  1005d0:	66 90                	xchg   %ax,%ax
  1005d2:	66 90                	xchg   %ax,%ax
  1005d4:	66 90                	xchg   %ax,%ax
  1005d6:	66 90                	xchg   %ax,%ax
  1005d8:	66 90                	xchg   %ax,%ax
  1005da:	66 90                	xchg   %ax,%ax
  1005dc:	66 90                	xchg   %ax,%ax
  1005de:	66 90                	xchg   %ax,%ax
  1005e0:	66 90                	xchg   %ax,%ax
  1005e2:	66 90                	xchg   %ax,%ax
  1005e4:	66 90                	xchg   %ax,%ax
  1005e6:	66 90                	xchg   %ax,%ax
  1005e8:	66 90                	xchg   %ax,%ax
  1005ea:	66 90                	xchg   %ax,%ax
  1005ec:	66 90                	xchg   %ax,%ax
  1005ee:	66 90                	xchg   %ax,%ax
  1005f0:	66 90                	xchg   %ax,%ax
  1005f2:	66 90                	xchg   %ax,%ax
  1005f4:	66 90                	xchg   %ax,%ax
  1005f6:	66 90                	xchg   %ax,%ax
  1005f8:	66 90                	xchg   %ax,%ax
  1005fa:	66 90                	xchg   %ax,%ax
  1005fc:	66 90                	xchg   %ax,%ax
  1005fe:	66 90                	xchg   %ax,%ax
  100600:	66 90                	xchg   %ax,%ax
  100602:	66 90                	xchg   %ax,%ax
  100604:	66 90                	xchg   %ax,%ax
  100606:	66 90                	xchg   %ax,%ax
  100608:	66 90                	xchg   %ax,%ax
  10060a:	66 90                	xchg   %ax,%ax
  10060c:	66 90                	xchg   %ax,%ax
  10060e:	66 90                	xchg   %ax,%ax
  100610:	66 90                	xchg   %ax,%ax
  100612:	66 90                	xchg   %ax,%ax
  100614:	66 90                	xchg   %ax,%ax
  100616:	66 90                	xchg   %ax,%ax
  100618:	66 90                	xchg   %ax,%ax
  10061a:	66 90                	xchg   %ax,%ax
  10061c:	66 90                	xchg   %ax,%ax
  10061e:	66 90                	xchg   %ax,%ax
  100620:	66 90                	xchg   %ax,%ax
  100622:	66 90                	xchg   %ax,%ax
  100624:	66 90                	xchg   %ax,%ax
  100626:	66 90                	xchg   %ax,%ax
  100628:	66 90                	xchg   %ax,%ax
  10062a:	66 90                	xchg   %ax,%ax
  10062c:	66 90                	xchg   %ax,%ax
  10062e:	66 90                	xchg   %ax,%ax
  100630:	66 90                	xchg   %ax,%ax
  100632:	66 90                	xchg   %ax,%ax
  100634:	66 90                	xchg   %ax,%ax
  100636:	66 90                	xchg   %ax,%ax
  100638:	66 90                	xchg   %ax,%ax
  10063a:	66 90                	xchg   %ax,%ax
  10063c:	66 90                	xchg   %ax,%ax
  10063e:	66 90                	xchg   %ax,%ax
  100640:	66 90                	xchg   %ax,%ax
  100642:	66 90                	xchg   %ax,%ax
  100644:	66 90                	xchg   %ax,%ax
  100646:	66 90                	xchg   %ax,%ax
  100648:	66 90                	xchg   %ax,%ax
  10064a:	66 90                	xchg   %ax,%ax
  10064c:	66 90                	xchg   %ax,%ax
  10064e:	66 90                	xchg   %ax,%ax
  100650:	66 90                	xchg   %ax,%ax
  100652:	66 90                	xchg   %ax,%ax
  100654:	66 90                	xchg   %ax,%ax
  100656:	66 90                	xchg   %ax,%ax
  100658:	66 90                	xchg   %ax,%ax
  10065a:	66 90                	xchg   %ax,%ax
  10065c:	66 90                	xchg   %ax,%ax
  10065e:	66 90                	xchg   %ax,%ax
  100660:	66 90                	xchg   %ax,%ax
  100662:	66 90                	xchg   %ax,%ax
  100664:	66 90                	xchg   %ax,%ax
  100666:	66 90                	xchg   %ax,%ax
  100668:	66 90                	xchg   %ax,%ax
  10066a:	66 90                	xchg   %ax,%ax
  10066c:	66 90                	xchg   %ax,%ax
  10066e:	66 90                	xchg   %ax,%ax
  100670:	66 90                	xchg   %ax,%ax
  100672:	66 90                	xchg   %ax,%ax
  100674:	66 90                	xchg   %ax,%ax
  100676:	66 90                	xchg   %ax,%ax
  100678:	66 90                	xchg   %ax,%ax
  10067a:	66 90                	xchg   %ax,%ax
  10067c:	66 90                	xchg   %ax,%ax
  10067e:	66 90                	xchg   %ax,%ax
  100680:	66 90                	xchg   %ax,%ax
  100682:	66 90                	xchg   %ax,%ax
  100684:	66 90                	xchg   %ax,%ax
  100686:	66 90                	xchg   %ax,%ax
  100688:	66 90                	xchg   %ax,%ax
  10068a:	66 90                	xchg   %ax,%ax
  10068c:	66 90                	xchg   %ax,%ax
  10068e:	66 90                	xchg   %ax,%ax
  100690:	66 90                	xchg   %ax,%ax
  100692:	66 90                	xchg   %ax,%ax
  100694:	66 90                	xchg   %ax,%ax
  100696:	66 90                	xchg   %ax,%ax
  100698:	66 90                	xchg   %ax,%ax
  10069a:	66 90                	xchg   %ax,%ax
  10069c:	66 90                	xchg   %ax,%ax
  10069e:	66 90                	xchg   %ax,%ax
  1006a0:	66 90                	xchg   %ax,%ax
  1006a2:	66 90                	xchg   %ax,%ax
  1006a4:	66 90                	xchg   %ax,%ax
  1006a6:	66 90                	xchg   %ax,%ax
  1006a8:	66 90                	xchg   %ax,%ax
  1006aa:	66 90                	xchg   %ax,%ax
  1006ac:	66 90                	xchg   %ax,%ax
  1006ae:	66 90                	xchg   %ax,%ax
  1006b0:	66 90                	xchg   %ax,%ax
  1006b2:	66 90                	xchg   %ax,%ax
  1006b4:	66 90                	xchg   %ax,%ax
  1006b6:	66 90                	xchg   %ax,%ax
  1006b8:	66 90                	xchg   %ax,%ax
  1006ba:	66 90                	xchg   %ax,%ax
  1006bc:	66 90                	xchg   %ax,%ax
  1006be:	66 90                	xchg   %ax,%ax
  1006c0:	66 90                	xchg   %ax,%ax
  1006c2:	66 90                	xchg   %ax,%ax
  1006c4:	66 90                	xchg   %ax,%ax
  1006c6:	66 90                	xchg   %ax,%ax
  1006c8:	66 90                	xchg   %ax,%ax
  1006ca:	66 90                	xchg   %ax,%ax
  1006cc:	66 90                	xchg   %ax,%ax
  1006ce:	66 90                	xchg   %ax,%ax
  1006d0:	66 90                	xchg   %ax,%ax
  1006d2:	66 90                	xchg   %ax,%ax
  1006d4:	66 90                	xchg   %ax,%ax
  1006d6:	66 90                	xchg   %ax,%ax
  1006d8:	66 90                	xchg   %ax,%ax
  1006da:	66 90                	xchg   %ax,%ax
  1006dc:	66 90                	xchg   %ax,%ax
  1006de:	66 90                	xchg   %ax,%ax
  1006e0:	66 90                	xchg   %ax,%ax
  1006e2:	66 90                	xchg   %ax,%ax
  1006e4:	66 90                	xchg   %ax,%ax
  1006e6:	66 90                	xchg   %ax,%ax
  1006e8:	66 90                	xchg   %ax,%ax
  1006ea:	66 90                	xchg   %ax,%ax
  1006ec:	66 90                	xchg   %ax,%ax
  1006ee:	66 90                	xchg   %ax,%ax
  1006f0:	66 90                	xchg   %ax,%ax
  1006f2:	66 90                	xchg   %ax,%ax
  1006f4:	66 90                	xchg   %ax,%ax
  1006f6:	66 90                	xchg   %ax,%ax
  1006f8:	66 90                	xchg   %ax,%ax
  1006fa:	66 90                	xchg   %ax,%ax
  1006fc:	66 90                	xchg   %ax,%ax
  1006fe:	66 90                	xchg   %ax,%ax
  100700:	66 90                	xchg   %ax,%ax
  100702:	66 90                	xchg   %ax,%ax
  100704:	66 90                	xchg   %ax,%ax
  100706:	66 90                	xchg   %ax,%ax
  100708:	66 90                	xchg   %ax,%ax
  10070a:	66 90                	xchg   %ax,%ax
  10070c:	66 90                	xchg   %ax,%ax
  10070e:	66 90                	xchg   %ax,%ax
  100710:	66 90                	xchg   %ax,%ax
  100712:	66 90                	xchg   %ax,%ax
  100714:	66 90                	xchg   %ax,%ax
  100716:	66 90                	xchg   %ax,%ax
  100718:	66 90                	xchg   %ax,%ax
  10071a:	66 90                	xchg   %ax,%ax
  10071c:	66 90                	xchg   %ax,%ax
  10071e:	66 90                	xchg   %ax,%ax
  100720:	66 90                	xchg   %ax,%ax
  100722:	66 90                	xchg   %ax,%ax
  100724:	66 90                	xchg   %ax,%ax
  100726:	66 90                	xchg   %ax,%ax
  100728:	66 90                	xchg   %ax,%ax
  10072a:	66 90                	xchg   %ax,%ax
  10072c:	66 90                	xchg   %ax,%ax
  10072e:	66 90                	xchg   %ax,%ax
  100730:	66 90                	xchg   %ax,%ax
  100732:	66 90                	xchg   %ax,%ax
  100734:	66 90                	xchg   %ax,%ax
  100736:	66 90                	xchg   %ax,%ax
  100738:	66 90                	xchg   %ax,%ax
  10073a:	66 90                	xchg   %ax,%ax
  10073c:	66 90                	xchg   %ax,%ax
  10073e:	66 90                	xchg   %ax,%ax
  100740:	66 90                	xchg   %ax,%ax
  100742:	66 90                	xchg   %ax,%ax
  100744:	66 90                	xchg   %ax,%ax
  100746:	66 90                	xchg   %ax,%ax
  100748:	66 90                	xchg   %ax,%ax
  10074a:	66 90                	xchg   %ax,%ax
  10074c:	66 90                	xchg   %ax,%ax
  10074e:	66 90                	xchg   %ax,%ax
  100750:	66 90                	xchg   %ax,%ax
  100752:	66 90                	xchg   %ax,%ax
  100754:	66 90                	xchg   %ax,%ax
  100756:	66 90                	xchg   %ax,%ax
  100758:	66 90                	xchg   %ax,%ax
  10075a:	66 90                	xchg   %ax,%ax
  10075c:	66 90                	xchg   %ax,%ax
  10075e:	66 90                	xchg   %ax,%ax
  100760:	66 90                	xchg   %ax,%ax
  100762:	66 90                	xchg   %ax,%ax
  100764:	66 90                	xchg   %ax,%ax
  100766:	66 90                	xchg   %ax,%ax
  100768:	66 90                	xchg   %ax,%ax
  10076a:	66 90                	xchg   %ax,%ax
  10076c:	66 90                	xchg   %ax,%ax
  10076e:	66 90                	xchg   %ax,%ax
  100770:	66 90                	xchg   %ax,%ax
  100772:	66 90                	xchg   %ax,%ax
  100774:	66 90                	xchg   %ax,%ax
  100776:	66 90                	xchg   %ax,%ax
  100778:	66 90                	xchg   %ax,%ax
  10077a:	66 90                	xchg   %ax,%ax
  10077c:	66 90                	xchg   %ax,%ax
  10077e:	66 90                	xchg   %ax,%ax
  100780:	66 90                	xchg   %ax,%ax
  100782:	66 90                	xchg   %ax,%ax
  100784:	66 90                	xchg   %ax,%ax
  100786:	66 90                	xchg   %ax,%ax
  100788:	66 90                	xchg   %ax,%ax
  10078a:	66 90                	xchg   %ax,%ax
  10078c:	66 90                	xchg   %ax,%ax
  10078e:	66 90                	xchg   %ax,%ax
  100790:	66 90                	xchg   %ax,%ax
  100792:	66 90                	xchg   %ax,%ax
  100794:	66 90                	xchg   %ax,%ax
  100796:	66 90                	xchg   %ax,%ax
  100798:	66 90                	xchg   %ax,%ax
  10079a:	66 90                	xchg   %ax,%ax
  10079c:	66 90                	xchg   %ax,%ax
  10079e:	66 90                	xchg   %ax,%ax
  1007a0:	66 90                	xchg   %ax,%ax
  1007a2:	66 90                	xchg   %ax,%ax
  1007a4:	66 90                	xchg   %ax,%ax
  1007a6:	66 90                	xchg   %ax,%ax
  1007a8:	66 90                	xchg   %ax,%ax
  1007aa:	66 90                	xchg   %ax,%ax
  1007ac:	66 90                	xchg   %ax,%ax
  1007ae:	66 90                	xchg   %ax,%ax
  1007b0:	66 90                	xchg   %ax,%ax
  1007b2:	66 90                	xchg   %ax,%ax
  1007b4:	66 90                	xchg   %ax,%ax
  1007b6:	66 90                	xchg   %ax,%ax
  1007b8:	66 90                	xchg   %ax,%ax
  1007ba:	66 90                	xchg   %ax,%ax
  1007bc:	66 90                	xchg   %ax,%ax
  1007be:	66 90                	xchg   %ax,%ax
  1007c0:	66 90                	xchg   %ax,%ax
  1007c2:	66 90                	xchg   %ax,%ax
  1007c4:	66 90                	xchg   %ax,%ax
  1007c6:	66 90                	xchg   %ax,%ax
  1007c8:	66 90                	xchg   %ax,%ax
  1007ca:	66 90                	xchg   %ax,%ax
  1007cc:	66 90                	xchg   %ax,%ax
  1007ce:	66 90                	xchg   %ax,%ax
  1007d0:	66 90                	xchg   %ax,%ax
  1007d2:	66 90                	xchg   %ax,%ax
  1007d4:	66 90                	xchg   %ax,%ax
  1007d6:	66 90                	xchg   %ax,%ax
  1007d8:	66 90                	xchg   %ax,%ax
  1007da:	66 90                	xchg   %ax,%ax
  1007dc:	66 90                	xchg   %ax,%ax
  1007de:	66 90                	xchg   %ax,%ax
  1007e0:	66 90                	xchg   %ax,%ax
  1007e2:	66 90                	xchg   %ax,%ax
  1007e4:	66 90                	xchg   %ax,%ax
  1007e6:	66 90                	xchg   %ax,%ax
  1007e8:	66 90                	xchg   %ax,%ax
  1007ea:	66 90                	xchg   %ax,%ax
  1007ec:	66 90                	xchg   %ax,%ax
  1007ee:	66 90                	xchg   %ax,%ax
  1007f0:	66 90                	xchg   %ax,%ax
  1007f2:	66 90                	xchg   %ax,%ax
  1007f4:	66 90                	xchg   %ax,%ax
  1007f6:	66 90                	xchg   %ax,%ax
  1007f8:	66 90                	xchg   %ax,%ax
  1007fa:	66 90                	xchg   %ax,%ax
  1007fc:	66 90                	xchg   %ax,%ax
  1007fe:	66 90                	xchg   %ax,%ax
  100800:	66 90                	xchg   %ax,%ax
  100802:	66 90                	xchg   %ax,%ax
  100804:	66 90                	xchg   %ax,%ax
  100806:	66 90                	xchg   %ax,%ax
  100808:	66 90                	xchg   %ax,%ax
  10080a:	66 90                	xchg   %ax,%ax
  10080c:	66 90                	xchg   %ax,%ax
  10080e:	66 90                	xchg   %ax,%ax
  100810:	66 90                	xchg   %ax,%ax
  100812:	66 90                	xchg   %ax,%ax
  100814:	66 90                	xchg   %ax,%ax
  100816:	66 90                	xchg   %ax,%ax
  100818:	66 90                	xchg   %ax,%ax
  10081a:	66 90                	xchg   %ax,%ax
  10081c:	66 90                	xchg   %ax,%ax
  10081e:	66 90                	xchg   %ax,%ax
  100820:	66 90                	xchg   %ax,%ax
  100822:	66 90                	xchg   %ax,%ax
  100824:	66 90                	xchg   %ax,%ax
  100826:	66 90                	xchg   %ax,%ax
  100828:	66 90                	xchg   %ax,%ax
  10082a:	66 90                	xchg   %ax,%ax
  10082c:	66 90                	xchg   %ax,%ax
  10082e:	66 90                	xchg   %ax,%ax
  100830:	66 90                	xchg   %ax,%ax
  100832:	66 90                	xchg   %ax,%ax
  100834:	66 90                	xchg   %ax,%ax
  100836:	66 90                	xchg   %ax,%ax
  100838:	66 90                	xchg   %ax,%ax
  10083a:	66 90                	xchg   %ax,%ax
  10083c:	66 90                	xchg   %ax,%ax
  10083e:	66 90                	xchg   %ax,%ax
  100840:	66 90                	xchg   %ax,%ax
  100842:	66 90                	xchg   %ax,%ax
  100844:	66 90                	xchg   %ax,%ax
  100846:	66 90                	xchg   %ax,%ax
  100848:	66 90                	xchg   %ax,%ax
  10084a:	66 90                	xchg   %ax,%ax
  10084c:	66 90                	xchg   %ax,%ax
  10084e:	66 90                	xchg   %ax,%ax
  100850:	66 90                	xchg   %ax,%ax
  100852:	66 90                	xchg   %ax,%ax
  100854:	66 90                	xchg   %ax,%ax
  100856:	66 90                	xchg   %ax,%ax
  100858:	66 90                	xchg   %ax,%ax
  10085a:	66 90                	xchg   %ax,%ax
  10085c:	66 90                	xchg   %ax,%ax
  10085e:	66 90                	xchg   %ax,%ax
  100860:	66 90                	xchg   %ax,%ax
  100862:	66 90                	xchg   %ax,%ax
  100864:	66 90                	xchg   %ax,%ax
  100866:	66 90                	xchg   %ax,%ax
  100868:	66 90                	xchg   %ax,%ax
  10086a:	66 90                	xchg   %ax,%ax
  10086c:	66 90                	xchg   %ax,%ax
  10086e:	66 90                	xchg   %ax,%ax
  100870:	66 90                	xchg   %ax,%ax
  100872:	66 90                	xchg   %ax,%ax
  100874:	66 90                	xchg   %ax,%ax
  100876:	66 90                	xchg   %ax,%ax
  100878:	66 90                	xchg   %ax,%ax
  10087a:	66 90                	xchg   %ax,%ax
  10087c:	66 90                	xchg   %ax,%ax
  10087e:	66 90                	xchg   %ax,%ax
  100880:	66 90                	xchg   %ax,%ax
  100882:	66 90                	xchg   %ax,%ax
  100884:	66 90                	xchg   %ax,%ax
  100886:	66 90                	xchg   %ax,%ax
  100888:	66 90                	xchg   %ax,%ax
  10088a:	66 90                	xchg   %ax,%ax
  10088c:	66 90                	xchg   %ax,%ax
  10088e:	66 90                	xchg   %ax,%ax
  100890:	66 90                	xchg   %ax,%ax
  100892:	66 90                	xchg   %ax,%ax
  100894:	66 90                	xchg   %ax,%ax
  100896:	66 90                	xchg   %ax,%ax
  100898:	66 90                	xchg   %ax,%ax
  10089a:	66 90                	xchg   %ax,%ax
  10089c:	66 90                	xchg   %ax,%ax
  10089e:	66 90                	xchg   %ax,%ax
  1008a0:	66 90                	xchg   %ax,%ax
  1008a2:	66 90                	xchg   %ax,%ax
  1008a4:	66 90                	xchg   %ax,%ax
  1008a6:	66 90                	xchg   %ax,%ax
  1008a8:	66 90                	xchg   %ax,%ax
  1008aa:	66 90                	xchg   %ax,%ax
  1008ac:	66 90                	xchg   %ax,%ax
  1008ae:	66 90                	xchg   %ax,%ax
  1008b0:	66 90                	xchg   %ax,%ax
  1008b2:	66 90                	xchg   %ax,%ax
  1008b4:	66 90                	xchg   %ax,%ax
  1008b6:	66 90                	xchg   %ax,%ax
  1008b8:	66 90                	xchg   %ax,%ax
  1008ba:	66 90                	xchg   %ax,%ax
  1008bc:	66 90                	xchg   %ax,%ax
  1008be:	66 90                	xchg   %ax,%ax
  1008c0:	66 90                	xchg   %ax,%ax
  1008c2:	66 90                	xchg   %ax,%ax
  1008c4:	66 90                	xchg   %ax,%ax
  1008c6:	66 90                	xchg   %ax,%ax
  1008c8:	66 90                	xchg   %ax,%ax
  1008ca:	66 90                	xchg   %ax,%ax
  1008cc:	66 90                	xchg   %ax,%ax
  1008ce:	66 90                	xchg   %ax,%ax
  1008d0:	66 90                	xchg   %ax,%ax
  1008d2:	66 90                	xchg   %ax,%ax
  1008d4:	66 90                	xchg   %ax,%ax
  1008d6:	66 90                	xchg   %ax,%ax
  1008d8:	66 90                	xchg   %ax,%ax
  1008da:	66 90                	xchg   %ax,%ax
  1008dc:	66 90                	xchg   %ax,%ax
  1008de:	66 90                	xchg   %ax,%ax
  1008e0:	66 90                	xchg   %ax,%ax
  1008e2:	66 90                	xchg   %ax,%ax
  1008e4:	66 90                	xchg   %ax,%ax
  1008e6:	66 90                	xchg   %ax,%ax
  1008e8:	66 90                	xchg   %ax,%ax
  1008ea:	66 90                	xchg   %ax,%ax
  1008ec:	66 90                	xchg   %ax,%ax
  1008ee:	66 90                	xchg   %ax,%ax
  1008f0:	66 90                	xchg   %ax,%ax
  1008f2:	66 90                	xchg   %ax,%ax
  1008f4:	66 90                	xchg   %ax,%ax
  1008f6:	66 90                	xchg   %ax,%ax
  1008f8:	66 90                	xchg   %ax,%ax
  1008fa:	66 90                	xchg   %ax,%ax
  1008fc:	66 90                	xchg   %ax,%ax
  1008fe:	66 90                	xchg   %ax,%ax
  100900:	66 90                	xchg   %ax,%ax
  100902:	66 90                	xchg   %ax,%ax
  100904:	66 90                	xchg   %ax,%ax
  100906:	66 90                	xchg   %ax,%ax
  100908:	66 90                	xchg   %ax,%ax
  10090a:	66 90                	xchg   %ax,%ax
  10090c:	66 90                	xchg   %ax,%ax
  10090e:	66 90                	xchg   %ax,%ax
  100910:	66 90                	xchg   %ax,%ax
  100912:	66 90                	xchg   %ax,%ax
  100914:	66 90                	xchg   %ax,%ax
  100916:	66 90                	xchg   %ax,%ax
  100918:	66 90                	xchg   %ax,%ax
  10091a:	66 90                	xchg   %ax,%ax
  10091c:	66 90                	xchg   %ax,%ax
  10091e:	66 90                	xchg   %ax,%ax
  100920:	66 90                	xchg   %ax,%ax
  100922:	66 90                	xchg   %ax,%ax
  100924:	66 90                	xchg   %ax,%ax
  100926:	66 90                	xchg   %ax,%ax
  100928:	66 90                	xchg   %ax,%ax
  10092a:	66 90                	xchg   %ax,%ax
  10092c:	66 90                	xchg   %ax,%ax
  10092e:	66 90                	xchg   %ax,%ax
  100930:	66 90                	xchg   %ax,%ax
  100932:	66 90                	xchg   %ax,%ax
  100934:	66 90                	xchg   %ax,%ax
  100936:	66 90                	xchg   %ax,%ax
  100938:	66 90                	xchg   %ax,%ax
  10093a:	66 90                	xchg   %ax,%ax
  10093c:	66 90                	xchg   %ax,%ax
  10093e:	66 90                	xchg   %ax,%ax
  100940:	66 90                	xchg   %ax,%ax
  100942:	66 90                	xchg   %ax,%ax
  100944:	66 90                	xchg   %ax,%ax
  100946:	66 90                	xchg   %ax,%ax
  100948:	66 90                	xchg   %ax,%ax
  10094a:	66 90                	xchg   %ax,%ax
  10094c:	66 90                	xchg   %ax,%ax
  10094e:	66 90                	xchg   %ax,%ax
  100950:	66 90                	xchg   %ax,%ax
  100952:	66 90                	xchg   %ax,%ax
  100954:	66 90                	xchg   %ax,%ax
  100956:	66 90                	xchg   %ax,%ax
  100958:	66 90                	xchg   %ax,%ax
  10095a:	66 90                	xchg   %ax,%ax
  10095c:	66 90                	xchg   %ax,%ax
  10095e:	66 90                	xchg   %ax,%ax
  100960:	66 90                	xchg   %ax,%ax
  100962:	66 90                	xchg   %ax,%ax
  100964:	66 90                	xchg   %ax,%ax
  100966:	66 90                	xchg   %ax,%ax
  100968:	66 90                	xchg   %ax,%ax
  10096a:	66 90                	xchg   %ax,%ax
  10096c:	66 90                	xchg   %ax,%ax
  10096e:	66 90                	xchg   %ax,%ax
  100970:	66 90                	xchg   %ax,%ax
  100972:	66 90                	xchg   %ax,%ax
  100974:	66 90                	xchg   %ax,%ax
  100976:	66 90                	xchg   %ax,%ax
  100978:	66 90                	xchg   %ax,%ax
  10097a:	66 90                	xchg   %ax,%ax
  10097c:	66 90                	xchg   %ax,%ax
  10097e:	66 90                	xchg   %ax,%ax
  100980:	66 90                	xchg   %ax,%ax
  100982:	66 90                	xchg   %ax,%ax
  100984:	66 90                	xchg   %ax,%ax
  100986:	66 90                	xchg   %ax,%ax
  100988:	66 90                	xchg   %ax,%ax
  10098a:	66 90                	xchg   %ax,%ax
  10098c:	66 90                	xchg   %ax,%ax
  10098e:	66 90                	xchg   %ax,%ax
  100990:	66 90                	xchg   %ax,%ax
  100992:	66 90                	xchg   %ax,%ax
  100994:	66 90                	xchg   %ax,%ax
  100996:	66 90                	xchg   %ax,%ax
  100998:	66 90                	xchg   %ax,%ax
  10099a:	66 90                	xchg   %ax,%ax
  10099c:	66 90                	xchg   %ax,%ax
  10099e:	66 90                	xchg   %ax,%ax
  1009a0:	66 90                	xchg   %ax,%ax
  1009a2:	66 90                	xchg   %ax,%ax
  1009a4:	66 90                	xchg   %ax,%ax
  1009a6:	66 90                	xchg   %ax,%ax
  1009a8:	66 90                	xchg   %ax,%ax
  1009aa:	66 90                	xchg   %ax,%ax
  1009ac:	66 90                	xchg   %ax,%ax
  1009ae:	66 90                	xchg   %ax,%ax
  1009b0:	66 90                	xchg   %ax,%ax
  1009b2:	66 90                	xchg   %ax,%ax
  1009b4:	66 90                	xchg   %ax,%ax
  1009b6:	66 90                	xchg   %ax,%ax
  1009b8:	66 90                	xchg   %ax,%ax
  1009ba:	66 90                	xchg   %ax,%ax
  1009bc:	66 90                	xchg   %ax,%ax
  1009be:	66 90                	xchg   %ax,%ax
  1009c0:	66 90                	xchg   %ax,%ax
  1009c2:	66 90                	xchg   %ax,%ax
  1009c4:	66 90                	xchg   %ax,%ax
  1009c6:	66 90                	xchg   %ax,%ax
  1009c8:	66 90                	xchg   %ax,%ax
  1009ca:	66 90                	xchg   %ax,%ax
  1009cc:	66 90                	xchg   %ax,%ax
  1009ce:	66 90                	xchg   %ax,%ax
  1009d0:	66 90                	xchg   %ax,%ax
  1009d2:	66 90                	xchg   %ax,%ax
  1009d4:	66 90                	xchg   %ax,%ax
  1009d6:	66 90                	xchg   %ax,%ax
  1009d8:	66 90                	xchg   %ax,%ax
  1009da:	66 90                	xchg   %ax,%ax
  1009dc:	66 90                	xchg   %ax,%ax
  1009de:	66 90                	xchg   %ax,%ax
  1009e0:	66 90                	xchg   %ax,%ax
  1009e2:	66 90                	xchg   %ax,%ax
  1009e4:	66 90                	xchg   %ax,%ax
  1009e6:	66 90                	xchg   %ax,%ax
  1009e8:	66 90                	xchg   %ax,%ax
  1009ea:	66 90                	xchg   %ax,%ax
  1009ec:	66 90                	xchg   %ax,%ax
  1009ee:	66 90                	xchg   %ax,%ax
  1009f0:	66 90                	xchg   %ax,%ax
  1009f2:	66 90                	xchg   %ax,%ax
  1009f4:	66 90                	xchg   %ax,%ax
  1009f6:	66 90                	xchg   %ax,%ax
  1009f8:	66 90                	xchg   %ax,%ax
  1009fa:	66 90                	xchg   %ax,%ax
  1009fc:	66 90                	xchg   %ax,%ax
  1009fe:	66 90                	xchg   %ax,%ax
  100a00:	66 90                	xchg   %ax,%ax
  100a02:	66 90                	xchg   %ax,%ax
  100a04:	66 90                	xchg   %ax,%ax
  100a06:	66 90                	xchg   %ax,%ax
  100a08:	66 90                	xchg   %ax,%ax
  100a0a:	66 90                	xchg   %ax,%ax
  100a0c:	66 90                	xchg   %ax,%ax
  100a0e:	66 90                	xchg   %ax,%ax
  100a10:	66 90                	xchg   %ax,%ax
  100a12:	66 90                	xchg   %ax,%ax
  100a14:	66 90                	xchg   %ax,%ax
  100a16:	66 90                	xchg   %ax,%ax
  100a18:	66 90                	xchg   %ax,%ax
  100a1a:	66 90                	xchg   %ax,%ax
  100a1c:	66 90                	xchg   %ax,%ax
  100a1e:	66 90                	xchg   %ax,%ax
  100a20:	66 90                	xchg   %ax,%ax
  100a22:	66 90                	xchg   %ax,%ax
  100a24:	66 90                	xchg   %ax,%ax
  100a26:	66 90                	xchg   %ax,%ax
  100a28:	66 90                	xchg   %ax,%ax
  100a2a:	66 90                	xchg   %ax,%ax
  100a2c:	66 90                	xchg   %ax,%ax
  100a2e:	66 90                	xchg   %ax,%ax
  100a30:	66 90                	xchg   %ax,%ax
  100a32:	66 90                	xchg   %ax,%ax
  100a34:	66 90                	xchg   %ax,%ax
  100a36:	66 90                	xchg   %ax,%ax
  100a38:	66 90                	xchg   %ax,%ax
  100a3a:	66 90                	xchg   %ax,%ax
  100a3c:	66 90                	xchg   %ax,%ax
  100a3e:	66 90                	xchg   %ax,%ax
  100a40:	66 90                	xchg   %ax,%ax
  100a42:	66 90                	xchg   %ax,%ax
  100a44:	66 90                	xchg   %ax,%ax
  100a46:	66 90                	xchg   %ax,%ax
  100a48:	66 90                	xchg   %ax,%ax
  100a4a:	66 90                	xchg   %ax,%ax
  100a4c:	66 90                	xchg   %ax,%ax
  100a4e:	66 90                	xchg   %ax,%ax
  100a50:	66 90                	xchg   %ax,%ax
  100a52:	66 90                	xchg   %ax,%ax
  100a54:	66 90                	xchg   %ax,%ax
  100a56:	66 90                	xchg   %ax,%ax
  100a58:	66 90                	xchg   %ax,%ax
  100a5a:	66 90                	xchg   %ax,%ax
  100a5c:	66 90                	xchg   %ax,%ax
  100a5e:	66 90                	xchg   %ax,%ax
  100a60:	66 90                	xchg   %ax,%ax
  100a62:	66 90                	xchg   %ax,%ax
  100a64:	66 90                	xchg   %ax,%ax
  100a66:	66 90                	xchg   %ax,%ax
  100a68:	66 90                	xchg   %ax,%ax
  100a6a:	66 90                	xchg   %ax,%ax
  100a6c:	66 90                	xchg   %ax,%ax
  100a6e:	66 90                	xchg   %ax,%ax
  100a70:	66 90                	xchg   %ax,%ax
  100a72:	66 90                	xchg   %ax,%ax
  100a74:	66 90                	xchg   %ax,%ax
  100a76:	66 90                	xchg   %ax,%ax
  100a78:	66 90                	xchg   %ax,%ax
  100a7a:	66 90                	xchg   %ax,%ax
  100a7c:	66 90                	xchg   %ax,%ax
  100a7e:	66 90                	xchg   %ax,%ax
  100a80:	66 90                	xchg   %ax,%ax
  100a82:	66 90                	xchg   %ax,%ax
  100a84:	66 90                	xchg   %ax,%ax
  100a86:	66 90                	xchg   %ax,%ax
  100a88:	66 90                	xchg   %ax,%ax
  100a8a:	66 90                	xchg   %ax,%ax
  100a8c:	66 90                	xchg   %ax,%ax
  100a8e:	66 90                	xchg   %ax,%ax
  100a90:	66 90                	xchg   %ax,%ax
  100a92:	66 90                	xchg   %ax,%ax
  100a94:	66 90                	xchg   %ax,%ax
  100a96:	66 90                	xchg   %ax,%ax
  100a98:	66 90                	xchg   %ax,%ax
  100a9a:	66 90                	xchg   %ax,%ax
  100a9c:	66 90                	xchg   %ax,%ax
  100a9e:	66 90                	xchg   %ax,%ax
  100aa0:	66 90                	xchg   %ax,%ax
  100aa2:	66 90                	xchg   %ax,%ax
  100aa4:	66 90                	xchg   %ax,%ax
  100aa6:	66 90                	xchg   %ax,%ax
  100aa8:	66 90                	xchg   %ax,%ax
  100aaa:	66 90                	xchg   %ax,%ax
  100aac:	66 90                	xchg   %ax,%ax
  100aae:	66 90                	xchg   %ax,%ax
  100ab0:	66 90                	xchg   %ax,%ax
  100ab2:	66 90                	xchg   %ax,%ax
  100ab4:	66 90                	xchg   %ax,%ax
  100ab6:	66 90                	xchg   %ax,%ax
  100ab8:	66 90                	xchg   %ax,%ax
  100aba:	66 90                	xchg   %ax,%ax
  100abc:	66 90                	xchg   %ax,%ax
  100abe:	66 90                	xchg   %ax,%ax
  100ac0:	66 90                	xchg   %ax,%ax
  100ac2:	66 90                	xchg   %ax,%ax
  100ac4:	66 90                	xchg   %ax,%ax
  100ac6:	66 90                	xchg   %ax,%ax
  100ac8:	66 90                	xchg   %ax,%ax
  100aca:	66 90                	xchg   %ax,%ax
  100acc:	66 90                	xchg   %ax,%ax
  100ace:	66 90                	xchg   %ax,%ax
  100ad0:	66 90                	xchg   %ax,%ax
  100ad2:	66 90                	xchg   %ax,%ax
  100ad4:	66 90                	xchg   %ax,%ax
  100ad6:	66 90                	xchg   %ax,%ax
  100ad8:	66 90                	xchg   %ax,%ax
  100ada:	66 90                	xchg   %ax,%ax
  100adc:	66 90                	xchg   %ax,%ax
  100ade:	66 90                	xchg   %ax,%ax
  100ae0:	66 90                	xchg   %ax,%ax
  100ae2:	66 90                	xchg   %ax,%ax
  100ae4:	66 90                	xchg   %ax,%ax
  100ae6:	66 90                	xchg   %ax,%ax
  100ae8:	66 90                	xchg   %ax,%ax
  100aea:	66 90                	xchg   %ax,%ax
  100aec:	66 90                	xchg   %ax,%ax
  100aee:	66 90                	xchg   %ax,%ax
  100af0:	66 90                	xchg   %ax,%ax
  100af2:	66 90                	xchg   %ax,%ax
  100af4:	66 90                	xchg   %ax,%ax
  100af6:	66 90                	xchg   %ax,%ax
  100af8:	66 90                	xchg   %ax,%ax
  100afa:	66 90                	xchg   %ax,%ax
  100afc:	66 90                	xchg   %ax,%ax
  100afe:	66 90                	xchg   %ax,%ax
  100b00:	66 90                	xchg   %ax,%ax
  100b02:	66 90                	xchg   %ax,%ax
  100b04:	66 90                	xchg   %ax,%ax
  100b06:	66 90                	xchg   %ax,%ax
  100b08:	66 90                	xchg   %ax,%ax
  100b0a:	66 90                	xchg   %ax,%ax
  100b0c:	66 90                	xchg   %ax,%ax
  100b0e:	66 90                	xchg   %ax,%ax
  100b10:	66 90                	xchg   %ax,%ax
  100b12:	66 90                	xchg   %ax,%ax
  100b14:	66 90                	xchg   %ax,%ax
  100b16:	66 90                	xchg   %ax,%ax
  100b18:	66 90                	xchg   %ax,%ax
  100b1a:	66 90                	xchg   %ax,%ax
  100b1c:	66 90                	xchg   %ax,%ax
  100b1e:	66 90                	xchg   %ax,%ax
  100b20:	66 90                	xchg   %ax,%ax
  100b22:	66 90                	xchg   %ax,%ax
  100b24:	66 90                	xchg   %ax,%ax
  100b26:	66 90                	xchg   %ax,%ax
  100b28:	66 90                	xchg   %ax,%ax
  100b2a:	66 90                	xchg   %ax,%ax
  100b2c:	66 90                	xchg   %ax,%ax
  100b2e:	66 90                	xchg   %ax,%ax
  100b30:	66 90                	xchg   %ax,%ax
  100b32:	66 90                	xchg   %ax,%ax
  100b34:	66 90                	xchg   %ax,%ax
  100b36:	66 90                	xchg   %ax,%ax
  100b38:	66 90                	xchg   %ax,%ax
  100b3a:	66 90                	xchg   %ax,%ax
  100b3c:	66 90                	xchg   %ax,%ax
  100b3e:	66 90                	xchg   %ax,%ax
  100b40:	66 90                	xchg   %ax,%ax
  100b42:	66 90                	xchg   %ax,%ax
  100b44:	66 90                	xchg   %ax,%ax
  100b46:	66 90                	xchg   %ax,%ax
  100b48:	66 90                	xchg   %ax,%ax
  100b4a:	66 90                	xchg   %ax,%ax
  100b4c:	66 90                	xchg   %ax,%ax
  100b4e:	66 90                	xchg   %ax,%ax
  100b50:	66 90                	xchg   %ax,%ax
  100b52:	66 90                	xchg   %ax,%ax
  100b54:	66 90                	xchg   %ax,%ax
  100b56:	66 90                	xchg   %ax,%ax
  100b58:	66 90                	xchg   %ax,%ax
  100b5a:	66 90                	xchg   %ax,%ax
  100b5c:	66 90                	xchg   %ax,%ax
  100b5e:	66 90                	xchg   %ax,%ax
  100b60:	66 90                	xchg   %ax,%ax
  100b62:	66 90                	xchg   %ax,%ax
  100b64:	66 90                	xchg   %ax,%ax
  100b66:	66 90                	xchg   %ax,%ax
  100b68:	66 90                	xchg   %ax,%ax
  100b6a:	66 90                	xchg   %ax,%ax
  100b6c:	66 90                	xchg   %ax,%ax
  100b6e:	66 90                	xchg   %ax,%ax
  100b70:	66 90                	xchg   %ax,%ax
  100b72:	66 90                	xchg   %ax,%ax
  100b74:	66 90                	xchg   %ax,%ax
  100b76:	66 90                	xchg   %ax,%ax
  100b78:	66 90                	xchg   %ax,%ax
  100b7a:	66 90                	xchg   %ax,%ax
  100b7c:	66 90                	xchg   %ax,%ax
  100b7e:	66 90                	xchg   %ax,%ax
  100b80:	66 90                	xchg   %ax,%ax
  100b82:	66 90                	xchg   %ax,%ax
  100b84:	66 90                	xchg   %ax,%ax
  100b86:	66 90                	xchg   %ax,%ax
  100b88:	66 90                	xchg   %ax,%ax
  100b8a:	66 90                	xchg   %ax,%ax
  100b8c:	66 90                	xchg   %ax,%ax
  100b8e:	66 90                	xchg   %ax,%ax
  100b90:	66 90                	xchg   %ax,%ax
  100b92:	66 90                	xchg   %ax,%ax
  100b94:	66 90                	xchg   %ax,%ax
  100b96:	66 90                	xchg   %ax,%ax
  100b98:	66 90                	xchg   %ax,%ax
  100b9a:	66 90                	xchg   %ax,%ax
  100b9c:	66 90                	xchg   %ax,%ax
  100b9e:	66 90                	xchg   %ax,%ax
  100ba0:	66 90                	xchg   %ax,%ax
  100ba2:	66 90                	xchg   %ax,%ax
  100ba4:	66 90                	xchg   %ax,%ax
  100ba6:	66 90                	xchg   %ax,%ax
  100ba8:	66 90                	xchg   %ax,%ax
  100baa:	66 90                	xchg   %ax,%ax
  100bac:	66 90                	xchg   %ax,%ax
  100bae:	66 90                	xchg   %ax,%ax
  100bb0:	66 90                	xchg   %ax,%ax
  100bb2:	66 90                	xchg   %ax,%ax
  100bb4:	66 90                	xchg   %ax,%ax
  100bb6:	66 90                	xchg   %ax,%ax
  100bb8:	66 90                	xchg   %ax,%ax
  100bba:	66 90                	xchg   %ax,%ax
  100bbc:	66 90                	xchg   %ax,%ax
  100bbe:	66 90                	xchg   %ax,%ax
  100bc0:	66 90                	xchg   %ax,%ax
  100bc2:	66 90                	xchg   %ax,%ax
  100bc4:	66 90                	xchg   %ax,%ax
  100bc6:	66 90                	xchg   %ax,%ax
  100bc8:	66 90                	xchg   %ax,%ax
  100bca:	66 90                	xchg   %ax,%ax
  100bcc:	66 90                	xchg   %ax,%ax
  100bce:	66 90                	xchg   %ax,%ax
  100bd0:	66 90                	xchg   %ax,%ax
  100bd2:	66 90                	xchg   %ax,%ax
  100bd4:	66 90                	xchg   %ax,%ax
  100bd6:	66 90                	xchg   %ax,%ax
  100bd8:	66 90                	xchg   %ax,%ax
  100bda:	66 90                	xchg   %ax,%ax
  100bdc:	66 90                	xchg   %ax,%ax
  100bde:	66 90                	xchg   %ax,%ax
  100be0:	66 90                	xchg   %ax,%ax
  100be2:	66 90                	xchg   %ax,%ax
  100be4:	66 90                	xchg   %ax,%ax
  100be6:	66 90                	xchg   %ax,%ax
  100be8:	66 90                	xchg   %ax,%ax
  100bea:	66 90                	xchg   %ax,%ax
  100bec:	66 90                	xchg   %ax,%ax
  100bee:	66 90                	xchg   %ax,%ax
  100bf0:	66 90                	xchg   %ax,%ax
  100bf2:	66 90                	xchg   %ax,%ax
  100bf4:	66 90                	xchg   %ax,%ax
  100bf6:	66 90                	xchg   %ax,%ax
  100bf8:	66 90                	xchg   %ax,%ax
  100bfa:	66 90                	xchg   %ax,%ax
  100bfc:	66 90                	xchg   %ax,%ax
  100bfe:	66 90                	xchg   %ax,%ax
  100c00:	66 90                	xchg   %ax,%ax
  100c02:	66 90                	xchg   %ax,%ax
  100c04:	66 90                	xchg   %ax,%ax
  100c06:	66 90                	xchg   %ax,%ax
  100c08:	66 90                	xchg   %ax,%ax
  100c0a:	66 90                	xchg   %ax,%ax
  100c0c:	66 90                	xchg   %ax,%ax
  100c0e:	66 90                	xchg   %ax,%ax
  100c10:	66 90                	xchg   %ax,%ax
  100c12:	66 90                	xchg   %ax,%ax
  100c14:	66 90                	xchg   %ax,%ax
  100c16:	66 90                	xchg   %ax,%ax
  100c18:	66 90                	xchg   %ax,%ax
  100c1a:	66 90                	xchg   %ax,%ax
  100c1c:	66 90                	xchg   %ax,%ax
  100c1e:	66 90                	xchg   %ax,%ax
  100c20:	66 90                	xchg   %ax,%ax
  100c22:	66 90                	xchg   %ax,%ax
  100c24:	66 90                	xchg   %ax,%ax
  100c26:	66 90                	xchg   %ax,%ax
  100c28:	66 90                	xchg   %ax,%ax
  100c2a:	66 90                	xchg   %ax,%ax
  100c2c:	66 90                	xchg   %ax,%ax
  100c2e:	66 90                	xchg   %ax,%ax
  100c30:	66 90                	xchg   %ax,%ax
  100c32:	66 90                	xchg   %ax,%ax
  100c34:	66 90                	xchg   %ax,%ax
  100c36:	66 90                	xchg   %ax,%ax
  100c38:	66 90                	xchg   %ax,%ax
  100c3a:	66 90                	xchg   %ax,%ax
  100c3c:	66 90                	xchg   %ax,%ax
  100c3e:	66 90                	xchg   %ax,%ax
  100c40:	66 90                	xchg   %ax,%ax
  100c42:	66 90                	xchg   %ax,%ax
  100c44:	66 90                	xchg   %ax,%ax
  100c46:	66 90                	xchg   %ax,%ax
  100c48:	66 90                	xchg   %ax,%ax
  100c4a:	66 90                	xchg   %ax,%ax
  100c4c:	66 90                	xchg   %ax,%ax
  100c4e:	66 90                	xchg   %ax,%ax
  100c50:	66 90                	xchg   %ax,%ax
  100c52:	66 90                	xchg   %ax,%ax
  100c54:	66 90                	xchg   %ax,%ax
  100c56:	66 90                	xchg   %ax,%ax
  100c58:	66 90                	xchg   %ax,%ax
  100c5a:	66 90                	xchg   %ax,%ax
  100c5c:	66 90                	xchg   %ax,%ax
  100c5e:	66 90                	xchg   %ax,%ax
  100c60:	66 90                	xchg   %ax,%ax
  100c62:	66 90                	xchg   %ax,%ax
  100c64:	66 90                	xchg   %ax,%ax
  100c66:	66 90                	xchg   %ax,%ax
  100c68:	66 90                	xchg   %ax,%ax
  100c6a:	66 90                	xchg   %ax,%ax
  100c6c:	66 90                	xchg   %ax,%ax
  100c6e:	66 90                	xchg   %ax,%ax
  100c70:	66 90                	xchg   %ax,%ax
  100c72:	66 90                	xchg   %ax,%ax
  100c74:	66 90                	xchg   %ax,%ax
  100c76:	66 90                	xchg   %ax,%ax
  100c78:	66 90                	xchg   %ax,%ax
  100c7a:	66 90                	xchg   %ax,%ax
  100c7c:	66 90                	xchg   %ax,%ax
  100c7e:	66 90                	xchg   %ax,%ax
  100c80:	66 90                	xchg   %ax,%ax
  100c82:	66 90                	xchg   %ax,%ax
  100c84:	66 90                	xchg   %ax,%ax
  100c86:	66 90                	xchg   %ax,%ax
  100c88:	66 90                	xchg   %ax,%ax
  100c8a:	66 90                	xchg   %ax,%ax
  100c8c:	66 90                	xchg   %ax,%ax
  100c8e:	66 90                	xchg   %ax,%ax
  100c90:	66 90                	xchg   %ax,%ax
  100c92:	66 90                	xchg   %ax,%ax
  100c94:	66 90                	xchg   %ax,%ax
  100c96:	66 90                	xchg   %ax,%ax
  100c98:	66 90                	xchg   %ax,%ax
  100c9a:	66 90                	xchg   %ax,%ax
  100c9c:	66 90                	xchg   %ax,%ax
  100c9e:	66 90                	xchg   %ax,%ax
  100ca0:	66 90                	xchg   %ax,%ax
  100ca2:	66 90                	xchg   %ax,%ax
  100ca4:	66 90                	xchg   %ax,%ax
  100ca6:	66 90                	xchg   %ax,%ax
  100ca8:	66 90                	xchg   %ax,%ax
  100caa:	66 90                	xchg   %ax,%ax
  100cac:	66 90                	xchg   %ax,%ax
  100cae:	66 90                	xchg   %ax,%ax
  100cb0:	66 90                	xchg   %ax,%ax
  100cb2:	66 90                	xchg   %ax,%ax
  100cb4:	66 90                	xchg   %ax,%ax
  100cb6:	66 90                	xchg   %ax,%ax
  100cb8:	66 90                	xchg   %ax,%ax
  100cba:	66 90                	xchg   %ax,%ax
  100cbc:	66 90                	xchg   %ax,%ax
  100cbe:	66 90                	xchg   %ax,%ax
  100cc0:	66 90                	xchg   %ax,%ax
  100cc2:	66 90                	xchg   %ax,%ax
  100cc4:	66 90                	xchg   %ax,%ax
  100cc6:	66 90                	xchg   %ax,%ax
  100cc8:	66 90                	xchg   %ax,%ax
  100cca:	66 90                	xchg   %ax,%ax
  100ccc:	66 90                	xchg   %ax,%ax
  100cce:	66 90                	xchg   %ax,%ax
  100cd0:	66 90                	xchg   %ax,%ax
  100cd2:	66 90                	xchg   %ax,%ax
  100cd4:	66 90                	xchg   %ax,%ax
  100cd6:	66 90                	xchg   %ax,%ax
  100cd8:	66 90                	xchg   %ax,%ax
  100cda:	66 90                	xchg   %ax,%ax
  100cdc:	66 90                	xchg   %ax,%ax
  100cde:	66 90                	xchg   %ax,%ax
  100ce0:	66 90                	xchg   %ax,%ax
  100ce2:	66 90                	xchg   %ax,%ax
  100ce4:	66 90                	xchg   %ax,%ax
  100ce6:	66 90                	xchg   %ax,%ax
  100ce8:	66 90                	xchg   %ax,%ax
  100cea:	66 90                	xchg   %ax,%ax
  100cec:	66 90                	xchg   %ax,%ax
  100cee:	66 90                	xchg   %ax,%ax
  100cf0:	66 90                	xchg   %ax,%ax
  100cf2:	66 90                	xchg   %ax,%ax
  100cf4:	66 90                	xchg   %ax,%ax
  100cf6:	66 90                	xchg   %ax,%ax
  100cf8:	66 90                	xchg   %ax,%ax
  100cfa:	66 90                	xchg   %ax,%ax
  100cfc:	66 90                	xchg   %ax,%ax
  100cfe:	66 90                	xchg   %ax,%ax
  100d00:	66 90                	xchg   %ax,%ax
  100d02:	66 90                	xchg   %ax,%ax
  100d04:	66 90                	xchg   %ax,%ax
  100d06:	66 90                	xchg   %ax,%ax
  100d08:	66 90                	xchg   %ax,%ax
  100d0a:	66 90                	xchg   %ax,%ax
  100d0c:	66 90                	xchg   %ax,%ax
  100d0e:	66 90                	xchg   %ax,%ax
  100d10:	66 90                	xchg   %ax,%ax
  100d12:	66 90                	xchg   %ax,%ax
  100d14:	66 90                	xchg   %ax,%ax
  100d16:	66 90                	xchg   %ax,%ax
  100d18:	66 90                	xchg   %ax,%ax
  100d1a:	66 90                	xchg   %ax,%ax
  100d1c:	66 90                	xchg   %ax,%ax
  100d1e:	66 90                	xchg   %ax,%ax
  100d20:	66 90                	xchg   %ax,%ax
  100d22:	66 90                	xchg   %ax,%ax
  100d24:	66 90                	xchg   %ax,%ax
  100d26:	66 90                	xchg   %ax,%ax
  100d28:	66 90                	xchg   %ax,%ax
  100d2a:	66 90                	xchg   %ax,%ax
  100d2c:	66 90                	xchg   %ax,%ax
  100d2e:	66 90                	xchg   %ax,%ax
  100d30:	66 90                	xchg   %ax,%ax
  100d32:	66 90                	xchg   %ax,%ax
  100d34:	66 90                	xchg   %ax,%ax
  100d36:	66 90                	xchg   %ax,%ax
  100d38:	66 90                	xchg   %ax,%ax
  100d3a:	66 90                	xchg   %ax,%ax
  100d3c:	66 90                	xchg   %ax,%ax
  100d3e:	66 90                	xchg   %ax,%ax
  100d40:	66 90                	xchg   %ax,%ax
  100d42:	66 90                	xchg   %ax,%ax
  100d44:	66 90                	xchg   %ax,%ax
  100d46:	66 90                	xchg   %ax,%ax
  100d48:	66 90                	xchg   %ax,%ax
  100d4a:	66 90                	xchg   %ax,%ax
  100d4c:	66 90                	xchg   %ax,%ax
  100d4e:	66 90                	xchg   %ax,%ax
  100d50:	66 90                	xchg   %ax,%ax
  100d52:	66 90                	xchg   %ax,%ax
  100d54:	66 90                	xchg   %ax,%ax
  100d56:	66 90                	xchg   %ax,%ax
  100d58:	66 90                	xchg   %ax,%ax
  100d5a:	66 90                	xchg   %ax,%ax
  100d5c:	66 90                	xchg   %ax,%ax
  100d5e:	66 90                	xchg   %ax,%ax
  100d60:	66 90                	xchg   %ax,%ax
  100d62:	66 90                	xchg   %ax,%ax
  100d64:	66 90                	xchg   %ax,%ax
  100d66:	66 90                	xchg   %ax,%ax
  100d68:	66 90                	xchg   %ax,%ax
  100d6a:	66 90                	xchg   %ax,%ax
  100d6c:	66 90                	xchg   %ax,%ax
  100d6e:	66 90                	xchg   %ax,%ax
  100d70:	66 90                	xchg   %ax,%ax
  100d72:	66 90                	xchg   %ax,%ax
  100d74:	66 90                	xchg   %ax,%ax
  100d76:	66 90                	xchg   %ax,%ax
  100d78:	66 90                	xchg   %ax,%ax
  100d7a:	66 90                	xchg   %ax,%ax
  100d7c:	66 90                	xchg   %ax,%ax
  100d7e:	66 90                	xchg   %ax,%ax
  100d80:	66 90                	xchg   %ax,%ax
  100d82:	66 90                	xchg   %ax,%ax
  100d84:	66 90                	xchg   %ax,%ax
  100d86:	66 90                	xchg   %ax,%ax
  100d88:	66 90                	xchg   %ax,%ax
  100d8a:	66 90                	xchg   %ax,%ax
  100d8c:	66 90                	xchg   %ax,%ax
  100d8e:	66 90                	xchg   %ax,%ax
  100d90:	66 90                	xchg   %ax,%ax
  100d92:	66 90                	xchg   %ax,%ax
  100d94:	66 90                	xchg   %ax,%ax
  100d96:	66 90                	xchg   %ax,%ax
  100d98:	66 90                	xchg   %ax,%ax
  100d9a:	66 90                	xchg   %ax,%ax
  100d9c:	66 90                	xchg   %ax,%ax
  100d9e:	66 90                	xchg   %ax,%ax
  100da0:	66 90                	xchg   %ax,%ax
  100da2:	66 90                	xchg   %ax,%ax
  100da4:	66 90                	xchg   %ax,%ax
  100da6:	66 90                	xchg   %ax,%ax
  100da8:	66 90                	xchg   %ax,%ax
  100daa:	66 90                	xchg   %ax,%ax
  100dac:	66 90                	xchg   %ax,%ax
  100dae:	66 90                	xchg   %ax,%ax
  100db0:	66 90                	xchg   %ax,%ax
  100db2:	66 90                	xchg   %ax,%ax
  100db4:	66 90                	xchg   %ax,%ax
  100db6:	66 90                	xchg   %ax,%ax
  100db8:	66 90                	xchg   %ax,%ax
  100dba:	66 90                	xchg   %ax,%ax
  100dbc:	66 90                	xchg   %ax,%ax
  100dbe:	66 90                	xchg   %ax,%ax
  100dc0:	66 90                	xchg   %ax,%ax
  100dc2:	66 90                	xchg   %ax,%ax
  100dc4:	66 90                	xchg   %ax,%ax
  100dc6:	66 90                	xchg   %ax,%ax
  100dc8:	66 90                	xchg   %ax,%ax
  100dca:	66 90                	xchg   %ax,%ax
  100dcc:	66 90                	xchg   %ax,%ax
  100dce:	66 90                	xchg   %ax,%ax
  100dd0:	66 90                	xchg   %ax,%ax
  100dd2:	66 90                	xchg   %ax,%ax
  100dd4:	66 90                	xchg   %ax,%ax
  100dd6:	66 90                	xchg   %ax,%ax
  100dd8:	66 90                	xchg   %ax,%ax
  100dda:	66 90                	xchg   %ax,%ax
  100ddc:	66 90                	xchg   %ax,%ax
  100dde:	66 90                	xchg   %ax,%ax
  100de0:	66 90                	xchg   %ax,%ax
  100de2:	66 90                	xchg   %ax,%ax
  100de4:	66 90                	xchg   %ax,%ax
  100de6:	66 90                	xchg   %ax,%ax
  100de8:	66 90                	xchg   %ax,%ax
  100dea:	66 90                	xchg   %ax,%ax
  100dec:	66 90                	xchg   %ax,%ax
  100dee:	66 90                	xchg   %ax,%ax
  100df0:	66 90                	xchg   %ax,%ax
  100df2:	66 90                	xchg   %ax,%ax
  100df4:	66 90                	xchg   %ax,%ax
  100df6:	66 90                	xchg   %ax,%ax
  100df8:	66 90                	xchg   %ax,%ax
  100dfa:	66 90                	xchg   %ax,%ax
  100dfc:	66 90                	xchg   %ax,%ax
  100dfe:	66 90                	xchg   %ax,%ax
  100e00:	66 90                	xchg   %ax,%ax
  100e02:	66 90                	xchg   %ax,%ax
  100e04:	66 90                	xchg   %ax,%ax
  100e06:	66 90                	xchg   %ax,%ax
  100e08:	66 90                	xchg   %ax,%ax
  100e0a:	66 90                	xchg   %ax,%ax
  100e0c:	66 90                	xchg   %ax,%ax
  100e0e:	66 90                	xchg   %ax,%ax
  100e10:	66 90                	xchg   %ax,%ax
  100e12:	66 90                	xchg   %ax,%ax
  100e14:	66 90                	xchg   %ax,%ax
  100e16:	66 90                	xchg   %ax,%ax
  100e18:	66 90                	xchg   %ax,%ax
  100e1a:	66 90                	xchg   %ax,%ax
  100e1c:	66 90                	xchg   %ax,%ax
  100e1e:	66 90                	xchg   %ax,%ax
  100e20:	66 90                	xchg   %ax,%ax
  100e22:	66 90                	xchg   %ax,%ax
  100e24:	66 90                	xchg   %ax,%ax
  100e26:	66 90                	xchg   %ax,%ax
  100e28:	66 90                	xchg   %ax,%ax
  100e2a:	66 90                	xchg   %ax,%ax
  100e2c:	66 90                	xchg   %ax,%ax
  100e2e:	66 90                	xchg   %ax,%ax
  100e30:	66 90                	xchg   %ax,%ax
  100e32:	66 90                	xchg   %ax,%ax
  100e34:	66 90                	xchg   %ax,%ax
  100e36:	66 90                	xchg   %ax,%ax
  100e38:	66 90                	xchg   %ax,%ax
  100e3a:	66 90                	xchg   %ax,%ax
  100e3c:	66 90                	xchg   %ax,%ax
  100e3e:	66 90                	xchg   %ax,%ax
  100e40:	66 90                	xchg   %ax,%ax
  100e42:	66 90                	xchg   %ax,%ax
  100e44:	66 90                	xchg   %ax,%ax
  100e46:	66 90                	xchg   %ax,%ax
  100e48:	66 90                	xchg   %ax,%ax
  100e4a:	66 90                	xchg   %ax,%ax
  100e4c:	66 90                	xchg   %ax,%ax
  100e4e:	66 90                	xchg   %ax,%ax
  100e50:	66 90                	xchg   %ax,%ax
  100e52:	66 90                	xchg   %ax,%ax
  100e54:	66 90                	xchg   %ax,%ax
  100e56:	66 90                	xchg   %ax,%ax
  100e58:	66 90                	xchg   %ax,%ax
  100e5a:	66 90                	xchg   %ax,%ax
  100e5c:	66 90                	xchg   %ax,%ax
  100e5e:	66 90                	xchg   %ax,%ax
  100e60:	66 90                	xchg   %ax,%ax
  100e62:	66 90                	xchg   %ax,%ax
  100e64:	66 90                	xchg   %ax,%ax
  100e66:	66 90                	xchg   %ax,%ax
  100e68:	66 90                	xchg   %ax,%ax
  100e6a:	66 90                	xchg   %ax,%ax
  100e6c:	66 90                	xchg   %ax,%ax
  100e6e:	66 90                	xchg   %ax,%ax
  100e70:	66 90                	xchg   %ax,%ax
  100e72:	66 90                	xchg   %ax,%ax
  100e74:	66 90                	xchg   %ax,%ax
  100e76:	66 90                	xchg   %ax,%ax
  100e78:	66 90                	xchg   %ax,%ax
  100e7a:	66 90                	xchg   %ax,%ax
  100e7c:	66 90                	xchg   %ax,%ax
  100e7e:	66 90                	xchg   %ax,%ax
  100e80:	66 90                	xchg   %ax,%ax
  100e82:	66 90                	xchg   %ax,%ax
  100e84:	66 90                	xchg   %ax,%ax
  100e86:	66 90                	xchg   %ax,%ax
  100e88:	66 90                	xchg   %ax,%ax
  100e8a:	66 90                	xchg   %ax,%ax
  100e8c:	66 90                	xchg   %ax,%ax
  100e8e:	66 90                	xchg   %ax,%ax
  100e90:	66 90                	xchg   %ax,%ax
  100e92:	66 90                	xchg   %ax,%ax
  100e94:	66 90                	xchg   %ax,%ax
  100e96:	66 90                	xchg   %ax,%ax
  100e98:	66 90                	xchg   %ax,%ax
  100e9a:	66 90                	xchg   %ax,%ax
  100e9c:	66 90                	xchg   %ax,%ax
  100e9e:	66 90                	xchg   %ax,%ax
  100ea0:	66 90                	xchg   %ax,%ax
  100ea2:	66 90                	xchg   %ax,%ax
  100ea4:	66 90                	xchg   %ax,%ax
  100ea6:	66 90                	xchg   %ax,%ax
  100ea8:	66 90                	xchg   %ax,%ax
  100eaa:	66 90                	xchg   %ax,%ax
  100eac:	66 90                	xchg   %ax,%ax
  100eae:	66 90                	xchg   %ax,%ax
  100eb0:	66 90                	xchg   %ax,%ax
  100eb2:	66 90                	xchg   %ax,%ax
  100eb4:	66 90                	xchg   %ax,%ax
  100eb6:	66 90                	xchg   %ax,%ax
  100eb8:	66 90                	xchg   %ax,%ax
  100eba:	66 90                	xchg   %ax,%ax
  100ebc:	66 90                	xchg   %ax,%ax
  100ebe:	66 90                	xchg   %ax,%ax
  100ec0:	66 90                	xchg   %ax,%ax
  100ec2:	66 90                	xchg   %ax,%ax
  100ec4:	66 90                	xchg   %ax,%ax
  100ec6:	66 90                	xchg   %ax,%ax
  100ec8:	66 90                	xchg   %ax,%ax
  100eca:	66 90                	xchg   %ax,%ax
  100ecc:	66 90                	xchg   %ax,%ax
  100ece:	66 90                	xchg   %ax,%ax
  100ed0:	66 90                	xchg   %ax,%ax
  100ed2:	66 90                	xchg   %ax,%ax
  100ed4:	66 90                	xchg   %ax,%ax
  100ed6:	66 90                	xchg   %ax,%ax
  100ed8:	66 90                	xchg   %ax,%ax
  100eda:	66 90                	xchg   %ax,%ax
  100edc:	66 90                	xchg   %ax,%ax
  100ede:	66 90                	xchg   %ax,%ax
  100ee0:	66 90                	xchg   %ax,%ax
  100ee2:	66 90                	xchg   %ax,%ax
  100ee4:	66 90                	xchg   %ax,%ax
  100ee6:	66 90                	xchg   %ax,%ax
  100ee8:	66 90                	xchg   %ax,%ax
  100eea:	66 90                	xchg   %ax,%ax
  100eec:	66 90                	xchg   %ax,%ax
  100eee:	66 90                	xchg   %ax,%ax
  100ef0:	66 90                	xchg   %ax,%ax
  100ef2:	66 90                	xchg   %ax,%ax
  100ef4:	66 90                	xchg   %ax,%ax
  100ef6:	66 90                	xchg   %ax,%ax
  100ef8:	66 90                	xchg   %ax,%ax
  100efa:	66 90                	xchg   %ax,%ax
  100efc:	66 90                	xchg   %ax,%ax
  100efe:	66 90                	xchg   %ax,%ax
  100f00:	66 90                	xchg   %ax,%ax
  100f02:	66 90                	xchg   %ax,%ax
  100f04:	66 90                	xchg   %ax,%ax
  100f06:	66 90                	xchg   %ax,%ax
  100f08:	66 90                	xchg   %ax,%ax
  100f0a:	66 90                	xchg   %ax,%ax
  100f0c:	66 90                	xchg   %ax,%ax
  100f0e:	66 90                	xchg   %ax,%ax
  100f10:	66 90                	xchg   %ax,%ax
  100f12:	66 90                	xchg   %ax,%ax
  100f14:	66 90                	xchg   %ax,%ax
  100f16:	66 90                	xchg   %ax,%ax
  100f18:	66 90                	xchg   %ax,%ax
  100f1a:	66 90                	xchg   %ax,%ax
  100f1c:	66 90                	xchg   %ax,%ax
  100f1e:	66 90                	xchg   %ax,%ax
  100f20:	66 90                	xchg   %ax,%ax
  100f22:	66 90                	xchg   %ax,%ax
  100f24:	66 90                	xchg   %ax,%ax
  100f26:	66 90                	xchg   %ax,%ax
  100f28:	66 90                	xchg   %ax,%ax
  100f2a:	66 90                	xchg   %ax,%ax
  100f2c:	66 90                	xchg   %ax,%ax
  100f2e:	66 90                	xchg   %ax,%ax
  100f30:	66 90                	xchg   %ax,%ax
  100f32:	66 90                	xchg   %ax,%ax
  100f34:	66 90                	xchg   %ax,%ax
  100f36:	66 90                	xchg   %ax,%ax
  100f38:	66 90                	xchg   %ax,%ax
  100f3a:	66 90                	xchg   %ax,%ax
  100f3c:	66 90                	xchg   %ax,%ax
  100f3e:	66 90                	xchg   %ax,%ax
  100f40:	66 90                	xchg   %ax,%ax
  100f42:	66 90                	xchg   %ax,%ax
  100f44:	66 90                	xchg   %ax,%ax
  100f46:	66 90                	xchg   %ax,%ax
  100f48:	66 90                	xchg   %ax,%ax
  100f4a:	66 90                	xchg   %ax,%ax
  100f4c:	66 90                	xchg   %ax,%ax
  100f4e:	66 90                	xchg   %ax,%ax
  100f50:	66 90                	xchg   %ax,%ax
  100f52:	66 90                	xchg   %ax,%ax
  100f54:	66 90                	xchg   %ax,%ax
  100f56:	66 90                	xchg   %ax,%ax
  100f58:	66 90                	xchg   %ax,%ax
  100f5a:	66 90                	xchg   %ax,%ax
  100f5c:	66 90                	xchg   %ax,%ax
  100f5e:	66 90                	xchg   %ax,%ax
  100f60:	66 90                	xchg   %ax,%ax
  100f62:	66 90                	xchg   %ax,%ax
  100f64:	66 90                	xchg   %ax,%ax
  100f66:	66 90                	xchg   %ax,%ax
  100f68:	66 90                	xchg   %ax,%ax
  100f6a:	66 90                	xchg   %ax,%ax
  100f6c:	66 90                	xchg   %ax,%ax
  100f6e:	66 90                	xchg   %ax,%ax
  100f70:	66 90                	xchg   %ax,%ax
  100f72:	66 90                	xchg   %ax,%ax
  100f74:	66 90                	xchg   %ax,%ax
  100f76:	66 90                	xchg   %ax,%ax
  100f78:	66 90                	xchg   %ax,%ax
  100f7a:	66 90                	xchg   %ax,%ax
  100f7c:	66 90                	xchg   %ax,%ax
  100f7e:	66 90                	xchg   %ax,%ax
  100f80:	66 90                	xchg   %ax,%ax
  100f82:	66 90                	xchg   %ax,%ax
  100f84:	66 90                	xchg   %ax,%ax
  100f86:	66 90                	xchg   %ax,%ax
  100f88:	66 90                	xchg   %ax,%ax
  100f8a:	66 90                	xchg   %ax,%ax
  100f8c:	66 90                	xchg   %ax,%ax
  100f8e:	66 90                	xchg   %ax,%ax
  100f90:	66 90                	xchg   %ax,%ax
  100f92:	66 90                	xchg   %ax,%ax
  100f94:	66 90                	xchg   %ax,%ax
  100f96:	66 90                	xchg   %ax,%ax
  100f98:	66 90                	xchg   %ax,%ax
  100f9a:	66 90                	xchg   %ax,%ax
  100f9c:	66 90                	xchg   %ax,%ax
  100f9e:	66 90                	xchg   %ax,%ax
  100fa0:	66 90                	xchg   %ax,%ax
  100fa2:	66 90                	xchg   %ax,%ax
  100fa4:	66 90                	xchg   %ax,%ax
  100fa6:	66 90                	xchg   %ax,%ax
  100fa8:	66 90                	xchg   %ax,%ax
  100faa:	66 90                	xchg   %ax,%ax
  100fac:	66 90                	xchg   %ax,%ax
  100fae:	66 90                	xchg   %ax,%ax
  100fb0:	66 90                	xchg   %ax,%ax
  100fb2:	66 90                	xchg   %ax,%ax
  100fb4:	66 90                	xchg   %ax,%ax
  100fb6:	66 90                	xchg   %ax,%ax
  100fb8:	66 90                	xchg   %ax,%ax
  100fba:	66 90                	xchg   %ax,%ax
  100fbc:	66 90                	xchg   %ax,%ax
  100fbe:	66 90                	xchg   %ax,%ax
  100fc0:	66 90                	xchg   %ax,%ax
  100fc2:	66 90                	xchg   %ax,%ax
  100fc4:	66 90                	xchg   %ax,%ax
  100fc6:	66 90                	xchg   %ax,%ax
  100fc8:	66 90                	xchg   %ax,%ax
  100fca:	66 90                	xchg   %ax,%ax
  100fcc:	66 90                	xchg   %ax,%ax
  100fce:	66 90                	xchg   %ax,%ax
  100fd0:	66 90                	xchg   %ax,%ax
  100fd2:	66 90                	xchg   %ax,%ax
  100fd4:	66 90                	xchg   %ax,%ax
  100fd6:	66 90                	xchg   %ax,%ax
  100fd8:	66 90                	xchg   %ax,%ax
  100fda:	66 90                	xchg   %ax,%ax
  100fdc:	66 90                	xchg   %ax,%ax
  100fde:	66 90                	xchg   %ax,%ax
  100fe0:	66 90                	xchg   %ax,%ax
  100fe2:	66 90                	xchg   %ax,%ax
  100fe4:	66 90                	xchg   %ax,%ax
  100fe6:	66 90                	xchg   %ax,%ax
  100fe8:	66 90                	xchg   %ax,%ax
  100fea:	66 90                	xchg   %ax,%ax
  100fec:	66 90                	xchg   %ax,%ax
  100fee:	66 90                	xchg   %ax,%ax
  100ff0:	66 90                	xchg   %ax,%ax
  100ff2:	66 90                	xchg   %ax,%ax
  100ff4:	66 90                	xchg   %ax,%ax
  100ff6:	66 90                	xchg   %ax,%ax
  100ff8:	66 90                	xchg   %ax,%ax
  100ffa:	66 90                	xchg   %ax,%ax
  100ffc:	66 90                	xchg   %ax,%ax
  100ffe:	66 90                	xchg   %ax,%ax

00101000 <_stext_common>:
  101000:	e9 00 00 00 00       	jmp    101005 <irq_handler_0>

00101005 <irq_handler_0>:
  101005:	6a 00                	push   $0x0
  101007:	60                   	pusha  
  101008:	6a 00                	push   $0x0
  10100a:	e8 ef 1f 00 00       	call   102ffe <isr_0>
  10100f:	e9 e0 1f 00 00       	jmp    102ff4 <handler_exit>
  101014:	8d b6 00 00 00 00    	lea    0x0(%esi),%esi
  10101a:	8d bf 00 00 00 00    	lea    0x0(%edi),%edi

00101020 <irq_1>:
  101020:	e9 00 00 00 00       	jmp    101025 <irq_handler_1>

00101025 <irq_handler_1>:
  101025:	6a 00                	push   $0x0
  101027:	60                   	pusha  
  101028:	6a 01                	push   $0x1
  10102a:	e8 d4 1f 00 00       	call   103003 <isr_1>
  10102f:	e9 c0 1f 00 00       	jmp    102ff4 <handler_exit>
  101034:	8d b6 00 00 00 00    	lea    0x0(%esi),%esi
  10103a:	8d bf 00 00 00 00    	lea    0x0(%edi),%edi

00101040 <irq_2>:
  101040:	e9 00 00 00 00       	jmp    101045 <irq_handler_2>

00101045 <irq_handler_2>:
  101045:	6a 00                	push   $0x0
  101047:	60                   	pusha  
  101048:	6a 02                	push   $0x2
  10104a:	e8 b9 1f 00 00       	call   103008 <isr_2>
  10104f:	e9 a0 1f 00 00       	jmp    102ff4 <handler_exit>
  101054:	8d b6 00 00 00 00    	lea    0x0(%esi),%esi
  10105a:	8d bf 00 00 00 00    	lea    0x0(%edi),%edi

00101060 <irq_3>:
  101060:	e9 00 00 00 00       	jmp    101065 <irq_handler_3>

00101065 <irq_handler_3>:
  101065:	6a 00                	push   $0x0
  101067:	60                   	pusha  
  101068:	6a 03                	push   $0x3
  10106a:	e8 9e 1f 00 00       	call   10300d <isr_3>
  10106f:	e9 80 1f 00 00       	jmp    102ff4 <handler_exit>
  101074:	8d b6 00 00 00 00    	lea    0x0(%esi),%esi
  10107a:	8d bf 00 00 00 00    	lea    0x0(%edi),%edi

00101080 <irq_4>:
  101080:	e9 00 00 00 00       	jmp    101085 <irq_handler_4>

00101085 <irq_handler_4>:
  101085:	6a 00                	push   $0x0
  101087:	60                   	pusha  
  101088:	6a 04                	push   $0x4
  10108a:	e8 83 1f 00 00       	call   103012 <isr_4>
  10108f:	e9 60 1f 00 00       	jmp    102ff4 <handler_exit>
  101094:	8d b6 00 00 00 00    	lea    0x0(%esi),%esi
  10109a:	8d bf 00 00 00 00    	lea    0x0(%edi),%edi

001010a0 <irq_5>:
  1010a0:	e9 00 00 00 00       	jmp    1010a5 <irq_handler_5>

001010a5 <irq_handler_5>:
  1010a5:	6a 00                	push   $0x0
  1010a7:	60                   	pusha  
  1010a8:	6a 05                	push   $0x5
  1010aa:	e8 68 1f 00 00       	call   103017 <isr_5>
  1010af:	e9 40 1f 00 00       	jmp    102ff4 <handler_exit>
  1010b4:	8d b6 00 00 00 00    	lea    0x0(%esi),%esi
  1010ba:	8d bf 00 00 00 00    	lea    0x0(%edi),%edi

001010c0 <irq_6>:
  1010c0:	e9 00 00 00 00       	jmp    1010c5 <irq_handler_6>

001010c5 <irq_handler_6>:
  1010c5:	6a 00                	push   $0x0
  1010c7:	60                   	pusha  
  1010c8:	6a 06                	push   $0x6
  1010ca:	e8 4d 1f 00 00       	call   10301c <isr_6>
  1010cf:	e9 20 1f 00 00       	jmp    102ff4 <handler_exit>
  1010d4:	8d b6 00 00 00 00    	lea    0x0(%esi),%esi
  1010da:	8d bf 00 00 00 00    	lea    0x0(%edi),%edi

001010e0 <irq_7>:
  1010e0:	e9 00 00 00 00       	jmp    1010e5 <irq_handler_7>

001010e5 <irq_handler_7>:
  1010e5:	6a 00                	push   $0x0
  1010e7:	60                   	pusha  
  1010e8:	6a 07                	push   $0x7
  1010ea:	e8 32 1f 00 00       	call   103021 <isr_7>
  1010ef:	e9 00 1f 00 00       	jmp    102ff4 <handler_exit>
  1010f4:	8d b6 00 00 00 00    	lea    0x0(%esi),%esi
  1010fa:	8d bf 00 00 00 00    	lea    0x0(%edi),%edi

00101100 <irq_8>:
  101100:	e9 00 00 00 00       	jmp    101105 <irq_handler_8>

00101105 <irq_handler_8>:
  101105:	60                   	pusha  
  101106:	6a 08                	push   $0x8
  101108:	e8 19 1f 00 00       	call   103026 <isr_8>
  10110d:	e9 e2 1e 00 00       	jmp    102ff4 <handler_exit>
  101112:	8d b4 26 00 00 00 00 	lea    0x0(%esi,%eiz,1),%esi
  101119:	8d bc 27 00 00 00 00 	lea    0x0(%edi,%eiz,1),%edi

00101120 <irq_9>:
  101120:	e9 00 00 00 00       	jmp    101125 <irq_handler_9>

00101125 <irq_handler_9>:
  101125:	6a 00                	push   $0x0
  101127:	60                   	pusha  
  101128:	6a 09                	push   $0x9
  10112a:	e8 fc 1e 00 00       	call   10302b <isr_9>
  10112f:	e9 c0 1e 00 00       	jmp    102ff4 <handler_exit>
  101134:	8d b6 00 00 00 00    	lea    0x0(%esi),%esi
  10113a:	8d bf 00 00 00 00    	lea    0x0(%edi),%edi

00101140 <irq_10>:
  101140:	e9 00 00 00 00       	jmp    101145 <irq_handler_10>

00101145 <irq_handler_10>:
  101145:	60                   	pusha  
  101146:	6a 0a                	push   $0xa
  101148:	e8 e3 1e 00 00       	call   103030 <isr_10>
  10114d:	e9 a2 1e 00 00       	jmp    102ff4 <handler_exit>
  101152:	8d b4 26 00 00 00 00 	lea    0x0(%esi,%eiz,1),%esi
  101159:	8d bc 27 00 00 00 00 	lea    0x0(%edi,%eiz,1),%edi

00101160 <irq_11>:
  101160:	e9 00 00 00 00       	jmp    101165 <irq_handler_11>

00101165 <irq_handler_11>:
  101165:	60                   	pusha  
  101166:	6a 0b                	push   $0xb
  101168:	e8 c8 1e 00 00       	call   103035 <isr_11>
  10116d:	e9 82 1e 00 00       	jmp    102ff4 <handler_exit>
  101172:	8d b4 26 00 00 00 00 	lea    0x0(%esi,%eiz,1),%esi
  101179:	8d bc 27 00 00 00 00 	lea    0x0(%edi,%eiz,1),%edi

00101180 <irq_12>:
  101180:	e9 00 00 00 00       	jmp    101185 <irq_handler_12>

00101185 <irq_handler_12>:
  101185:	60                   	pusha  
  101186:	6a 0c                	push   $0xc
  101188:	e8 ad 1e 00 00       	call   10303a <isr_12>
  10118d:	e9 62 1e 00 00       	jmp    102ff4 <handler_exit>
  101192:	8d b4 26 00 00 00 00 	lea    0x0(%esi,%eiz,1),%esi
  101199:	8d bc 27 00 00 00 00 	lea    0x0(%edi,%eiz,1),%edi

001011a0 <irq_13>:
  1011a0:	e9 00 00 00 00       	jmp    1011a5 <irq_handler_13>

001011a5 <irq_handler_13>:
  1011a5:	60                   	pusha  
  1011a6:	6a 0d                	push   $0xd
  1011a8:	e8 92 1e 00 00       	call   10303f <isr_13>
  1011ad:	e9 42 1e 00 00       	jmp    102ff4 <handler_exit>
  1011b2:	8d b4 26 00 00 00 00 	lea    0x0(%esi,%eiz,1),%esi
  1011b9:	8d bc 27 00 00 00 00 	lea    0x0(%edi,%eiz,1),%edi

001011c0 <irq_14>:
  1011c0:	e9 00 00 00 00       	jmp    1011c5 <irq_handler_14>

001011c5 <irq_handler_14>:
  1011c5:	60                   	pusha  
  1011c6:	6a 0e                	push   $0xe
  1011c8:	e8 77 1e 00 00       	call   103044 <isr_14>
  1011cd:	e9 22 1e 00 00       	jmp    102ff4 <handler_exit>
  1011d2:	8d b4 26 00 00 00 00 	lea    0x0(%esi,%eiz,1),%esi
  1011d9:	8d bc 27 00 00 00 00 	lea    0x0(%edi,%eiz,1),%edi

001011e0 <irq_15>:
  1011e0:	e9 00 00 00 00       	jmp    1011e5 <irq_handler_15>

001011e5 <irq_handler_15>:
  1011e5:	6a 00                	push   $0x0
  1011e7:	60                   	pusha  
  1011e8:	6a 0f                	push   $0xf
  1011ea:	e8 5a 1e 00 00       	call   103049 <isr_15>
  1011ef:	e9 00 1e 00 00       	jmp    102ff4 <handler_exit>
  1011f4:	8d b6 00 00 00 00    	lea    0x0(%esi),%esi
  1011fa:	8d bf 00 00 00 00    	lea    0x0(%edi),%edi

00101200 <irq_16>:
  101200:	e9 00 00 00 00       	jmp    101205 <irq_handler_16>

00101205 <irq_handler_16>:
  101205:	6a 00                	push   $0x0
  101207:	60                   	pusha  
  101208:	6a 10                	push   $0x10
  10120a:	e8 3f 1e 00 00       	call   10304e <isr_16>
  10120f:	e9 e0 1d 00 00       	jmp    102ff4 <handler_exit>
  101214:	8d b6 00 00 00 00    	lea    0x0(%esi),%esi
  10121a:	8d bf 00 00 00 00    	lea    0x0(%edi),%edi

00101220 <irq_17>:
  101220:	e9 00 00 00 00       	jmp    101225 <irq_handler_17>

00101225 <irq_handler_17>:
  101225:	60                   	pusha  
  101226:	6a 11                	push   $0x11
  101228:	e8 26 1e 00 00       	call   103053 <isr_17>
  10122d:	e9 c2 1d 00 00       	jmp    102ff4 <handler_exit>
  101232:	8d b4 26 00 00 00 00 	lea    0x0(%esi,%eiz,1),%esi
  101239:	8d bc 27 00 00 00 00 	lea    0x0(%edi,%eiz,1),%edi

00101240 <irq_18>:
  101240:	e9 00 00 00 00       	jmp    101245 <irq_handler_18>

00101245 <irq_handler_18>:
  101245:	6a 00                	push   $0x0
  101247:	60                   	pusha  
  101248:	6a 12                	push   $0x12
  10124a:	e8 09 1e 00 00       	call   103058 <isr_18>
  10124f:	e9 a0 1d 00 00       	jmp    102ff4 <handler_exit>
  101254:	8d b6 00 00 00 00    	lea    0x0(%esi),%esi
  10125a:	8d bf 00 00 00 00    	lea    0x0(%edi),%edi

00101260 <irq_19>:
  101260:	e9 00 00 00 00       	jmp    101265 <irq_handler_19>

00101265 <irq_handler_19>:
  101265:	6a 00                	push   $0x0
  101267:	60                   	pusha  
  101268:	6a 13                	push   $0x13
  10126a:	e8 ee 1d 00 00       	call   10305d <isr_19>
  10126f:	e9 80 1d 00 00       	jmp    102ff4 <handler_exit>
  101274:	8d b6 00 00 00 00    	lea    0x0(%esi),%esi
  10127a:	8d bf 00 00 00 00    	lea    0x0(%edi),%edi

00101280 <irq_20>:
  101280:	e9 00 00 00 00       	jmp    101285 <irq_handler_20>

00101285 <irq_handler_20>:
  101285:	6a 00                	push   $0x0
  101287:	60                   	pusha  
  101288:	6a 14                	push   $0x14
  10128a:	e8 d3 1d 00 00       	call   103062 <isr_20>
  10128f:	e9 60 1d 00 00       	jmp    102ff4 <handler_exit>
  101294:	8d b6 00 00 00 00    	lea    0x0(%esi),%esi
  10129a:	8d bf 00 00 00 00    	lea    0x0(%edi),%edi

001012a0 <irq_21>:
  1012a0:	e9 00 00 00 00       	jmp    1012a5 <irq_handler_21>

001012a5 <irq_handler_21>:
  1012a5:	6a 00                	push   $0x0
  1012a7:	60                   	pusha  
  1012a8:	6a 15                	push   $0x15
  1012aa:	e8 b8 1d 00 00       	call   103067 <isr_21>
  1012af:	e9 40 1d 00 00       	jmp    102ff4 <handler_exit>
  1012b4:	8d b6 00 00 00 00    	lea    0x0(%esi),%esi
  1012ba:	8d bf 00 00 00 00    	lea    0x0(%edi),%edi

001012c0 <irq_22>:
  1012c0:	e9 00 00 00 00       	jmp    1012c5 <irq_handler_22>

001012c5 <irq_handler_22>:
  1012c5:	6a 00                	push   $0x0
  1012c7:	60                   	pusha  
  1012c8:	6a 16                	push   $0x16
  1012ca:	e8 9d 1d 00 00       	call   10306c <isr_22>
  1012cf:	e9 20 1d 00 00       	jmp    102ff4 <handler_exit>
  1012d4:	8d b6 00 00 00 00    	lea    0x0(%esi),%esi
  1012da:	8d bf 00 00 00 00    	lea    0x0(%edi),%edi

001012e0 <irq_23>:
  1012e0:	e9 00 00 00 00       	jmp    1012e5 <irq_handler_23>

001012e5 <irq_handler_23>:
  1012e5:	6a 00                	push   $0x0
  1012e7:	60                   	pusha  
  1012e8:	6a 17                	push   $0x17
  1012ea:	e8 82 1d 00 00       	call   103071 <isr_23>
  1012ef:	e9 00 1d 00 00       	jmp    102ff4 <handler_exit>
  1012f4:	8d b6 00 00 00 00    	lea    0x0(%esi),%esi
  1012fa:	8d bf 00 00 00 00    	lea    0x0(%edi),%edi

00101300 <irq_24>:
  101300:	e9 00 00 00 00       	jmp    101305 <irq_handler_24>

00101305 <irq_handler_24>:
  101305:	6a 00                	push   $0x0
  101307:	60                   	pusha  
  101308:	6a 18                	push   $0x18
  10130a:	e8 67 1d 00 00       	call   103076 <isr_24>
  10130f:	e9 e0 1c 00 00       	jmp    102ff4 <handler_exit>
  101314:	8d b6 00 00 00 00    	lea    0x0(%esi),%esi
  10131a:	8d bf 00 00 00 00    	lea    0x0(%edi),%edi

00101320 <irq_25>:
  101320:	e9 00 00 00 00       	jmp    101325 <irq_handler_25>

00101325 <irq_handler_25>:
  101325:	6a 00                	push   $0x0
  101327:	60                   	pusha  
  101328:	6a 19                	push   $0x19
  10132a:	e8 4c 1d 00 00       	call   10307b <isr_25>
  10132f:	e9 c0 1c 00 00       	jmp    102ff4 <handler_exit>
  101334:	8d b6 00 00 00 00    	lea    0x0(%esi),%esi
  10133a:	8d bf 00 00 00 00    	lea    0x0(%edi),%edi

00101340 <irq_26>:
  101340:	e9 00 00 00 00       	jmp    101345 <irq_handler_26>

00101345 <irq_handler_26>:
  101345:	6a 00                	push   $0x0
  101347:	60                   	pusha  
  101348:	6a 1a                	push   $0x1a
  10134a:	e8 31 1d 00 00       	call   103080 <isr_26>
  10134f:	e9 a0 1c 00 00       	jmp    102ff4 <handler_exit>
  101354:	8d b6 00 00 00 00    	lea    0x0(%esi),%esi
  10135a:	8d bf 00 00 00 00    	lea    0x0(%edi),%edi

00101360 <irq_27>:
  101360:	e9 00 00 00 00       	jmp    101365 <irq_handler_27>

00101365 <irq_handler_27>:
  101365:	6a 00                	push   $0x0
  101367:	60                   	pusha  
  101368:	6a 1b                	push   $0x1b
  10136a:	e8 16 1d 00 00       	call   103085 <isr_27>
  10136f:	e9 80 1c 00 00       	jmp    102ff4 <handler_exit>
  101374:	8d b6 00 00 00 00    	lea    0x0(%esi),%esi
  10137a:	8d bf 00 00 00 00    	lea    0x0(%edi),%edi

00101380 <irq_28>:
  101380:	e9 00 00 00 00       	jmp    101385 <irq_handler_28>

00101385 <irq_handler_28>:
  101385:	6a 00                	push   $0x0
  101387:	60                   	pusha  
  101388:	6a 1c                	push   $0x1c
  10138a:	e8 fb 1c 00 00       	call   10308a <isr_28>
  10138f:	e9 60 1c 00 00       	jmp    102ff4 <handler_exit>
  101394:	8d b6 00 00 00 00    	lea    0x0(%esi),%esi
  10139a:	8d bf 00 00 00 00    	lea    0x0(%edi),%edi

001013a0 <irq_29>:
  1013a0:	e9 00 00 00 00       	jmp    1013a5 <irq_handler_29>

001013a5 <irq_handler_29>:
  1013a5:	6a 00                	push   $0x0
  1013a7:	60                   	pusha  
  1013a8:	6a 1d                	push   $0x1d
  1013aa:	e8 e0 1c 00 00       	call   10308f <isr_29>
  1013af:	e9 40 1c 00 00       	jmp    102ff4 <handler_exit>
  1013b4:	8d b6 00 00 00 00    	lea    0x0(%esi),%esi
  1013ba:	8d bf 00 00 00 00    	lea    0x0(%edi),%edi

001013c0 <irq_30>:
  1013c0:	e9 00 00 00 00       	jmp    1013c5 <irq_handler_30>

001013c5 <irq_handler_30>:
  1013c5:	6a 00                	push   $0x0
  1013c7:	60                   	pusha  
  1013c8:	6a 1e                	push   $0x1e
  1013ca:	e8 c5 1c 00 00       	call   103094 <isr_30>
  1013cf:	e9 20 1c 00 00       	jmp    102ff4 <handler_exit>
  1013d4:	8d b6 00 00 00 00    	lea    0x0(%esi),%esi
  1013da:	8d bf 00 00 00 00    	lea    0x0(%edi),%edi

001013e0 <irq_31>:
  1013e0:	e9 00 00 00 00       	jmp    1013e5 <irq_handler_31>

001013e5 <irq_handler_31>:
  1013e5:	6a 00                	push   $0x0
  1013e7:	60                   	pusha  
  1013e8:	6a 1f                	push   $0x1f
  1013ea:	e8 aa 1c 00 00       	call   103099 <isr_31>
  1013ef:	e9 00 1c 00 00       	jmp    102ff4 <handler_exit>
  1013f4:	8d b6 00 00 00 00    	lea    0x0(%esi),%esi
  1013fa:	8d bf 00 00 00 00    	lea    0x0(%edi),%edi

00101400 <irq_32>:
  101400:	e9 00 00 00 00       	jmp    101405 <irq_handler_32>

00101405 <irq_handler_32>:
  101405:	6a 00                	push   $0x0
  101407:	60                   	pusha  
  101408:	6a 20                	push   $0x20
  10140a:	e8 8f 1c 00 00       	call   10309e <isr_32>
  10140f:	e9 e0 1b 00 00       	jmp    102ff4 <handler_exit>
  101414:	8d b6 00 00 00 00    	lea    0x0(%esi),%esi
  10141a:	8d bf 00 00 00 00    	lea    0x0(%edi),%edi

00101420 <irq_33>:
  101420:	e9 00 00 00 00       	jmp    101425 <irq_handler_33>

00101425 <irq_handler_33>:
  101425:	6a 00                	push   $0x0
  101427:	60                   	pusha  
  101428:	6a 21                	push   $0x21
  10142a:	e8 74 1c 00 00       	call   1030a3 <isr_33>
  10142f:	e9 c0 1b 00 00       	jmp    102ff4 <handler_exit>
  101434:	8d b6 00 00 00 00    	lea    0x0(%esi),%esi
  10143a:	8d bf 00 00 00 00    	lea    0x0(%edi),%edi

00101440 <irq_34>:
  101440:	e9 00 00 00 00       	jmp    101445 <irq_handler_34>

00101445 <irq_handler_34>:
  101445:	6a 00                	push   $0x0
  101447:	60                   	pusha  
  101448:	6a 22                	push   $0x22
  10144a:	e8 59 1c 00 00       	call   1030a8 <isr_34>
  10144f:	e9 a0 1b 00 00       	jmp    102ff4 <handler_exit>
  101454:	8d b6 00 00 00 00    	lea    0x0(%esi),%esi
  10145a:	8d bf 00 00 00 00    	lea    0x0(%edi),%edi

00101460 <irq_35>:
  101460:	e9 00 00 00 00       	jmp    101465 <irq_handler_35>

00101465 <irq_handler_35>:
  101465:	6a 00                	push   $0x0
  101467:	60                   	pusha  
  101468:	6a 23                	push   $0x23
  10146a:	e8 3e 1c 00 00       	call   1030ad <isr_35>
  10146f:	e9 80 1b 00 00       	jmp    102ff4 <handler_exit>
  101474:	8d b6 00 00 00 00    	lea    0x0(%esi),%esi
  10147a:	8d bf 00 00 00 00    	lea    0x0(%edi),%edi

00101480 <irq_36>:
  101480:	e9 00 00 00 00       	jmp    101485 <irq_handler_36>

00101485 <irq_handler_36>:
  101485:	6a 00                	push   $0x0
  101487:	60                   	pusha  
  101488:	6a 24                	push   $0x24
  10148a:	e8 23 1c 00 00       	call   1030b2 <isr_36>
  10148f:	e9 60 1b 00 00       	jmp    102ff4 <handler_exit>
  101494:	8d b6 00 00 00 00    	lea    0x0(%esi),%esi
  10149a:	8d bf 00 00 00 00    	lea    0x0(%edi),%edi

001014a0 <irq_37>:
  1014a0:	e9 00 00 00 00       	jmp    1014a5 <irq_handler_37>

001014a5 <irq_handler_37>:
  1014a5:	6a 00                	push   $0x0
  1014a7:	60                   	pusha  
  1014a8:	6a 25                	push   $0x25
  1014aa:	e8 08 1c 00 00       	call   1030b7 <isr_37>
  1014af:	e9 40 1b 00 00       	jmp    102ff4 <handler_exit>
  1014b4:	8d b6 00 00 00 00    	lea    0x0(%esi),%esi
  1014ba:	8d bf 00 00 00 00    	lea    0x0(%edi),%edi

001014c0 <irq_38>:
  1014c0:	e9 00 00 00 00       	jmp    1014c5 <irq_handler_38>

001014c5 <irq_handler_38>:
  1014c5:	6a 00                	push   $0x0
  1014c7:	60                   	pusha  
  1014c8:	6a 26                	push   $0x26
  1014ca:	e8 ed 1b 00 00       	call   1030bc <isr_38>
  1014cf:	e9 20 1b 00 00       	jmp    102ff4 <handler_exit>
  1014d4:	8d b6 00 00 00 00    	lea    0x0(%esi),%esi
  1014da:	8d bf 00 00 00 00    	lea    0x0(%edi),%edi

001014e0 <irq_39>:
  1014e0:	e9 00 00 00 00       	jmp    1014e5 <irq_handler_39>

001014e5 <irq_handler_39>:
  1014e5:	6a 00                	push   $0x0
  1014e7:	60                   	pusha  
  1014e8:	6a 27                	push   $0x27
  1014ea:	e8 d2 1b 00 00       	call   1030c1 <isr_39>
  1014ef:	e9 00 1b 00 00       	jmp    102ff4 <handler_exit>
  1014f4:	8d b6 00 00 00 00    	lea    0x0(%esi),%esi
  1014fa:	8d bf 00 00 00 00    	lea    0x0(%edi),%edi

00101500 <irq_40>:
  101500:	e9 00 00 00 00       	jmp    101505 <irq_handler_40>

00101505 <irq_handler_40>:
  101505:	6a 00                	push   $0x0
  101507:	60                   	pusha  
  101508:	6a 28                	push   $0x28
  10150a:	e8 b7 1b 00 00       	call   1030c6 <isr_40>
  10150f:	e9 e0 1a 00 00       	jmp    102ff4 <handler_exit>
  101514:	8d b6 00 00 00 00    	lea    0x0(%esi),%esi
  10151a:	8d bf 00 00 00 00    	lea    0x0(%edi),%edi

00101520 <irq_41>:
  101520:	e9 00 00 00 00       	jmp    101525 <irq_handler_41>

00101525 <irq_handler_41>:
  101525:	6a 00                	push   $0x0
  101527:	60                   	pusha  
  101528:	6a 29                	push   $0x29
  10152a:	e8 9c 1b 00 00       	call   1030cb <isr_41>
  10152f:	e9 c0 1a 00 00       	jmp    102ff4 <handler_exit>
  101534:	8d b6 00 00 00 00    	lea    0x0(%esi),%esi
  10153a:	8d bf 00 00 00 00    	lea    0x0(%edi),%edi

00101540 <irq_42>:
  101540:	e9 00 00 00 00       	jmp    101545 <irq_handler_42>

00101545 <irq_handler_42>:
  101545:	6a 00                	push   $0x0
  101547:	60                   	pusha  
  101548:	6a 2a                	push   $0x2a
  10154a:	e8 81 1b 00 00       	call   1030d0 <isr_42>
  10154f:	e9 a0 1a 00 00       	jmp    102ff4 <handler_exit>
  101554:	8d b6 00 00 00 00    	lea    0x0(%esi),%esi
  10155a:	8d bf 00 00 00 00    	lea    0x0(%edi),%edi

00101560 <irq_43>:
  101560:	e9 00 00 00 00       	jmp    101565 <irq_handler_43>

00101565 <irq_handler_43>:
  101565:	6a 00                	push   $0x0
  101567:	60                   	pusha  
  101568:	6a 2b                	push   $0x2b
  10156a:	e8 66 1b 00 00       	call   1030d5 <isr_43>
  10156f:	e9 80 1a 00 00       	jmp    102ff4 <handler_exit>
  101574:	8d b6 00 00 00 00    	lea    0x0(%esi),%esi
  10157a:	8d bf 00 00 00 00    	lea    0x0(%edi),%edi

00101580 <irq_44>:
  101580:	e9 00 00 00 00       	jmp    101585 <irq_handler_44>

00101585 <irq_handler_44>:
  101585:	6a 00                	push   $0x0
  101587:	60                   	pusha  
  101588:	6a 2c                	push   $0x2c
  10158a:	e8 4b 1b 00 00       	call   1030da <isr_44>
  10158f:	e9 60 1a 00 00       	jmp    102ff4 <handler_exit>
  101594:	8d b6 00 00 00 00    	lea    0x0(%esi),%esi
  10159a:	8d bf 00 00 00 00    	lea    0x0(%edi),%edi

001015a0 <irq_45>:
  1015a0:	e9 00 00 00 00       	jmp    1015a5 <irq_handler_45>

001015a5 <irq_handler_45>:
  1015a5:	6a 00                	push   $0x0
  1015a7:	60                   	pusha  
  1015a8:	6a 2d                	push   $0x2d
  1015aa:	e8 30 1b 00 00       	call   1030df <isr_45>
  1015af:	e9 40 1a 00 00       	jmp    102ff4 <handler_exit>
  1015b4:	8d b6 00 00 00 00    	lea    0x0(%esi),%esi
  1015ba:	8d bf 00 00 00 00    	lea    0x0(%edi),%edi

001015c0 <irq_46>:
  1015c0:	e9 00 00 00 00       	jmp    1015c5 <irq_handler_46>

001015c5 <irq_handler_46>:
  1015c5:	6a 00                	push   $0x0
  1015c7:	60                   	pusha  
  1015c8:	6a 2e                	push   $0x2e
  1015ca:	e8 15 1b 00 00       	call   1030e4 <isr_46>
  1015cf:	e9 20 1a 00 00       	jmp    102ff4 <handler_exit>
  1015d4:	8d b6 00 00 00 00    	lea    0x0(%esi),%esi
  1015da:	8d bf 00 00 00 00    	lea    0x0(%edi),%edi

001015e0 <irq_47>:
  1015e0:	e9 00 00 00 00       	jmp    1015e5 <irq_handler_47>

001015e5 <irq_handler_47>:
  1015e5:	6a 00                	push   $0x0
  1015e7:	60                   	pusha  
  1015e8:	6a 2f                	push   $0x2f
  1015ea:	e8 fa 1a 00 00       	call   1030e9 <isr_47>
  1015ef:	e9 00 1a 00 00       	jmp    102ff4 <handler_exit>
  1015f4:	8d b6 00 00 00 00    	lea    0x0(%esi),%esi
  1015fa:	8d bf 00 00 00 00    	lea    0x0(%edi),%edi

00101600 <irq_48>:
  101600:	e9 00 00 00 00       	jmp    101605 <irq_handler_48>

00101605 <irq_handler_48>:
  101605:	6a 00                	push   $0x0
  101607:	60                   	pusha  
  101608:	6a 30                	push   $0x30
  10160a:	e8 df 1a 00 00       	call   1030ee <isr_48>
  10160f:	e9 e0 19 00 00       	jmp    102ff4 <handler_exit>
  101614:	8d b6 00 00 00 00    	lea    0x0(%esi),%esi
  10161a:	8d bf 00 00 00 00    	lea    0x0(%edi),%edi

00101620 <irq_49>:
  101620:	e9 00 00 00 00       	jmp    101625 <irq_handler_49>

00101625 <irq_handler_49>:
  101625:	6a 00                	push   $0x0
  101627:	60                   	pusha  
  101628:	6a 31                	push   $0x31
  10162a:	e8 c4 1a 00 00       	call   1030f3 <isr_49>
  10162f:	e9 c0 19 00 00       	jmp    102ff4 <handler_exit>
  101634:	8d b6 00 00 00 00    	lea    0x0(%esi),%esi
  10163a:	8d bf 00 00 00 00    	lea    0x0(%edi),%edi

00101640 <irq_50>:
  101640:	e9 00 00 00 00       	jmp    101645 <irq_handler_50>

00101645 <irq_handler_50>:
  101645:	6a 00                	push   $0x0
  101647:	60                   	pusha  
  101648:	6a 32                	push   $0x32
  10164a:	e8 a9 1a 00 00       	call   1030f8 <isr_50>
  10164f:	e9 a0 19 00 00       	jmp    102ff4 <handler_exit>
  101654:	8d b6 00 00 00 00    	lea    0x0(%esi),%esi
  10165a:	8d bf 00 00 00 00    	lea    0x0(%edi),%edi

00101660 <irq_51>:
  101660:	e9 00 00 00 00       	jmp    101665 <irq_handler_51>

00101665 <irq_handler_51>:
  101665:	6a 00                	push   $0x0
  101667:	60                   	pusha  
  101668:	6a 33                	push   $0x33
  10166a:	e8 8e 1a 00 00       	call   1030fd <isr_51>
  10166f:	e9 80 19 00 00       	jmp    102ff4 <handler_exit>
  101674:	8d b6 00 00 00 00    	lea    0x0(%esi),%esi
  10167a:	8d bf 00 00 00 00    	lea    0x0(%edi),%edi

00101680 <irq_52>:
  101680:	e9 00 00 00 00       	jmp    101685 <irq_handler_52>

00101685 <irq_handler_52>:
  101685:	6a 00                	push   $0x0
  101687:	60                   	pusha  
  101688:	6a 34                	push   $0x34
  10168a:	e8 73 1a 00 00       	call   103102 <isr_52>
  10168f:	e9 60 19 00 00       	jmp    102ff4 <handler_exit>
  101694:	8d b6 00 00 00 00    	lea    0x0(%esi),%esi
  10169a:	8d bf 00 00 00 00    	lea    0x0(%edi),%edi

001016a0 <irq_53>:
  1016a0:	e9 00 00 00 00       	jmp    1016a5 <irq_handler_53>

001016a5 <irq_handler_53>:
  1016a5:	6a 00                	push   $0x0
  1016a7:	60                   	pusha  
  1016a8:	6a 35                	push   $0x35
  1016aa:	e8 58 1a 00 00       	call   103107 <isr_53>
  1016af:	e9 40 19 00 00       	jmp    102ff4 <handler_exit>
  1016b4:	8d b6 00 00 00 00    	lea    0x0(%esi),%esi
  1016ba:	8d bf 00 00 00 00    	lea    0x0(%edi),%edi

001016c0 <irq_54>:
  1016c0:	e9 00 00 00 00       	jmp    1016c5 <irq_handler_54>

001016c5 <irq_handler_54>:
  1016c5:	6a 00                	push   $0x0
  1016c7:	60                   	pusha  
  1016c8:	6a 36                	push   $0x36
  1016ca:	e8 3d 1a 00 00       	call   10310c <isr_54>
  1016cf:	e9 20 19 00 00       	jmp    102ff4 <handler_exit>
  1016d4:	8d b6 00 00 00 00    	lea    0x0(%esi),%esi
  1016da:	8d bf 00 00 00 00    	lea    0x0(%edi),%edi

001016e0 <irq_55>:
  1016e0:	e9 00 00 00 00       	jmp    1016e5 <irq_handler_55>

001016e5 <irq_handler_55>:
  1016e5:	6a 00                	push   $0x0
  1016e7:	60                   	pusha  
  1016e8:	6a 37                	push   $0x37
  1016ea:	e8 22 1a 00 00       	call   103111 <isr_55>
  1016ef:	e9 00 19 00 00       	jmp    102ff4 <handler_exit>
  1016f4:	8d b6 00 00 00 00    	lea    0x0(%esi),%esi
  1016fa:	8d bf 00 00 00 00    	lea    0x0(%edi),%edi

00101700 <irq_56>:
  101700:	e9 00 00 00 00       	jmp    101705 <irq_handler_56>

00101705 <irq_handler_56>:
  101705:	6a 00                	push   $0x0
  101707:	60                   	pusha  
  101708:	6a 38                	push   $0x38
  10170a:	e8 07 1a 00 00       	call   103116 <isr_56>
  10170f:	e9 e0 18 00 00       	jmp    102ff4 <handler_exit>
  101714:	8d b6 00 00 00 00    	lea    0x0(%esi),%esi
  10171a:	8d bf 00 00 00 00    	lea    0x0(%edi),%edi

00101720 <irq_57>:
  101720:	e9 00 00 00 00       	jmp    101725 <irq_handler_57>

00101725 <irq_handler_57>:
  101725:	6a 00                	push   $0x0
  101727:	60                   	pusha  
  101728:	6a 39                	push   $0x39
  10172a:	e8 ec 19 00 00       	call   10311b <isr_57>
  10172f:	e9 c0 18 00 00       	jmp    102ff4 <handler_exit>
  101734:	8d b6 00 00 00 00    	lea    0x0(%esi),%esi
  10173a:	8d bf 00 00 00 00    	lea    0x0(%edi),%edi

00101740 <irq_58>:
  101740:	e9 00 00 00 00       	jmp    101745 <irq_handler_58>

00101745 <irq_handler_58>:
  101745:	6a 00                	push   $0x0
  101747:	60                   	pusha  
  101748:	6a 3a                	push   $0x3a
  10174a:	e8 d1 19 00 00       	call   103120 <isr_58>
  10174f:	e9 a0 18 00 00       	jmp    102ff4 <handler_exit>
  101754:	8d b6 00 00 00 00    	lea    0x0(%esi),%esi
  10175a:	8d bf 00 00 00 00    	lea    0x0(%edi),%edi

00101760 <irq_59>:
  101760:	e9 00 00 00 00       	jmp    101765 <irq_handler_59>

00101765 <irq_handler_59>:
  101765:	6a 00                	push   $0x0
  101767:	60                   	pusha  
  101768:	6a 3b                	push   $0x3b
  10176a:	e8 b6 19 00 00       	call   103125 <isr_59>
  10176f:	e9 80 18 00 00       	jmp    102ff4 <handler_exit>
  101774:	8d b6 00 00 00 00    	lea    0x0(%esi),%esi
  10177a:	8d bf 00 00 00 00    	lea    0x0(%edi),%edi

00101780 <irq_60>:
  101780:	e9 00 00 00 00       	jmp    101785 <irq_handler_60>

00101785 <irq_handler_60>:
  101785:	6a 00                	push   $0x0
  101787:	60                   	pusha  
  101788:	6a 3c                	push   $0x3c
  10178a:	e8 9b 19 00 00       	call   10312a <isr_60>
  10178f:	e9 60 18 00 00       	jmp    102ff4 <handler_exit>
  101794:	8d b6 00 00 00 00    	lea    0x0(%esi),%esi
  10179a:	8d bf 00 00 00 00    	lea    0x0(%edi),%edi

001017a0 <irq_61>:
  1017a0:	e9 00 00 00 00       	jmp    1017a5 <irq_handler_61>

001017a5 <irq_handler_61>:
  1017a5:	6a 00                	push   $0x0
  1017a7:	60                   	pusha  
  1017a8:	6a 3d                	push   $0x3d
  1017aa:	e8 80 19 00 00       	call   10312f <isr_61>
  1017af:	e9 40 18 00 00       	jmp    102ff4 <handler_exit>
  1017b4:	8d b6 00 00 00 00    	lea    0x0(%esi),%esi
  1017ba:	8d bf 00 00 00 00    	lea    0x0(%edi),%edi

001017c0 <irq_62>:
  1017c0:	e9 00 00 00 00       	jmp    1017c5 <irq_handler_62>

001017c5 <irq_handler_62>:
  1017c5:	6a 00                	push   $0x0
  1017c7:	60                   	pusha  
  1017c8:	6a 3e                	push   $0x3e
  1017ca:	e8 65 19 00 00       	call   103134 <isr_62>
  1017cf:	e9 20 18 00 00       	jmp    102ff4 <handler_exit>
  1017d4:	8d b6 00 00 00 00    	lea    0x0(%esi),%esi
  1017da:	8d bf 00 00 00 00    	lea    0x0(%edi),%edi

001017e0 <irq_63>:
  1017e0:	e9 00 00 00 00       	jmp    1017e5 <irq_handler_63>

001017e5 <irq_handler_63>:
  1017e5:	6a 00                	push   $0x0
  1017e7:	60                   	pusha  
  1017e8:	6a 3f                	push   $0x3f
  1017ea:	e8 4a 19 00 00       	call   103139 <isr_63>
  1017ef:	e9 00 18 00 00       	jmp    102ff4 <handler_exit>
  1017f4:	8d b6 00 00 00 00    	lea    0x0(%esi),%esi
  1017fa:	8d bf 00 00 00 00    	lea    0x0(%edi),%edi

00101800 <irq_64>:
  101800:	e9 00 00 00 00       	jmp    101805 <irq_handler_64>

00101805 <irq_handler_64>:
  101805:	6a 00                	push   $0x0
  101807:	60                   	pusha  
  101808:	6a 40                	push   $0x40
  10180a:	e8 2f 19 00 00       	call   10313e <isr_64>
  10180f:	e9 e0 17 00 00       	jmp    102ff4 <handler_exit>
  101814:	8d b6 00 00 00 00    	lea    0x0(%esi),%esi
  10181a:	8d bf 00 00 00 00    	lea    0x0(%edi),%edi

00101820 <irq_65>:
  101820:	e9 00 00 00 00       	jmp    101825 <irq_handler_65>

00101825 <irq_handler_65>:
  101825:	6a 00                	push   $0x0
  101827:	60                   	pusha  
  101828:	6a 41                	push   $0x41
  10182a:	e8 14 19 00 00       	call   103143 <isr_65>
  10182f:	e9 c0 17 00 00       	jmp    102ff4 <handler_exit>
  101834:	8d b6 00 00 00 00    	lea    0x0(%esi),%esi
  10183a:	8d bf 00 00 00 00    	lea    0x0(%edi),%edi

00101840 <irq_66>:
  101840:	e9 00 00 00 00       	jmp    101845 <irq_handler_66>

00101845 <irq_handler_66>:
  101845:	6a 00                	push   $0x0
  101847:	60                   	pusha  
  101848:	6a 42                	push   $0x42
  10184a:	e8 f9 18 00 00       	call   103148 <isr_66>
  10184f:	e9 a0 17 00 00       	jmp    102ff4 <handler_exit>
  101854:	8d b6 00 00 00 00    	lea    0x0(%esi),%esi
  10185a:	8d bf 00 00 00 00    	lea    0x0(%edi),%edi

00101860 <irq_67>:
  101860:	e9 00 00 00 00       	jmp    101865 <irq_handler_67>

00101865 <irq_handler_67>:
  101865:	6a 00                	push   $0x0
  101867:	60                   	pusha  
  101868:	6a 43                	push   $0x43
  10186a:	e8 de 18 00 00       	call   10314d <isr_67>
  10186f:	e9 80 17 00 00       	jmp    102ff4 <handler_exit>
  101874:	8d b6 00 00 00 00    	lea    0x0(%esi),%esi
  10187a:	8d bf 00 00 00 00    	lea    0x0(%edi),%edi

00101880 <irq_68>:
  101880:	e9 00 00 00 00       	jmp    101885 <irq_handler_68>

00101885 <irq_handler_68>:
  101885:	6a 00                	push   $0x0
  101887:	60                   	pusha  
  101888:	6a 44                	push   $0x44
  10188a:	e8 c3 18 00 00       	call   103152 <isr_68>
  10188f:	e9 60 17 00 00       	jmp    102ff4 <handler_exit>
  101894:	8d b6 00 00 00 00    	lea    0x0(%esi),%esi
  10189a:	8d bf 00 00 00 00    	lea    0x0(%edi),%edi

001018a0 <irq_69>:
  1018a0:	e9 00 00 00 00       	jmp    1018a5 <irq_handler_69>

001018a5 <irq_handler_69>:
  1018a5:	6a 00                	push   $0x0
  1018a7:	60                   	pusha  
  1018a8:	6a 45                	push   $0x45
  1018aa:	e8 a8 18 00 00       	call   103157 <isr_69>
  1018af:	e9 40 17 00 00       	jmp    102ff4 <handler_exit>
  1018b4:	8d b6 00 00 00 00    	lea    0x0(%esi),%esi
  1018ba:	8d bf 00 00 00 00    	lea    0x0(%edi),%edi

001018c0 <irq_70>:
  1018c0:	e9 00 00 00 00       	jmp    1018c5 <irq_handler_70>

001018c5 <irq_handler_70>:
  1018c5:	6a 00                	push   $0x0
  1018c7:	60                   	pusha  
  1018c8:	6a 46                	push   $0x46
  1018ca:	e8 8d 18 00 00       	call   10315c <isr_70>
  1018cf:	e9 20 17 00 00       	jmp    102ff4 <handler_exit>
  1018d4:	8d b6 00 00 00 00    	lea    0x0(%esi),%esi
  1018da:	8d bf 00 00 00 00    	lea    0x0(%edi),%edi

001018e0 <irq_71>:
  1018e0:	e9 00 00 00 00       	jmp    1018e5 <irq_handler_71>

001018e5 <irq_handler_71>:
  1018e5:	6a 00                	push   $0x0
  1018e7:	60                   	pusha  
  1018e8:	6a 47                	push   $0x47
  1018ea:	e8 72 18 00 00       	call   103161 <isr_71>
  1018ef:	e9 00 17 00 00       	jmp    102ff4 <handler_exit>
  1018f4:	8d b6 00 00 00 00    	lea    0x0(%esi),%esi
  1018fa:	8d bf 00 00 00 00    	lea    0x0(%edi),%edi

00101900 <irq_72>:
  101900:	e9 00 00 00 00       	jmp    101905 <irq_handler_72>

00101905 <irq_handler_72>:
  101905:	6a 00                	push   $0x0
  101907:	60                   	pusha  
  101908:	6a 48                	push   $0x48
  10190a:	e8 57 18 00 00       	call   103166 <isr_72>
  10190f:	e9 e0 16 00 00       	jmp    102ff4 <handler_exit>
  101914:	8d b6 00 00 00 00    	lea    0x0(%esi),%esi
  10191a:	8d bf 00 00 00 00    	lea    0x0(%edi),%edi

00101920 <irq_73>:
  101920:	e9 00 00 00 00       	jmp    101925 <irq_handler_73>

00101925 <irq_handler_73>:
  101925:	6a 00                	push   $0x0
  101927:	60                   	pusha  
  101928:	6a 49                	push   $0x49
  10192a:	e8 3c 18 00 00       	call   10316b <isr_73>
  10192f:	e9 c0 16 00 00       	jmp    102ff4 <handler_exit>
  101934:	8d b6 00 00 00 00    	lea    0x0(%esi),%esi
  10193a:	8d bf 00 00 00 00    	lea    0x0(%edi),%edi

00101940 <irq_74>:
  101940:	e9 00 00 00 00       	jmp    101945 <irq_handler_74>

00101945 <irq_handler_74>:
  101945:	6a 00                	push   $0x0
  101947:	60                   	pusha  
  101948:	6a 4a                	push   $0x4a
  10194a:	e8 21 18 00 00       	call   103170 <isr_74>
  10194f:	e9 a0 16 00 00       	jmp    102ff4 <handler_exit>
  101954:	8d b6 00 00 00 00    	lea    0x0(%esi),%esi
  10195a:	8d bf 00 00 00 00    	lea    0x0(%edi),%edi

00101960 <irq_75>:
  101960:	e9 00 00 00 00       	jmp    101965 <irq_handler_75>

00101965 <irq_handler_75>:
  101965:	6a 00                	push   $0x0
  101967:	60                   	pusha  
  101968:	6a 4b                	push   $0x4b
  10196a:	e8 06 18 00 00       	call   103175 <isr_75>
  10196f:	e9 80 16 00 00       	jmp    102ff4 <handler_exit>
  101974:	8d b6 00 00 00 00    	lea    0x0(%esi),%esi
  10197a:	8d bf 00 00 00 00    	lea    0x0(%edi),%edi

00101980 <irq_76>:
  101980:	e9 00 00 00 00       	jmp    101985 <irq_handler_76>

00101985 <irq_handler_76>:
  101985:	6a 00                	push   $0x0
  101987:	60                   	pusha  
  101988:	6a 4c                	push   $0x4c
  10198a:	e8 eb 17 00 00       	call   10317a <isr_76>
  10198f:	e9 60 16 00 00       	jmp    102ff4 <handler_exit>
  101994:	8d b6 00 00 00 00    	lea    0x0(%esi),%esi
  10199a:	8d bf 00 00 00 00    	lea    0x0(%edi),%edi

001019a0 <irq_77>:
  1019a0:	e9 00 00 00 00       	jmp    1019a5 <irq_handler_77>

001019a5 <irq_handler_77>:
  1019a5:	6a 00                	push   $0x0
  1019a7:	60                   	pusha  
  1019a8:	6a 4d                	push   $0x4d
  1019aa:	e8 d0 17 00 00       	call   10317f <isr_77>
  1019af:	e9 40 16 00 00       	jmp    102ff4 <handler_exit>
  1019b4:	8d b6 00 00 00 00    	lea    0x0(%esi),%esi
  1019ba:	8d bf 00 00 00 00    	lea    0x0(%edi),%edi

001019c0 <irq_78>:
  1019c0:	e9 00 00 00 00       	jmp    1019c5 <irq_handler_78>

001019c5 <irq_handler_78>:
  1019c5:	6a 00                	push   $0x0
  1019c7:	60                   	pusha  
  1019c8:	6a 4e                	push   $0x4e
  1019ca:	e8 b5 17 00 00       	call   103184 <isr_78>
  1019cf:	e9 20 16 00 00       	jmp    102ff4 <handler_exit>
  1019d4:	8d b6 00 00 00 00    	lea    0x0(%esi),%esi
  1019da:	8d bf 00 00 00 00    	lea    0x0(%edi),%edi

001019e0 <irq_79>:
  1019e0:	e9 00 00 00 00       	jmp    1019e5 <irq_handler_79>

001019e5 <irq_handler_79>:
  1019e5:	6a 00                	push   $0x0
  1019e7:	60                   	pusha  
  1019e8:	6a 4f                	push   $0x4f
  1019ea:	e8 9a 17 00 00       	call   103189 <isr_79>
  1019ef:	e9 00 16 00 00       	jmp    102ff4 <handler_exit>
  1019f4:	8d b6 00 00 00 00    	lea    0x0(%esi),%esi
  1019fa:	8d bf 00 00 00 00    	lea    0x0(%edi),%edi

00101a00 <irq_80>:
  101a00:	e9 00 00 00 00       	jmp    101a05 <irq_handler_80>

00101a05 <irq_handler_80>:
  101a05:	6a 00                	push   $0x0
  101a07:	60                   	pusha  
  101a08:	6a 50                	push   $0x50
  101a0a:	e8 7f 17 00 00       	call   10318e <isr_80>
  101a0f:	e9 e0 15 00 00       	jmp    102ff4 <handler_exit>
  101a14:	8d b6 00 00 00 00    	lea    0x0(%esi),%esi
  101a1a:	8d bf 00 00 00 00    	lea    0x0(%edi),%edi

00101a20 <irq_81>:
  101a20:	e9 00 00 00 00       	jmp    101a25 <irq_handler_81>

00101a25 <irq_handler_81>:
  101a25:	6a 00                	push   $0x0
  101a27:	60                   	pusha  
  101a28:	6a 51                	push   $0x51
  101a2a:	e8 64 17 00 00       	call   103193 <isr_81>
  101a2f:	e9 c0 15 00 00       	jmp    102ff4 <handler_exit>
  101a34:	8d b6 00 00 00 00    	lea    0x0(%esi),%esi
  101a3a:	8d bf 00 00 00 00    	lea    0x0(%edi),%edi

00101a40 <irq_82>:
  101a40:	e9 00 00 00 00       	jmp    101a45 <irq_handler_82>

00101a45 <irq_handler_82>:
  101a45:	6a 00                	push   $0x0
  101a47:	60                   	pusha  
  101a48:	6a 52                	push   $0x52
  101a4a:	e8 49 17 00 00       	call   103198 <isr_82>
  101a4f:	e9 a0 15 00 00       	jmp    102ff4 <handler_exit>
  101a54:	8d b6 00 00 00 00    	lea    0x0(%esi),%esi
  101a5a:	8d bf 00 00 00 00    	lea    0x0(%edi),%edi

00101a60 <irq_83>:
  101a60:	e9 00 00 00 00       	jmp    101a65 <irq_handler_83>

00101a65 <irq_handler_83>:
  101a65:	6a 00                	push   $0x0
  101a67:	60                   	pusha  
  101a68:	6a 53                	push   $0x53
  101a6a:	e8 2e 17 00 00       	call   10319d <isr_83>
  101a6f:	e9 80 15 00 00       	jmp    102ff4 <handler_exit>
  101a74:	8d b6 00 00 00 00    	lea    0x0(%esi),%esi
  101a7a:	8d bf 00 00 00 00    	lea    0x0(%edi),%edi

00101a80 <irq_84>:
  101a80:	e9 00 00 00 00       	jmp    101a85 <irq_handler_84>

00101a85 <irq_handler_84>:
  101a85:	6a 00                	push   $0x0
  101a87:	60                   	pusha  
  101a88:	6a 54                	push   $0x54
  101a8a:	e8 13 17 00 00       	call   1031a2 <isr_84>
  101a8f:	e9 60 15 00 00       	jmp    102ff4 <handler_exit>
  101a94:	8d b6 00 00 00 00    	lea    0x0(%esi),%esi
  101a9a:	8d bf 00 00 00 00    	lea    0x0(%edi),%edi

00101aa0 <irq_85>:
  101aa0:	e9 00 00 00 00       	jmp    101aa5 <irq_handler_85>

00101aa5 <irq_handler_85>:
  101aa5:	6a 00                	push   $0x0
  101aa7:	60                   	pusha  
  101aa8:	6a 55                	push   $0x55
  101aaa:	e8 f8 16 00 00       	call   1031a7 <isr_85>
  101aaf:	e9 40 15 00 00       	jmp    102ff4 <handler_exit>
  101ab4:	8d b6 00 00 00 00    	lea    0x0(%esi),%esi
  101aba:	8d bf 00 00 00 00    	lea    0x0(%edi),%edi

00101ac0 <irq_86>:
  101ac0:	e9 00 00 00 00       	jmp    101ac5 <irq_handler_86>

00101ac5 <irq_handler_86>:
  101ac5:	6a 00                	push   $0x0
  101ac7:	60                   	pusha  
  101ac8:	6a 56                	push   $0x56
  101aca:	e8 dd 16 00 00       	call   1031ac <isr_86>
  101acf:	e9 20 15 00 00       	jmp    102ff4 <handler_exit>
  101ad4:	8d b6 00 00 00 00    	lea    0x0(%esi),%esi
  101ada:	8d bf 00 00 00 00    	lea    0x0(%edi),%edi

00101ae0 <irq_87>:
  101ae0:	e9 00 00 00 00       	jmp    101ae5 <irq_handler_87>

00101ae5 <irq_handler_87>:
  101ae5:	6a 00                	push   $0x0
  101ae7:	60                   	pusha  
  101ae8:	6a 57                	push   $0x57
  101aea:	e8 c2 16 00 00       	call   1031b1 <isr_87>
  101aef:	e9 00 15 00 00       	jmp    102ff4 <handler_exit>
  101af4:	8d b6 00 00 00 00    	lea    0x0(%esi),%esi
  101afa:	8d bf 00 00 00 00    	lea    0x0(%edi),%edi

00101b00 <irq_88>:
  101b00:	e9 00 00 00 00       	jmp    101b05 <irq_handler_88>

00101b05 <irq_handler_88>:
  101b05:	6a 00                	push   $0x0
  101b07:	60                   	pusha  
  101b08:	6a 58                	push   $0x58
  101b0a:	e8 a7 16 00 00       	call   1031b6 <isr_88>
  101b0f:	e9 e0 14 00 00       	jmp    102ff4 <handler_exit>
  101b14:	8d b6 00 00 00 00    	lea    0x0(%esi),%esi
  101b1a:	8d bf 00 00 00 00    	lea    0x0(%edi),%edi

00101b20 <irq_89>:
  101b20:	e9 00 00 00 00       	jmp    101b25 <irq_handler_89>

00101b25 <irq_handler_89>:
  101b25:	6a 00                	push   $0x0
  101b27:	60                   	pusha  
  101b28:	6a 59                	push   $0x59
  101b2a:	e8 8c 16 00 00       	call   1031bb <isr_89>
  101b2f:	e9 c0 14 00 00       	jmp    102ff4 <handler_exit>
  101b34:	8d b6 00 00 00 00    	lea    0x0(%esi),%esi
  101b3a:	8d bf 00 00 00 00    	lea    0x0(%edi),%edi

00101b40 <irq_90>:
  101b40:	e9 00 00 00 00       	jmp    101b45 <irq_handler_90>

00101b45 <irq_handler_90>:
  101b45:	6a 00                	push   $0x0
  101b47:	60                   	pusha  
  101b48:	6a 5a                	push   $0x5a
  101b4a:	e8 71 16 00 00       	call   1031c0 <isr_90>
  101b4f:	e9 a0 14 00 00       	jmp    102ff4 <handler_exit>
  101b54:	8d b6 00 00 00 00    	lea    0x0(%esi),%esi
  101b5a:	8d bf 00 00 00 00    	lea    0x0(%edi),%edi

00101b60 <irq_91>:
  101b60:	e9 00 00 00 00       	jmp    101b65 <irq_handler_91>

00101b65 <irq_handler_91>:
  101b65:	6a 00                	push   $0x0
  101b67:	60                   	pusha  
  101b68:	6a 5b                	push   $0x5b
  101b6a:	e8 56 16 00 00       	call   1031c5 <isr_91>
  101b6f:	e9 80 14 00 00       	jmp    102ff4 <handler_exit>
  101b74:	8d b6 00 00 00 00    	lea    0x0(%esi),%esi
  101b7a:	8d bf 00 00 00 00    	lea    0x0(%edi),%edi

00101b80 <irq_92>:
  101b80:	e9 00 00 00 00       	jmp    101b85 <irq_handler_92>

00101b85 <irq_handler_92>:
  101b85:	6a 00                	push   $0x0
  101b87:	60                   	pusha  
  101b88:	6a 5c                	push   $0x5c
  101b8a:	e8 3b 16 00 00       	call   1031ca <isr_92>
  101b8f:	e9 60 14 00 00       	jmp    102ff4 <handler_exit>
  101b94:	8d b6 00 00 00 00    	lea    0x0(%esi),%esi
  101b9a:	8d bf 00 00 00 00    	lea    0x0(%edi),%edi

00101ba0 <irq_93>:
  101ba0:	e9 00 00 00 00       	jmp    101ba5 <irq_handler_93>

00101ba5 <irq_handler_93>:
  101ba5:	6a 00                	push   $0x0
  101ba7:	60                   	pusha  
  101ba8:	6a 5d                	push   $0x5d
  101baa:	e8 20 16 00 00       	call   1031cf <isr_93>
  101baf:	e9 40 14 00 00       	jmp    102ff4 <handler_exit>
  101bb4:	8d b6 00 00 00 00    	lea    0x0(%esi),%esi
  101bba:	8d bf 00 00 00 00    	lea    0x0(%edi),%edi

00101bc0 <irq_94>:
  101bc0:	e9 00 00 00 00       	jmp    101bc5 <irq_handler_94>

00101bc5 <irq_handler_94>:
  101bc5:	6a 00                	push   $0x0
  101bc7:	60                   	pusha  
  101bc8:	6a 5e                	push   $0x5e
  101bca:	e8 05 16 00 00       	call   1031d4 <isr_94>
  101bcf:	e9 20 14 00 00       	jmp    102ff4 <handler_exit>
  101bd4:	8d b6 00 00 00 00    	lea    0x0(%esi),%esi
  101bda:	8d bf 00 00 00 00    	lea    0x0(%edi),%edi

00101be0 <irq_95>:
  101be0:	e9 00 00 00 00       	jmp    101be5 <irq_handler_95>

00101be5 <irq_handler_95>:
  101be5:	6a 00                	push   $0x0
  101be7:	60                   	pusha  
  101be8:	6a 5f                	push   $0x5f
  101bea:	e8 ea 15 00 00       	call   1031d9 <isr_95>
  101bef:	e9 00 14 00 00       	jmp    102ff4 <handler_exit>
  101bf4:	8d b6 00 00 00 00    	lea    0x0(%esi),%esi
  101bfa:	8d bf 00 00 00 00    	lea    0x0(%edi),%edi

00101c00 <irq_96>:
  101c00:	e9 00 00 00 00       	jmp    101c05 <irq_handler_96>

00101c05 <irq_handler_96>:
  101c05:	6a 00                	push   $0x0
  101c07:	60                   	pusha  
  101c08:	6a 60                	push   $0x60
  101c0a:	e8 cf 15 00 00       	call   1031de <isr_96>
  101c0f:	e9 e0 13 00 00       	jmp    102ff4 <handler_exit>
  101c14:	8d b6 00 00 00 00    	lea    0x0(%esi),%esi
  101c1a:	8d bf 00 00 00 00    	lea    0x0(%edi),%edi

00101c20 <irq_97>:
  101c20:	e9 00 00 00 00       	jmp    101c25 <irq_handler_97>

00101c25 <irq_handler_97>:
  101c25:	6a 00                	push   $0x0
  101c27:	60                   	pusha  
  101c28:	6a 61                	push   $0x61
  101c2a:	e8 b4 15 00 00       	call   1031e3 <isr_97>
  101c2f:	e9 c0 13 00 00       	jmp    102ff4 <handler_exit>
  101c34:	8d b6 00 00 00 00    	lea    0x0(%esi),%esi
  101c3a:	8d bf 00 00 00 00    	lea    0x0(%edi),%edi

00101c40 <irq_98>:
  101c40:	e9 00 00 00 00       	jmp    101c45 <irq_handler_98>

00101c45 <irq_handler_98>:
  101c45:	6a 00                	push   $0x0
  101c47:	60                   	pusha  
  101c48:	6a 62                	push   $0x62
  101c4a:	e8 99 15 00 00       	call   1031e8 <isr_98>
  101c4f:	e9 a0 13 00 00       	jmp    102ff4 <handler_exit>
  101c54:	8d b6 00 00 00 00    	lea    0x0(%esi),%esi
  101c5a:	8d bf 00 00 00 00    	lea    0x0(%edi),%edi

00101c60 <irq_99>:
  101c60:	e9 00 00 00 00       	jmp    101c65 <irq_handler_99>

00101c65 <irq_handler_99>:
  101c65:	6a 00                	push   $0x0
  101c67:	60                   	pusha  
  101c68:	6a 63                	push   $0x63
  101c6a:	e8 7e 15 00 00       	call   1031ed <isr_99>
  101c6f:	e9 80 13 00 00       	jmp    102ff4 <handler_exit>
  101c74:	8d b6 00 00 00 00    	lea    0x0(%esi),%esi
  101c7a:	8d bf 00 00 00 00    	lea    0x0(%edi),%edi

00101c80 <irq_100>:
  101c80:	e9 00 00 00 00       	jmp    101c85 <irq_handler_100>

00101c85 <irq_handler_100>:
  101c85:	6a 00                	push   $0x0
  101c87:	60                   	pusha  
  101c88:	6a 64                	push   $0x64
  101c8a:	e8 63 15 00 00       	call   1031f2 <isr_100>
  101c8f:	e9 60 13 00 00       	jmp    102ff4 <handler_exit>
  101c94:	8d b6 00 00 00 00    	lea    0x0(%esi),%esi
  101c9a:	8d bf 00 00 00 00    	lea    0x0(%edi),%edi

00101ca0 <irq_101>:
  101ca0:	e9 00 00 00 00       	jmp    101ca5 <irq_handler_101>

00101ca5 <irq_handler_101>:
  101ca5:	6a 00                	push   $0x0
  101ca7:	60                   	pusha  
  101ca8:	6a 65                	push   $0x65
  101caa:	e8 48 15 00 00       	call   1031f7 <isr_101>
  101caf:	e9 40 13 00 00       	jmp    102ff4 <handler_exit>
  101cb4:	8d b6 00 00 00 00    	lea    0x0(%esi),%esi
  101cba:	8d bf 00 00 00 00    	lea    0x0(%edi),%edi

00101cc0 <irq_102>:
  101cc0:	e9 00 00 00 00       	jmp    101cc5 <irq_handler_102>

00101cc5 <irq_handler_102>:
  101cc5:	6a 00                	push   $0x0
  101cc7:	60                   	pusha  
  101cc8:	6a 66                	push   $0x66
  101cca:	e8 2d 15 00 00       	call   1031fc <isr_102>
  101ccf:	e9 20 13 00 00       	jmp    102ff4 <handler_exit>
  101cd4:	8d b6 00 00 00 00    	lea    0x0(%esi),%esi
  101cda:	8d bf 00 00 00 00    	lea    0x0(%edi),%edi

00101ce0 <irq_103>:
  101ce0:	e9 00 00 00 00       	jmp    101ce5 <irq_handler_103>

00101ce5 <irq_handler_103>:
  101ce5:	6a 00                	push   $0x0
  101ce7:	60                   	pusha  
  101ce8:	6a 67                	push   $0x67
  101cea:	e8 12 15 00 00       	call   103201 <isr_103>
  101cef:	e9 00 13 00 00       	jmp    102ff4 <handler_exit>
  101cf4:	8d b6 00 00 00 00    	lea    0x0(%esi),%esi
  101cfa:	8d bf 00 00 00 00    	lea    0x0(%edi),%edi

00101d00 <irq_104>:
  101d00:	e9 00 00 00 00       	jmp    101d05 <irq_handler_104>

00101d05 <irq_handler_104>:
  101d05:	6a 00                	push   $0x0
  101d07:	60                   	pusha  
  101d08:	6a 68                	push   $0x68
  101d0a:	e8 f7 14 00 00       	call   103206 <isr_104>
  101d0f:	e9 e0 12 00 00       	jmp    102ff4 <handler_exit>
  101d14:	8d b6 00 00 00 00    	lea    0x0(%esi),%esi
  101d1a:	8d bf 00 00 00 00    	lea    0x0(%edi),%edi

00101d20 <irq_105>:
  101d20:	e9 00 00 00 00       	jmp    101d25 <irq_handler_105>

00101d25 <irq_handler_105>:
  101d25:	6a 00                	push   $0x0
  101d27:	60                   	pusha  
  101d28:	6a 69                	push   $0x69
  101d2a:	e8 dc 14 00 00       	call   10320b <isr_105>
  101d2f:	e9 c0 12 00 00       	jmp    102ff4 <handler_exit>
  101d34:	8d b6 00 00 00 00    	lea    0x0(%esi),%esi
  101d3a:	8d bf 00 00 00 00    	lea    0x0(%edi),%edi

00101d40 <irq_106>:
  101d40:	e9 00 00 00 00       	jmp    101d45 <irq_handler_106>

00101d45 <irq_handler_106>:
  101d45:	6a 00                	push   $0x0
  101d47:	60                   	pusha  
  101d48:	6a 6a                	push   $0x6a
  101d4a:	e8 c1 14 00 00       	call   103210 <isr_106>
  101d4f:	e9 a0 12 00 00       	jmp    102ff4 <handler_exit>
  101d54:	8d b6 00 00 00 00    	lea    0x0(%esi),%esi
  101d5a:	8d bf 00 00 00 00    	lea    0x0(%edi),%edi

00101d60 <irq_107>:
  101d60:	e9 00 00 00 00       	jmp    101d65 <irq_handler_107>

00101d65 <irq_handler_107>:
  101d65:	6a 00                	push   $0x0
  101d67:	60                   	pusha  
  101d68:	6a 6b                	push   $0x6b
  101d6a:	e8 a6 14 00 00       	call   103215 <isr_107>
  101d6f:	e9 80 12 00 00       	jmp    102ff4 <handler_exit>
  101d74:	8d b6 00 00 00 00    	lea    0x0(%esi),%esi
  101d7a:	8d bf 00 00 00 00    	lea    0x0(%edi),%edi

00101d80 <irq_108>:
  101d80:	e9 00 00 00 00       	jmp    101d85 <irq_handler_108>

00101d85 <irq_handler_108>:
  101d85:	6a 00                	push   $0x0
  101d87:	60                   	pusha  
  101d88:	6a 6c                	push   $0x6c
  101d8a:	e8 8b 14 00 00       	call   10321a <isr_108>
  101d8f:	e9 60 12 00 00       	jmp    102ff4 <handler_exit>
  101d94:	8d b6 00 00 00 00    	lea    0x0(%esi),%esi
  101d9a:	8d bf 00 00 00 00    	lea    0x0(%edi),%edi

00101da0 <irq_109>:
  101da0:	e9 00 00 00 00       	jmp    101da5 <irq_handler_109>

00101da5 <irq_handler_109>:
  101da5:	6a 00                	push   $0x0
  101da7:	60                   	pusha  
  101da8:	6a 6d                	push   $0x6d
  101daa:	e8 70 14 00 00       	call   10321f <isr_109>
  101daf:	e9 40 12 00 00       	jmp    102ff4 <handler_exit>
  101db4:	8d b6 00 00 00 00    	lea    0x0(%esi),%esi
  101dba:	8d bf 00 00 00 00    	lea    0x0(%edi),%edi

00101dc0 <irq_110>:
  101dc0:	e9 00 00 00 00       	jmp    101dc5 <irq_handler_110>

00101dc5 <irq_handler_110>:
  101dc5:	6a 00                	push   $0x0
  101dc7:	60                   	pusha  
  101dc8:	6a 6e                	push   $0x6e
  101dca:	e8 55 14 00 00       	call   103224 <isr_110>
  101dcf:	e9 20 12 00 00       	jmp    102ff4 <handler_exit>
  101dd4:	8d b6 00 00 00 00    	lea    0x0(%esi),%esi
  101dda:	8d bf 00 00 00 00    	lea    0x0(%edi),%edi

00101de0 <irq_111>:
  101de0:	e9 00 00 00 00       	jmp    101de5 <irq_handler_111>

00101de5 <irq_handler_111>:
  101de5:	6a 00                	push   $0x0
  101de7:	60                   	pusha  
  101de8:	6a 6f                	push   $0x6f
  101dea:	e8 3a 14 00 00       	call   103229 <isr_111>
  101def:	e9 00 12 00 00       	jmp    102ff4 <handler_exit>
  101df4:	8d b6 00 00 00 00    	lea    0x0(%esi),%esi
  101dfa:	8d bf 00 00 00 00    	lea    0x0(%edi),%edi

00101e00 <irq_112>:
  101e00:	e9 00 00 00 00       	jmp    101e05 <irq_handler_112>

00101e05 <irq_handler_112>:
  101e05:	6a 00                	push   $0x0
  101e07:	60                   	pusha  
  101e08:	6a 70                	push   $0x70
  101e0a:	e8 1f 14 00 00       	call   10322e <isr_112>
  101e0f:	e9 e0 11 00 00       	jmp    102ff4 <handler_exit>
  101e14:	8d b6 00 00 00 00    	lea    0x0(%esi),%esi
  101e1a:	8d bf 00 00 00 00    	lea    0x0(%edi),%edi

00101e20 <irq_113>:
  101e20:	e9 00 00 00 00       	jmp    101e25 <irq_handler_113>

00101e25 <irq_handler_113>:
  101e25:	6a 00                	push   $0x0
  101e27:	60                   	pusha  
  101e28:	6a 71                	push   $0x71
  101e2a:	e8 04 14 00 00       	call   103233 <isr_113>
  101e2f:	e9 c0 11 00 00       	jmp    102ff4 <handler_exit>
  101e34:	8d b6 00 00 00 00    	lea    0x0(%esi),%esi
  101e3a:	8d bf 00 00 00 00    	lea    0x0(%edi),%edi

00101e40 <irq_114>:
  101e40:	e9 00 00 00 00       	jmp    101e45 <irq_handler_114>

00101e45 <irq_handler_114>:
  101e45:	6a 00                	push   $0x0
  101e47:	60                   	pusha  
  101e48:	6a 72                	push   $0x72
  101e4a:	e8 e9 13 00 00       	call   103238 <isr_114>
  101e4f:	e9 a0 11 00 00       	jmp    102ff4 <handler_exit>
  101e54:	8d b6 00 00 00 00    	lea    0x0(%esi),%esi
  101e5a:	8d bf 00 00 00 00    	lea    0x0(%edi),%edi

00101e60 <irq_115>:
  101e60:	e9 00 00 00 00       	jmp    101e65 <irq_handler_115>

00101e65 <irq_handler_115>:
  101e65:	6a 00                	push   $0x0
  101e67:	60                   	pusha  
  101e68:	6a 73                	push   $0x73
  101e6a:	e8 ce 13 00 00       	call   10323d <isr_115>
  101e6f:	e9 80 11 00 00       	jmp    102ff4 <handler_exit>
  101e74:	8d b6 00 00 00 00    	lea    0x0(%esi),%esi
  101e7a:	8d bf 00 00 00 00    	lea    0x0(%edi),%edi

00101e80 <irq_116>:
  101e80:	e9 00 00 00 00       	jmp    101e85 <irq_handler_116>

00101e85 <irq_handler_116>:
  101e85:	6a 00                	push   $0x0
  101e87:	60                   	pusha  
  101e88:	6a 74                	push   $0x74
  101e8a:	e8 b3 13 00 00       	call   103242 <isr_116>
  101e8f:	e9 60 11 00 00       	jmp    102ff4 <handler_exit>
  101e94:	8d b6 00 00 00 00    	lea    0x0(%esi),%esi
  101e9a:	8d bf 00 00 00 00    	lea    0x0(%edi),%edi

00101ea0 <irq_117>:
  101ea0:	e9 00 00 00 00       	jmp    101ea5 <irq_handler_117>

00101ea5 <irq_handler_117>:
  101ea5:	6a 00                	push   $0x0
  101ea7:	60                   	pusha  
  101ea8:	6a 75                	push   $0x75
  101eaa:	e8 98 13 00 00       	call   103247 <isr_117>
  101eaf:	e9 40 11 00 00       	jmp    102ff4 <handler_exit>
  101eb4:	8d b6 00 00 00 00    	lea    0x0(%esi),%esi
  101eba:	8d bf 00 00 00 00    	lea    0x0(%edi),%edi

00101ec0 <irq_118>:
  101ec0:	e9 00 00 00 00       	jmp    101ec5 <irq_handler_118>

00101ec5 <irq_handler_118>:
  101ec5:	6a 00                	push   $0x0
  101ec7:	60                   	pusha  
  101ec8:	6a 76                	push   $0x76
  101eca:	e8 7d 13 00 00       	call   10324c <isr_118>
  101ecf:	e9 20 11 00 00       	jmp    102ff4 <handler_exit>
  101ed4:	8d b6 00 00 00 00    	lea    0x0(%esi),%esi
  101eda:	8d bf 00 00 00 00    	lea    0x0(%edi),%edi

00101ee0 <irq_119>:
  101ee0:	e9 00 00 00 00       	jmp    101ee5 <irq_handler_119>

00101ee5 <irq_handler_119>:
  101ee5:	6a 00                	push   $0x0
  101ee7:	60                   	pusha  
  101ee8:	6a 77                	push   $0x77
  101eea:	e8 62 13 00 00       	call   103251 <isr_119>
  101eef:	e9 00 11 00 00       	jmp    102ff4 <handler_exit>
  101ef4:	8d b6 00 00 00 00    	lea    0x0(%esi),%esi
  101efa:	8d bf 00 00 00 00    	lea    0x0(%edi),%edi

00101f00 <irq_120>:
  101f00:	e9 00 00 00 00       	jmp    101f05 <irq_handler_120>

00101f05 <irq_handler_120>:
  101f05:	6a 00                	push   $0x0
  101f07:	60                   	pusha  
  101f08:	6a 78                	push   $0x78
  101f0a:	e8 47 13 00 00       	call   103256 <isr_120>
  101f0f:	e9 e0 10 00 00       	jmp    102ff4 <handler_exit>
  101f14:	8d b6 00 00 00 00    	lea    0x0(%esi),%esi
  101f1a:	8d bf 00 00 00 00    	lea    0x0(%edi),%edi

00101f20 <irq_121>:
  101f20:	e9 00 00 00 00       	jmp    101f25 <irq_handler_121>

00101f25 <irq_handler_121>:
  101f25:	6a 00                	push   $0x0
  101f27:	60                   	pusha  
  101f28:	6a 79                	push   $0x79
  101f2a:	e8 2c 13 00 00       	call   10325b <isr_121>
  101f2f:	e9 c0 10 00 00       	jmp    102ff4 <handler_exit>
  101f34:	8d b6 00 00 00 00    	lea    0x0(%esi),%esi
  101f3a:	8d bf 00 00 00 00    	lea    0x0(%edi),%edi

00101f40 <irq_122>:
  101f40:	e9 00 00 00 00       	jmp    101f45 <irq_handler_122>

00101f45 <irq_handler_122>:
  101f45:	6a 00                	push   $0x0
  101f47:	60                   	pusha  
  101f48:	6a 7a                	push   $0x7a
  101f4a:	e8 11 13 00 00       	call   103260 <isr_122>
  101f4f:	e9 a0 10 00 00       	jmp    102ff4 <handler_exit>
  101f54:	8d b6 00 00 00 00    	lea    0x0(%esi),%esi
  101f5a:	8d bf 00 00 00 00    	lea    0x0(%edi),%edi

00101f60 <irq_123>:
  101f60:	e9 00 00 00 00       	jmp    101f65 <irq_handler_123>

00101f65 <irq_handler_123>:
  101f65:	6a 00                	push   $0x0
  101f67:	60                   	pusha  
  101f68:	6a 7b                	push   $0x7b
  101f6a:	e8 f6 12 00 00       	call   103265 <isr_123>
  101f6f:	e9 80 10 00 00       	jmp    102ff4 <handler_exit>
  101f74:	8d b6 00 00 00 00    	lea    0x0(%esi),%esi
  101f7a:	8d bf 00 00 00 00    	lea    0x0(%edi),%edi

00101f80 <irq_124>:
  101f80:	e9 00 00 00 00       	jmp    101f85 <irq_handler_124>

00101f85 <irq_handler_124>:
  101f85:	6a 00                	push   $0x0
  101f87:	60                   	pusha  
  101f88:	6a 7c                	push   $0x7c
  101f8a:	e8 db 12 00 00       	call   10326a <isr_124>
  101f8f:	e9 60 10 00 00       	jmp    102ff4 <handler_exit>
  101f94:	8d b6 00 00 00 00    	lea    0x0(%esi),%esi
  101f9a:	8d bf 00 00 00 00    	lea    0x0(%edi),%edi

00101fa0 <irq_125>:
  101fa0:	e9 00 00 00 00       	jmp    101fa5 <irq_handler_125>

00101fa5 <irq_handler_125>:
  101fa5:	6a 00                	push   $0x0
  101fa7:	60                   	pusha  
  101fa8:	6a 7d                	push   $0x7d
  101faa:	e8 c0 12 00 00       	call   10326f <isr_125>
  101faf:	e9 40 10 00 00       	jmp    102ff4 <handler_exit>
  101fb4:	8d b6 00 00 00 00    	lea    0x0(%esi),%esi
  101fba:	8d bf 00 00 00 00    	lea    0x0(%edi),%edi

00101fc0 <irq_126>:
  101fc0:	e9 00 00 00 00       	jmp    101fc5 <irq_handler_126>

00101fc5 <irq_handler_126>:
  101fc5:	6a 00                	push   $0x0
  101fc7:	60                   	pusha  
  101fc8:	6a 7e                	push   $0x7e
  101fca:	e8 a5 12 00 00       	call   103274 <isr_126>
  101fcf:	e9 20 10 00 00       	jmp    102ff4 <handler_exit>
  101fd4:	8d b6 00 00 00 00    	lea    0x0(%esi),%esi
  101fda:	8d bf 00 00 00 00    	lea    0x0(%edi),%edi

00101fe0 <irq_127>:
  101fe0:	e9 00 00 00 00       	jmp    101fe5 <irq_handler_127>

00101fe5 <irq_handler_127>:
  101fe5:	6a 00                	push   $0x0
  101fe7:	60                   	pusha  
  101fe8:	6a 7f                	push   $0x7f
  101fea:	e8 8a 12 00 00       	call   103279 <isr_127>
  101fef:	e9 00 10 00 00       	jmp    102ff4 <handler_exit>
  101ff4:	8d b6 00 00 00 00    	lea    0x0(%esi),%esi
  101ffa:	8d bf 00 00 00 00    	lea    0x0(%edi),%edi

00102000 <irq_128>:
  102000:	e9 00 00 00 00       	jmp    102005 <irq_handler_128>

00102005 <irq_handler_128>:
  102005:	6a 00                	push   $0x0
  102007:	60                   	pusha  
  102008:	68 80 00 00 00       	push   $0x80
  10200d:	e8 6c 12 00 00       	call   10327e <isr_128>
  102012:	e9 dd 0f 00 00       	jmp    102ff4 <handler_exit>
  102017:	89 f6                	mov    %esi,%esi
  102019:	8d bc 27 00 00 00 00 	lea    0x0(%edi,%eiz,1),%edi

00102020 <irq_129>:
  102020:	e9 00 00 00 00       	jmp    102025 <irq_handler_129>

00102025 <irq_handler_129>:
  102025:	6a 00                	push   $0x0
  102027:	60                   	pusha  
  102028:	68 81 00 00 00       	push   $0x81
  10202d:	e8 51 12 00 00       	call   103283 <isr_129>
  102032:	e9 bd 0f 00 00       	jmp    102ff4 <handler_exit>
  102037:	89 f6                	mov    %esi,%esi
  102039:	8d bc 27 00 00 00 00 	lea    0x0(%edi,%eiz,1),%edi

00102040 <irq_130>:
  102040:	e9 00 00 00 00       	jmp    102045 <irq_handler_130>

00102045 <irq_handler_130>:
  102045:	6a 00                	push   $0x0
  102047:	60                   	pusha  
  102048:	68 82 00 00 00       	push   $0x82
  10204d:	e8 36 12 00 00       	call   103288 <isr_130>
  102052:	e9 9d 0f 00 00       	jmp    102ff4 <handler_exit>
  102057:	89 f6                	mov    %esi,%esi
  102059:	8d bc 27 00 00 00 00 	lea    0x0(%edi,%eiz,1),%edi

00102060 <irq_131>:
  102060:	e9 00 00 00 00       	jmp    102065 <irq_handler_131>

00102065 <irq_handler_131>:
  102065:	6a 00                	push   $0x0
  102067:	60                   	pusha  
  102068:	68 83 00 00 00       	push   $0x83
  10206d:	e8 1b 12 00 00       	call   10328d <isr_131>
  102072:	e9 7d 0f 00 00       	jmp    102ff4 <handler_exit>
  102077:	89 f6                	mov    %esi,%esi
  102079:	8d bc 27 00 00 00 00 	lea    0x0(%edi,%eiz,1),%edi

00102080 <irq_132>:
  102080:	e9 00 00 00 00       	jmp    102085 <irq_handler_132>

00102085 <irq_handler_132>:
  102085:	6a 00                	push   $0x0
  102087:	60                   	pusha  
  102088:	68 84 00 00 00       	push   $0x84
  10208d:	e8 00 12 00 00       	call   103292 <isr_132>
  102092:	e9 5d 0f 00 00       	jmp    102ff4 <handler_exit>
  102097:	89 f6                	mov    %esi,%esi
  102099:	8d bc 27 00 00 00 00 	lea    0x0(%edi,%eiz,1),%edi

001020a0 <irq_133>:
  1020a0:	e9 00 00 00 00       	jmp    1020a5 <irq_handler_133>

001020a5 <irq_handler_133>:
  1020a5:	6a 00                	push   $0x0
  1020a7:	60                   	pusha  
  1020a8:	68 85 00 00 00       	push   $0x85
  1020ad:	e8 e5 11 00 00       	call   103297 <isr_133>
  1020b2:	e9 3d 0f 00 00       	jmp    102ff4 <handler_exit>
  1020b7:	89 f6                	mov    %esi,%esi
  1020b9:	8d bc 27 00 00 00 00 	lea    0x0(%edi,%eiz,1),%edi

001020c0 <irq_134>:
  1020c0:	e9 00 00 00 00       	jmp    1020c5 <irq_handler_134>

001020c5 <irq_handler_134>:
  1020c5:	6a 00                	push   $0x0
  1020c7:	60                   	pusha  
  1020c8:	68 86 00 00 00       	push   $0x86
  1020cd:	e8 ca 11 00 00       	call   10329c <isr_134>
  1020d2:	e9 1d 0f 00 00       	jmp    102ff4 <handler_exit>
  1020d7:	89 f6                	mov    %esi,%esi
  1020d9:	8d bc 27 00 00 00 00 	lea    0x0(%edi,%eiz,1),%edi

001020e0 <irq_135>:
  1020e0:	e9 00 00 00 00       	jmp    1020e5 <irq_handler_135>

001020e5 <irq_handler_135>:
  1020e5:	6a 00                	push   $0x0
  1020e7:	60                   	pusha  
  1020e8:	68 87 00 00 00       	push   $0x87
  1020ed:	e8 af 11 00 00       	call   1032a1 <isr_135>
  1020f2:	e9 fd 0e 00 00       	jmp    102ff4 <handler_exit>
  1020f7:	89 f6                	mov    %esi,%esi
  1020f9:	8d bc 27 00 00 00 00 	lea    0x0(%edi,%eiz,1),%edi

00102100 <irq_136>:
  102100:	e9 00 00 00 00       	jmp    102105 <irq_handler_136>

00102105 <irq_handler_136>:
  102105:	6a 00                	push   $0x0
  102107:	60                   	pusha  
  102108:	68 88 00 00 00       	push   $0x88
  10210d:	e8 94 11 00 00       	call   1032a6 <isr_136>
  102112:	e9 dd 0e 00 00       	jmp    102ff4 <handler_exit>
  102117:	89 f6                	mov    %esi,%esi
  102119:	8d bc 27 00 00 00 00 	lea    0x0(%edi,%eiz,1),%edi

00102120 <irq_137>:
  102120:	e9 00 00 00 00       	jmp    102125 <irq_handler_137>

00102125 <irq_handler_137>:
  102125:	6a 00                	push   $0x0
  102127:	60                   	pusha  
  102128:	68 89 00 00 00       	push   $0x89
  10212d:	e8 79 11 00 00       	call   1032ab <isr_137>
  102132:	e9 bd 0e 00 00       	jmp    102ff4 <handler_exit>
  102137:	89 f6                	mov    %esi,%esi
  102139:	8d bc 27 00 00 00 00 	lea    0x0(%edi,%eiz,1),%edi

00102140 <irq_138>:
  102140:	e9 00 00 00 00       	jmp    102145 <irq_handler_138>

00102145 <irq_handler_138>:
  102145:	6a 00                	push   $0x0
  102147:	60                   	pusha  
  102148:	68 8a 00 00 00       	push   $0x8a
  10214d:	e8 5e 11 00 00       	call   1032b0 <isr_138>
  102152:	e9 9d 0e 00 00       	jmp    102ff4 <handler_exit>
  102157:	89 f6                	mov    %esi,%esi
  102159:	8d bc 27 00 00 00 00 	lea    0x0(%edi,%eiz,1),%edi

00102160 <irq_139>:
  102160:	e9 00 00 00 00       	jmp    102165 <irq_handler_139>

00102165 <irq_handler_139>:
  102165:	6a 00                	push   $0x0
  102167:	60                   	pusha  
  102168:	68 8b 00 00 00       	push   $0x8b
  10216d:	e8 43 11 00 00       	call   1032b5 <isr_139>
  102172:	e9 7d 0e 00 00       	jmp    102ff4 <handler_exit>
  102177:	89 f6                	mov    %esi,%esi
  102179:	8d bc 27 00 00 00 00 	lea    0x0(%edi,%eiz,1),%edi

00102180 <irq_140>:
  102180:	e9 00 00 00 00       	jmp    102185 <irq_handler_140>

00102185 <irq_handler_140>:
  102185:	6a 00                	push   $0x0
  102187:	60                   	pusha  
  102188:	68 8c 00 00 00       	push   $0x8c
  10218d:	e8 28 11 00 00       	call   1032ba <isr_140>
  102192:	e9 5d 0e 00 00       	jmp    102ff4 <handler_exit>
  102197:	89 f6                	mov    %esi,%esi
  102199:	8d bc 27 00 00 00 00 	lea    0x0(%edi,%eiz,1),%edi

001021a0 <irq_141>:
  1021a0:	e9 00 00 00 00       	jmp    1021a5 <irq_handler_141>

001021a5 <irq_handler_141>:
  1021a5:	6a 00                	push   $0x0
  1021a7:	60                   	pusha  
  1021a8:	68 8d 00 00 00       	push   $0x8d
  1021ad:	e8 0d 11 00 00       	call   1032bf <isr_141>
  1021b2:	e9 3d 0e 00 00       	jmp    102ff4 <handler_exit>
  1021b7:	89 f6                	mov    %esi,%esi
  1021b9:	8d bc 27 00 00 00 00 	lea    0x0(%edi,%eiz,1),%edi

001021c0 <irq_142>:
  1021c0:	e9 00 00 00 00       	jmp    1021c5 <irq_handler_142>

001021c5 <irq_handler_142>:
  1021c5:	6a 00                	push   $0x0
  1021c7:	60                   	pusha  
  1021c8:	68 8e 00 00 00       	push   $0x8e
  1021cd:	e8 f2 10 00 00       	call   1032c4 <isr_142>
  1021d2:	e9 1d 0e 00 00       	jmp    102ff4 <handler_exit>
  1021d7:	89 f6                	mov    %esi,%esi
  1021d9:	8d bc 27 00 00 00 00 	lea    0x0(%edi,%eiz,1),%edi

001021e0 <irq_143>:
  1021e0:	e9 00 00 00 00       	jmp    1021e5 <irq_handler_143>

001021e5 <irq_handler_143>:
  1021e5:	6a 00                	push   $0x0
  1021e7:	60                   	pusha  
  1021e8:	68 8f 00 00 00       	push   $0x8f
  1021ed:	e8 d7 10 00 00       	call   1032c9 <isr_143>
  1021f2:	e9 fd 0d 00 00       	jmp    102ff4 <handler_exit>
  1021f7:	89 f6                	mov    %esi,%esi
  1021f9:	8d bc 27 00 00 00 00 	lea    0x0(%edi,%eiz,1),%edi

00102200 <irq_144>:
  102200:	e9 00 00 00 00       	jmp    102205 <irq_handler_144>

00102205 <irq_handler_144>:
  102205:	6a 00                	push   $0x0
  102207:	60                   	pusha  
  102208:	68 90 00 00 00       	push   $0x90
  10220d:	e8 bc 10 00 00       	call   1032ce <isr_144>
  102212:	e9 dd 0d 00 00       	jmp    102ff4 <handler_exit>
  102217:	89 f6                	mov    %esi,%esi
  102219:	8d bc 27 00 00 00 00 	lea    0x0(%edi,%eiz,1),%edi

00102220 <irq_145>:
  102220:	e9 00 00 00 00       	jmp    102225 <irq_handler_145>

00102225 <irq_handler_145>:
  102225:	6a 00                	push   $0x0
  102227:	60                   	pusha  
  102228:	68 91 00 00 00       	push   $0x91
  10222d:	e8 a1 10 00 00       	call   1032d3 <isr_145>
  102232:	e9 bd 0d 00 00       	jmp    102ff4 <handler_exit>
  102237:	89 f6                	mov    %esi,%esi
  102239:	8d bc 27 00 00 00 00 	lea    0x0(%edi,%eiz,1),%edi

00102240 <irq_146>:
  102240:	e9 00 00 00 00       	jmp    102245 <irq_handler_146>

00102245 <irq_handler_146>:
  102245:	6a 00                	push   $0x0
  102247:	60                   	pusha  
  102248:	68 92 00 00 00       	push   $0x92
  10224d:	e8 86 10 00 00       	call   1032d8 <isr_146>
  102252:	e9 9d 0d 00 00       	jmp    102ff4 <handler_exit>
  102257:	89 f6                	mov    %esi,%esi
  102259:	8d bc 27 00 00 00 00 	lea    0x0(%edi,%eiz,1),%edi

00102260 <irq_147>:
  102260:	e9 00 00 00 00       	jmp    102265 <irq_handler_147>

00102265 <irq_handler_147>:
  102265:	6a 00                	push   $0x0
  102267:	60                   	pusha  
  102268:	68 93 00 00 00       	push   $0x93
  10226d:	e8 6b 10 00 00       	call   1032dd <isr_147>
  102272:	e9 7d 0d 00 00       	jmp    102ff4 <handler_exit>
  102277:	89 f6                	mov    %esi,%esi
  102279:	8d bc 27 00 00 00 00 	lea    0x0(%edi,%eiz,1),%edi

00102280 <irq_148>:
  102280:	e9 00 00 00 00       	jmp    102285 <irq_handler_148>

00102285 <irq_handler_148>:
  102285:	6a 00                	push   $0x0
  102287:	60                   	pusha  
  102288:	68 94 00 00 00       	push   $0x94
  10228d:	e8 50 10 00 00       	call   1032e2 <isr_148>
  102292:	e9 5d 0d 00 00       	jmp    102ff4 <handler_exit>
  102297:	89 f6                	mov    %esi,%esi
  102299:	8d bc 27 00 00 00 00 	lea    0x0(%edi,%eiz,1),%edi

001022a0 <irq_149>:
  1022a0:	e9 00 00 00 00       	jmp    1022a5 <irq_handler_149>

001022a5 <irq_handler_149>:
  1022a5:	6a 00                	push   $0x0
  1022a7:	60                   	pusha  
  1022a8:	68 95 00 00 00       	push   $0x95
  1022ad:	e8 35 10 00 00       	call   1032e7 <isr_149>
  1022b2:	e9 3d 0d 00 00       	jmp    102ff4 <handler_exit>
  1022b7:	89 f6                	mov    %esi,%esi
  1022b9:	8d bc 27 00 00 00 00 	lea    0x0(%edi,%eiz,1),%edi

001022c0 <irq_150>:
  1022c0:	e9 00 00 00 00       	jmp    1022c5 <irq_handler_150>

001022c5 <irq_handler_150>:
  1022c5:	6a 00                	push   $0x0
  1022c7:	60                   	pusha  
  1022c8:	68 96 00 00 00       	push   $0x96
  1022cd:	e8 1a 10 00 00       	call   1032ec <isr_150>
  1022d2:	e9 1d 0d 00 00       	jmp    102ff4 <handler_exit>
  1022d7:	89 f6                	mov    %esi,%esi
  1022d9:	8d bc 27 00 00 00 00 	lea    0x0(%edi,%eiz,1),%edi

001022e0 <irq_151>:
  1022e0:	e9 00 00 00 00       	jmp    1022e5 <irq_handler_151>

001022e5 <irq_handler_151>:
  1022e5:	6a 00                	push   $0x0
  1022e7:	60                   	pusha  
  1022e8:	68 97 00 00 00       	push   $0x97
  1022ed:	e8 ff 0f 00 00       	call   1032f1 <isr_151>
  1022f2:	e9 fd 0c 00 00       	jmp    102ff4 <handler_exit>
  1022f7:	89 f6                	mov    %esi,%esi
  1022f9:	8d bc 27 00 00 00 00 	lea    0x0(%edi,%eiz,1),%edi

00102300 <irq_152>:
  102300:	e9 00 00 00 00       	jmp    102305 <irq_handler_152>

00102305 <irq_handler_152>:
  102305:	6a 00                	push   $0x0
  102307:	60                   	pusha  
  102308:	68 98 00 00 00       	push   $0x98
  10230d:	e8 e4 0f 00 00       	call   1032f6 <isr_152>
  102312:	e9 dd 0c 00 00       	jmp    102ff4 <handler_exit>
  102317:	89 f6                	mov    %esi,%esi
  102319:	8d bc 27 00 00 00 00 	lea    0x0(%edi,%eiz,1),%edi

00102320 <irq_153>:
  102320:	e9 00 00 00 00       	jmp    102325 <irq_handler_153>

00102325 <irq_handler_153>:
  102325:	6a 00                	push   $0x0
  102327:	60                   	pusha  
  102328:	68 99 00 00 00       	push   $0x99
  10232d:	e8 c9 0f 00 00       	call   1032fb <isr_153>
  102332:	e9 bd 0c 00 00       	jmp    102ff4 <handler_exit>
  102337:	89 f6                	mov    %esi,%esi
  102339:	8d bc 27 00 00 00 00 	lea    0x0(%edi,%eiz,1),%edi

00102340 <irq_154>:
  102340:	e9 00 00 00 00       	jmp    102345 <irq_handler_154>

00102345 <irq_handler_154>:
  102345:	6a 00                	push   $0x0
  102347:	60                   	pusha  
  102348:	68 9a 00 00 00       	push   $0x9a
  10234d:	e8 ae 0f 00 00       	call   103300 <isr_154>
  102352:	e9 9d 0c 00 00       	jmp    102ff4 <handler_exit>
  102357:	89 f6                	mov    %esi,%esi
  102359:	8d bc 27 00 00 00 00 	lea    0x0(%edi,%eiz,1),%edi

00102360 <irq_155>:
  102360:	e9 00 00 00 00       	jmp    102365 <irq_handler_155>

00102365 <irq_handler_155>:
  102365:	6a 00                	push   $0x0
  102367:	60                   	pusha  
  102368:	68 9b 00 00 00       	push   $0x9b
  10236d:	e8 93 0f 00 00       	call   103305 <isr_155>
  102372:	e9 7d 0c 00 00       	jmp    102ff4 <handler_exit>
  102377:	89 f6                	mov    %esi,%esi
  102379:	8d bc 27 00 00 00 00 	lea    0x0(%edi,%eiz,1),%edi

00102380 <irq_156>:
  102380:	e9 00 00 00 00       	jmp    102385 <irq_handler_156>

00102385 <irq_handler_156>:
  102385:	6a 00                	push   $0x0
  102387:	60                   	pusha  
  102388:	68 9c 00 00 00       	push   $0x9c
  10238d:	e8 78 0f 00 00       	call   10330a <isr_156>
  102392:	e9 5d 0c 00 00       	jmp    102ff4 <handler_exit>
  102397:	89 f6                	mov    %esi,%esi
  102399:	8d bc 27 00 00 00 00 	lea    0x0(%edi,%eiz,1),%edi

001023a0 <irq_157>:
  1023a0:	e9 00 00 00 00       	jmp    1023a5 <irq_handler_157>

001023a5 <irq_handler_157>:
  1023a5:	6a 00                	push   $0x0
  1023a7:	60                   	pusha  
  1023a8:	68 9d 00 00 00       	push   $0x9d
  1023ad:	e8 5d 0f 00 00       	call   10330f <isr_157>
  1023b2:	e9 3d 0c 00 00       	jmp    102ff4 <handler_exit>
  1023b7:	89 f6                	mov    %esi,%esi
  1023b9:	8d bc 27 00 00 00 00 	lea    0x0(%edi,%eiz,1),%edi

001023c0 <irq_158>:
  1023c0:	e9 00 00 00 00       	jmp    1023c5 <irq_handler_158>

001023c5 <irq_handler_158>:
  1023c5:	6a 00                	push   $0x0
  1023c7:	60                   	pusha  
  1023c8:	68 9e 00 00 00       	push   $0x9e
  1023cd:	e8 42 0f 00 00       	call   103314 <isr_158>
  1023d2:	e9 1d 0c 00 00       	jmp    102ff4 <handler_exit>
  1023d7:	89 f6                	mov    %esi,%esi
  1023d9:	8d bc 27 00 00 00 00 	lea    0x0(%edi,%eiz,1),%edi

001023e0 <irq_159>:
  1023e0:	e9 00 00 00 00       	jmp    1023e5 <irq_handler_159>

001023e5 <irq_handler_159>:
  1023e5:	6a 00                	push   $0x0
  1023e7:	60                   	pusha  
  1023e8:	68 9f 00 00 00       	push   $0x9f
  1023ed:	e8 27 0f 00 00       	call   103319 <isr_159>
  1023f2:	e9 fd 0b 00 00       	jmp    102ff4 <handler_exit>
  1023f7:	89 f6                	mov    %esi,%esi
  1023f9:	8d bc 27 00 00 00 00 	lea    0x0(%edi,%eiz,1),%edi

00102400 <irq_160>:
  102400:	e9 00 00 00 00       	jmp    102405 <irq_handler_160>

00102405 <irq_handler_160>:
  102405:	6a 00                	push   $0x0
  102407:	60                   	pusha  
  102408:	68 a0 00 00 00       	push   $0xa0
  10240d:	e8 0c 0f 00 00       	call   10331e <isr_160>
  102412:	e9 dd 0b 00 00       	jmp    102ff4 <handler_exit>
  102417:	89 f6                	mov    %esi,%esi
  102419:	8d bc 27 00 00 00 00 	lea    0x0(%edi,%eiz,1),%edi

00102420 <irq_161>:
  102420:	e9 00 00 00 00       	jmp    102425 <irq_handler_161>

00102425 <irq_handler_161>:
  102425:	6a 00                	push   $0x0
  102427:	60                   	pusha  
  102428:	68 a1 00 00 00       	push   $0xa1
  10242d:	e8 f1 0e 00 00       	call   103323 <isr_161>
  102432:	e9 bd 0b 00 00       	jmp    102ff4 <handler_exit>
  102437:	89 f6                	mov    %esi,%esi
  102439:	8d bc 27 00 00 00 00 	lea    0x0(%edi,%eiz,1),%edi

00102440 <irq_162>:
  102440:	e9 00 00 00 00       	jmp    102445 <irq_handler_162>

00102445 <irq_handler_162>:
  102445:	6a 00                	push   $0x0
  102447:	60                   	pusha  
  102448:	68 a2 00 00 00       	push   $0xa2
  10244d:	e8 d6 0e 00 00       	call   103328 <isr_162>
  102452:	e9 9d 0b 00 00       	jmp    102ff4 <handler_exit>
  102457:	89 f6                	mov    %esi,%esi
  102459:	8d bc 27 00 00 00 00 	lea    0x0(%edi,%eiz,1),%edi

00102460 <irq_163>:
  102460:	e9 00 00 00 00       	jmp    102465 <irq_handler_163>

00102465 <irq_handler_163>:
  102465:	6a 00                	push   $0x0
  102467:	60                   	pusha  
  102468:	68 a3 00 00 00       	push   $0xa3
  10246d:	e8 bb 0e 00 00       	call   10332d <isr_163>
  102472:	e9 7d 0b 00 00       	jmp    102ff4 <handler_exit>
  102477:	89 f6                	mov    %esi,%esi
  102479:	8d bc 27 00 00 00 00 	lea    0x0(%edi,%eiz,1),%edi

00102480 <irq_164>:
  102480:	e9 00 00 00 00       	jmp    102485 <irq_handler_164>

00102485 <irq_handler_164>:
  102485:	6a 00                	push   $0x0
  102487:	60                   	pusha  
  102488:	68 a4 00 00 00       	push   $0xa4
  10248d:	e8 a0 0e 00 00       	call   103332 <isr_164>
  102492:	e9 5d 0b 00 00       	jmp    102ff4 <handler_exit>
  102497:	89 f6                	mov    %esi,%esi
  102499:	8d bc 27 00 00 00 00 	lea    0x0(%edi,%eiz,1),%edi

001024a0 <irq_165>:
  1024a0:	e9 00 00 00 00       	jmp    1024a5 <irq_handler_165>

001024a5 <irq_handler_165>:
  1024a5:	6a 00                	push   $0x0
  1024a7:	60                   	pusha  
  1024a8:	68 a5 00 00 00       	push   $0xa5
  1024ad:	e8 85 0e 00 00       	call   103337 <isr_165>
  1024b2:	e9 3d 0b 00 00       	jmp    102ff4 <handler_exit>
  1024b7:	89 f6                	mov    %esi,%esi
  1024b9:	8d bc 27 00 00 00 00 	lea    0x0(%edi,%eiz,1),%edi

001024c0 <irq_166>:
  1024c0:	e9 00 00 00 00       	jmp    1024c5 <irq_handler_166>

001024c5 <irq_handler_166>:
  1024c5:	6a 00                	push   $0x0
  1024c7:	60                   	pusha  
  1024c8:	68 a6 00 00 00       	push   $0xa6
  1024cd:	e8 6a 0e 00 00       	call   10333c <isr_166>
  1024d2:	e9 1d 0b 00 00       	jmp    102ff4 <handler_exit>
  1024d7:	89 f6                	mov    %esi,%esi
  1024d9:	8d bc 27 00 00 00 00 	lea    0x0(%edi,%eiz,1),%edi

001024e0 <irq_167>:
  1024e0:	e9 00 00 00 00       	jmp    1024e5 <irq_handler_167>

001024e5 <irq_handler_167>:
  1024e5:	6a 00                	push   $0x0
  1024e7:	60                   	pusha  
  1024e8:	68 a7 00 00 00       	push   $0xa7
  1024ed:	e8 4f 0e 00 00       	call   103341 <isr_167>
  1024f2:	e9 fd 0a 00 00       	jmp    102ff4 <handler_exit>
  1024f7:	89 f6                	mov    %esi,%esi
  1024f9:	8d bc 27 00 00 00 00 	lea    0x0(%edi,%eiz,1),%edi

00102500 <irq_168>:
  102500:	e9 00 00 00 00       	jmp    102505 <irq_handler_168>

00102505 <irq_handler_168>:
  102505:	6a 00                	push   $0x0
  102507:	60                   	pusha  
  102508:	68 a8 00 00 00       	push   $0xa8
  10250d:	e8 34 0e 00 00       	call   103346 <isr_168>
  102512:	e9 dd 0a 00 00       	jmp    102ff4 <handler_exit>
  102517:	89 f6                	mov    %esi,%esi
  102519:	8d bc 27 00 00 00 00 	lea    0x0(%edi,%eiz,1),%edi

00102520 <irq_169>:
  102520:	e9 00 00 00 00       	jmp    102525 <irq_handler_169>

00102525 <irq_handler_169>:
  102525:	6a 00                	push   $0x0
  102527:	60                   	pusha  
  102528:	68 a9 00 00 00       	push   $0xa9
  10252d:	e8 19 0e 00 00       	call   10334b <isr_169>
  102532:	e9 bd 0a 00 00       	jmp    102ff4 <handler_exit>
  102537:	89 f6                	mov    %esi,%esi
  102539:	8d bc 27 00 00 00 00 	lea    0x0(%edi,%eiz,1),%edi

00102540 <irq_170>:
  102540:	e9 00 00 00 00       	jmp    102545 <irq_handler_170>

00102545 <irq_handler_170>:
  102545:	6a 00                	push   $0x0
  102547:	60                   	pusha  
  102548:	68 aa 00 00 00       	push   $0xaa
  10254d:	e8 fe 0d 00 00       	call   103350 <isr_170>
  102552:	e9 9d 0a 00 00       	jmp    102ff4 <handler_exit>
  102557:	89 f6                	mov    %esi,%esi
  102559:	8d bc 27 00 00 00 00 	lea    0x0(%edi,%eiz,1),%edi

00102560 <irq_171>:
  102560:	e9 00 00 00 00       	jmp    102565 <irq_handler_171>

00102565 <irq_handler_171>:
  102565:	6a 00                	push   $0x0
  102567:	60                   	pusha  
  102568:	68 ab 00 00 00       	push   $0xab
  10256d:	e8 e3 0d 00 00       	call   103355 <isr_171>
  102572:	e9 7d 0a 00 00       	jmp    102ff4 <handler_exit>
  102577:	89 f6                	mov    %esi,%esi
  102579:	8d bc 27 00 00 00 00 	lea    0x0(%edi,%eiz,1),%edi

00102580 <irq_172>:
  102580:	e9 00 00 00 00       	jmp    102585 <irq_handler_172>

00102585 <irq_handler_172>:
  102585:	6a 00                	push   $0x0
  102587:	60                   	pusha  
  102588:	68 ac 00 00 00       	push   $0xac
  10258d:	e8 c8 0d 00 00       	call   10335a <isr_172>
  102592:	e9 5d 0a 00 00       	jmp    102ff4 <handler_exit>
  102597:	89 f6                	mov    %esi,%esi
  102599:	8d bc 27 00 00 00 00 	lea    0x0(%edi,%eiz,1),%edi

001025a0 <irq_173>:
  1025a0:	e9 00 00 00 00       	jmp    1025a5 <irq_handler_173>

001025a5 <irq_handler_173>:
  1025a5:	6a 00                	push   $0x0
  1025a7:	60                   	pusha  
  1025a8:	68 ad 00 00 00       	push   $0xad
  1025ad:	e8 ad 0d 00 00       	call   10335f <isr_173>
  1025b2:	e9 3d 0a 00 00       	jmp    102ff4 <handler_exit>
  1025b7:	89 f6                	mov    %esi,%esi
  1025b9:	8d bc 27 00 00 00 00 	lea    0x0(%edi,%eiz,1),%edi

001025c0 <irq_174>:
  1025c0:	e9 00 00 00 00       	jmp    1025c5 <irq_handler_174>

001025c5 <irq_handler_174>:
  1025c5:	6a 00                	push   $0x0
  1025c7:	60                   	pusha  
  1025c8:	68 ae 00 00 00       	push   $0xae
  1025cd:	e8 92 0d 00 00       	call   103364 <isr_174>
  1025d2:	e9 1d 0a 00 00       	jmp    102ff4 <handler_exit>
  1025d7:	89 f6                	mov    %esi,%esi
  1025d9:	8d bc 27 00 00 00 00 	lea    0x0(%edi,%eiz,1),%edi

001025e0 <irq_175>:
  1025e0:	e9 00 00 00 00       	jmp    1025e5 <irq_handler_175>

001025e5 <irq_handler_175>:
  1025e5:	6a 00                	push   $0x0
  1025e7:	60                   	pusha  
  1025e8:	68 af 00 00 00       	push   $0xaf
  1025ed:	e8 77 0d 00 00       	call   103369 <isr_175>
  1025f2:	e9 fd 09 00 00       	jmp    102ff4 <handler_exit>
  1025f7:	89 f6                	mov    %esi,%esi
  1025f9:	8d bc 27 00 00 00 00 	lea    0x0(%edi,%eiz,1),%edi

00102600 <irq_176>:
  102600:	e9 00 00 00 00       	jmp    102605 <irq_handler_176>

00102605 <irq_handler_176>:
  102605:	6a 00                	push   $0x0
  102607:	60                   	pusha  
  102608:	68 b0 00 00 00       	push   $0xb0
  10260d:	e8 5c 0d 00 00       	call   10336e <isr_176>
  102612:	e9 dd 09 00 00       	jmp    102ff4 <handler_exit>
  102617:	89 f6                	mov    %esi,%esi
  102619:	8d bc 27 00 00 00 00 	lea    0x0(%edi,%eiz,1),%edi

00102620 <irq_177>:
  102620:	e9 00 00 00 00       	jmp    102625 <irq_handler_177>

00102625 <irq_handler_177>:
  102625:	6a 00                	push   $0x0
  102627:	60                   	pusha  
  102628:	68 b1 00 00 00       	push   $0xb1
  10262d:	e8 41 0d 00 00       	call   103373 <isr_177>
  102632:	e9 bd 09 00 00       	jmp    102ff4 <handler_exit>
  102637:	89 f6                	mov    %esi,%esi
  102639:	8d bc 27 00 00 00 00 	lea    0x0(%edi,%eiz,1),%edi

00102640 <irq_178>:
  102640:	e9 00 00 00 00       	jmp    102645 <irq_handler_178>

00102645 <irq_handler_178>:
  102645:	6a 00                	push   $0x0
  102647:	60                   	pusha  
  102648:	68 b2 00 00 00       	push   $0xb2
  10264d:	e8 26 0d 00 00       	call   103378 <isr_178>
  102652:	e9 9d 09 00 00       	jmp    102ff4 <handler_exit>
  102657:	89 f6                	mov    %esi,%esi
  102659:	8d bc 27 00 00 00 00 	lea    0x0(%edi,%eiz,1),%edi

00102660 <irq_179>:
  102660:	e9 00 00 00 00       	jmp    102665 <irq_handler_179>

00102665 <irq_handler_179>:
  102665:	6a 00                	push   $0x0
  102667:	60                   	pusha  
  102668:	68 b3 00 00 00       	push   $0xb3
  10266d:	e8 0b 0d 00 00       	call   10337d <isr_179>
  102672:	e9 7d 09 00 00       	jmp    102ff4 <handler_exit>
  102677:	89 f6                	mov    %esi,%esi
  102679:	8d bc 27 00 00 00 00 	lea    0x0(%edi,%eiz,1),%edi

00102680 <irq_180>:
  102680:	e9 00 00 00 00       	jmp    102685 <irq_handler_180>

00102685 <irq_handler_180>:
  102685:	6a 00                	push   $0x0
  102687:	60                   	pusha  
  102688:	68 b4 00 00 00       	push   $0xb4
  10268d:	e8 f0 0c 00 00       	call   103382 <isr_180>
  102692:	e9 5d 09 00 00       	jmp    102ff4 <handler_exit>
  102697:	89 f6                	mov    %esi,%esi
  102699:	8d bc 27 00 00 00 00 	lea    0x0(%edi,%eiz,1),%edi

001026a0 <irq_181>:
  1026a0:	e9 00 00 00 00       	jmp    1026a5 <irq_handler_181>

001026a5 <irq_handler_181>:
  1026a5:	6a 00                	push   $0x0
  1026a7:	60                   	pusha  
  1026a8:	68 b5 00 00 00       	push   $0xb5
  1026ad:	e8 d5 0c 00 00       	call   103387 <isr_181>
  1026b2:	e9 3d 09 00 00       	jmp    102ff4 <handler_exit>
  1026b7:	89 f6                	mov    %esi,%esi
  1026b9:	8d bc 27 00 00 00 00 	lea    0x0(%edi,%eiz,1),%edi

001026c0 <irq_182>:
  1026c0:	e9 00 00 00 00       	jmp    1026c5 <irq_handler_182>

001026c5 <irq_handler_182>:
  1026c5:	6a 00                	push   $0x0
  1026c7:	60                   	pusha  
  1026c8:	68 b6 00 00 00       	push   $0xb6
  1026cd:	e8 ba 0c 00 00       	call   10338c <isr_182>
  1026d2:	e9 1d 09 00 00       	jmp    102ff4 <handler_exit>
  1026d7:	89 f6                	mov    %esi,%esi
  1026d9:	8d bc 27 00 00 00 00 	lea    0x0(%edi,%eiz,1),%edi

001026e0 <irq_183>:
  1026e0:	e9 00 00 00 00       	jmp    1026e5 <irq_handler_183>

001026e5 <irq_handler_183>:
  1026e5:	6a 00                	push   $0x0
  1026e7:	60                   	pusha  
  1026e8:	68 b7 00 00 00       	push   $0xb7
  1026ed:	e8 9f 0c 00 00       	call   103391 <isr_183>
  1026f2:	e9 fd 08 00 00       	jmp    102ff4 <handler_exit>
  1026f7:	89 f6                	mov    %esi,%esi
  1026f9:	8d bc 27 00 00 00 00 	lea    0x0(%edi,%eiz,1),%edi

00102700 <irq_184>:
  102700:	e9 00 00 00 00       	jmp    102705 <irq_handler_184>

00102705 <irq_handler_184>:
  102705:	6a 00                	push   $0x0
  102707:	60                   	pusha  
  102708:	68 b8 00 00 00       	push   $0xb8
  10270d:	e8 84 0c 00 00       	call   103396 <isr_184>
  102712:	e9 dd 08 00 00       	jmp    102ff4 <handler_exit>
  102717:	89 f6                	mov    %esi,%esi
  102719:	8d bc 27 00 00 00 00 	lea    0x0(%edi,%eiz,1),%edi

00102720 <irq_185>:
  102720:	e9 00 00 00 00       	jmp    102725 <irq_handler_185>

00102725 <irq_handler_185>:
  102725:	6a 00                	push   $0x0
  102727:	60                   	pusha  
  102728:	68 b9 00 00 00       	push   $0xb9
  10272d:	e8 69 0c 00 00       	call   10339b <isr_185>
  102732:	e9 bd 08 00 00       	jmp    102ff4 <handler_exit>
  102737:	89 f6                	mov    %esi,%esi
  102739:	8d bc 27 00 00 00 00 	lea    0x0(%edi,%eiz,1),%edi

00102740 <irq_186>:
  102740:	e9 00 00 00 00       	jmp    102745 <irq_handler_186>

00102745 <irq_handler_186>:
  102745:	6a 00                	push   $0x0
  102747:	60                   	pusha  
  102748:	68 ba 00 00 00       	push   $0xba
  10274d:	e8 4e 0c 00 00       	call   1033a0 <isr_186>
  102752:	e9 9d 08 00 00       	jmp    102ff4 <handler_exit>
  102757:	89 f6                	mov    %esi,%esi
  102759:	8d bc 27 00 00 00 00 	lea    0x0(%edi,%eiz,1),%edi

00102760 <irq_187>:
  102760:	e9 00 00 00 00       	jmp    102765 <irq_handler_187>

00102765 <irq_handler_187>:
  102765:	6a 00                	push   $0x0
  102767:	60                   	pusha  
  102768:	68 bb 00 00 00       	push   $0xbb
  10276d:	e8 33 0c 00 00       	call   1033a5 <isr_187>
  102772:	e9 7d 08 00 00       	jmp    102ff4 <handler_exit>
  102777:	89 f6                	mov    %esi,%esi
  102779:	8d bc 27 00 00 00 00 	lea    0x0(%edi,%eiz,1),%edi

00102780 <irq_188>:
  102780:	e9 00 00 00 00       	jmp    102785 <irq_handler_188>

00102785 <irq_handler_188>:
  102785:	6a 00                	push   $0x0
  102787:	60                   	pusha  
  102788:	68 bc 00 00 00       	push   $0xbc
  10278d:	e8 18 0c 00 00       	call   1033aa <isr_188>
  102792:	e9 5d 08 00 00       	jmp    102ff4 <handler_exit>
  102797:	89 f6                	mov    %esi,%esi
  102799:	8d bc 27 00 00 00 00 	lea    0x0(%edi,%eiz,1),%edi

001027a0 <irq_189>:
  1027a0:	e9 00 00 00 00       	jmp    1027a5 <irq_handler_189>

001027a5 <irq_handler_189>:
  1027a5:	6a 00                	push   $0x0
  1027a7:	60                   	pusha  
  1027a8:	68 bd 00 00 00       	push   $0xbd
  1027ad:	e8 fd 0b 00 00       	call   1033af <isr_189>
  1027b2:	e9 3d 08 00 00       	jmp    102ff4 <handler_exit>
  1027b7:	89 f6                	mov    %esi,%esi
  1027b9:	8d bc 27 00 00 00 00 	lea    0x0(%edi,%eiz,1),%edi

001027c0 <irq_190>:
  1027c0:	e9 00 00 00 00       	jmp    1027c5 <irq_handler_190>

001027c5 <irq_handler_190>:
  1027c5:	6a 00                	push   $0x0
  1027c7:	60                   	pusha  
  1027c8:	68 be 00 00 00       	push   $0xbe
  1027cd:	e8 e2 0b 00 00       	call   1033b4 <isr_190>
  1027d2:	e9 1d 08 00 00       	jmp    102ff4 <handler_exit>
  1027d7:	89 f6                	mov    %esi,%esi
  1027d9:	8d bc 27 00 00 00 00 	lea    0x0(%edi,%eiz,1),%edi

001027e0 <irq_191>:
  1027e0:	e9 00 00 00 00       	jmp    1027e5 <irq_handler_191>

001027e5 <irq_handler_191>:
  1027e5:	6a 00                	push   $0x0
  1027e7:	60                   	pusha  
  1027e8:	68 bf 00 00 00       	push   $0xbf
  1027ed:	e8 c7 0b 00 00       	call   1033b9 <isr_191>
  1027f2:	e9 fd 07 00 00       	jmp    102ff4 <handler_exit>
  1027f7:	89 f6                	mov    %esi,%esi
  1027f9:	8d bc 27 00 00 00 00 	lea    0x0(%edi,%eiz,1),%edi

00102800 <irq_192>:
  102800:	e9 00 00 00 00       	jmp    102805 <irq_handler_192>

00102805 <irq_handler_192>:
  102805:	6a 00                	push   $0x0
  102807:	60                   	pusha  
  102808:	68 c0 00 00 00       	push   $0xc0
  10280d:	e8 ac 0b 00 00       	call   1033be <isr_192>
  102812:	e9 dd 07 00 00       	jmp    102ff4 <handler_exit>
  102817:	89 f6                	mov    %esi,%esi
  102819:	8d bc 27 00 00 00 00 	lea    0x0(%edi,%eiz,1),%edi

00102820 <irq_193>:
  102820:	e9 00 00 00 00       	jmp    102825 <irq_handler_193>

00102825 <irq_handler_193>:
  102825:	6a 00                	push   $0x0
  102827:	60                   	pusha  
  102828:	68 c1 00 00 00       	push   $0xc1
  10282d:	e8 91 0b 00 00       	call   1033c3 <isr_193>
  102832:	e9 bd 07 00 00       	jmp    102ff4 <handler_exit>
  102837:	89 f6                	mov    %esi,%esi
  102839:	8d bc 27 00 00 00 00 	lea    0x0(%edi,%eiz,1),%edi

00102840 <irq_194>:
  102840:	e9 00 00 00 00       	jmp    102845 <irq_handler_194>

00102845 <irq_handler_194>:
  102845:	6a 00                	push   $0x0
  102847:	60                   	pusha  
  102848:	68 c2 00 00 00       	push   $0xc2
  10284d:	e8 76 0b 00 00       	call   1033c8 <isr_194>
  102852:	e9 9d 07 00 00       	jmp    102ff4 <handler_exit>
  102857:	89 f6                	mov    %esi,%esi
  102859:	8d bc 27 00 00 00 00 	lea    0x0(%edi,%eiz,1),%edi

00102860 <irq_195>:
  102860:	e9 00 00 00 00       	jmp    102865 <irq_handler_195>

00102865 <irq_handler_195>:
  102865:	6a 00                	push   $0x0
  102867:	60                   	pusha  
  102868:	68 c3 00 00 00       	push   $0xc3
  10286d:	e8 5b 0b 00 00       	call   1033cd <isr_195>
  102872:	e9 7d 07 00 00       	jmp    102ff4 <handler_exit>
  102877:	89 f6                	mov    %esi,%esi
  102879:	8d bc 27 00 00 00 00 	lea    0x0(%edi,%eiz,1),%edi

00102880 <irq_196>:
  102880:	e9 00 00 00 00       	jmp    102885 <irq_handler_196>

00102885 <irq_handler_196>:
  102885:	6a 00                	push   $0x0
  102887:	60                   	pusha  
  102888:	68 c4 00 00 00       	push   $0xc4
  10288d:	e8 40 0b 00 00       	call   1033d2 <isr_196>
  102892:	e9 5d 07 00 00       	jmp    102ff4 <handler_exit>
  102897:	89 f6                	mov    %esi,%esi
  102899:	8d bc 27 00 00 00 00 	lea    0x0(%edi,%eiz,1),%edi

001028a0 <irq_197>:
  1028a0:	e9 00 00 00 00       	jmp    1028a5 <irq_handler_197>

001028a5 <irq_handler_197>:
  1028a5:	6a 00                	push   $0x0
  1028a7:	60                   	pusha  
  1028a8:	68 c5 00 00 00       	push   $0xc5
  1028ad:	e8 25 0b 00 00       	call   1033d7 <isr_197>
  1028b2:	e9 3d 07 00 00       	jmp    102ff4 <handler_exit>
  1028b7:	89 f6                	mov    %esi,%esi
  1028b9:	8d bc 27 00 00 00 00 	lea    0x0(%edi,%eiz,1),%edi

001028c0 <irq_198>:
  1028c0:	e9 00 00 00 00       	jmp    1028c5 <irq_handler_198>

001028c5 <irq_handler_198>:
  1028c5:	6a 00                	push   $0x0
  1028c7:	60                   	pusha  
  1028c8:	68 c6 00 00 00       	push   $0xc6
  1028cd:	e8 0a 0b 00 00       	call   1033dc <isr_198>
  1028d2:	e9 1d 07 00 00       	jmp    102ff4 <handler_exit>
  1028d7:	89 f6                	mov    %esi,%esi
  1028d9:	8d bc 27 00 00 00 00 	lea    0x0(%edi,%eiz,1),%edi

001028e0 <irq_199>:
  1028e0:	e9 00 00 00 00       	jmp    1028e5 <irq_handler_199>

001028e5 <irq_handler_199>:
  1028e5:	6a 00                	push   $0x0
  1028e7:	60                   	pusha  
  1028e8:	68 c7 00 00 00       	push   $0xc7
  1028ed:	e8 ef 0a 00 00       	call   1033e1 <isr_199>
  1028f2:	e9 fd 06 00 00       	jmp    102ff4 <handler_exit>
  1028f7:	89 f6                	mov    %esi,%esi
  1028f9:	8d bc 27 00 00 00 00 	lea    0x0(%edi,%eiz,1),%edi

00102900 <irq_200>:
  102900:	e9 00 00 00 00       	jmp    102905 <irq_handler_200>

00102905 <irq_handler_200>:
  102905:	6a 00                	push   $0x0
  102907:	60                   	pusha  
  102908:	68 c8 00 00 00       	push   $0xc8
  10290d:	e8 d4 0a 00 00       	call   1033e6 <isr_200>
  102912:	e9 dd 06 00 00       	jmp    102ff4 <handler_exit>
  102917:	89 f6                	mov    %esi,%esi
  102919:	8d bc 27 00 00 00 00 	lea    0x0(%edi,%eiz,1),%edi

00102920 <irq_201>:
  102920:	e9 00 00 00 00       	jmp    102925 <irq_handler_201>

00102925 <irq_handler_201>:
  102925:	6a 00                	push   $0x0
  102927:	60                   	pusha  
  102928:	68 c9 00 00 00       	push   $0xc9
  10292d:	e8 b9 0a 00 00       	call   1033eb <isr_201>
  102932:	e9 bd 06 00 00       	jmp    102ff4 <handler_exit>
  102937:	89 f6                	mov    %esi,%esi
  102939:	8d bc 27 00 00 00 00 	lea    0x0(%edi,%eiz,1),%edi

00102940 <irq_202>:
  102940:	e9 00 00 00 00       	jmp    102945 <irq_handler_202>

00102945 <irq_handler_202>:
  102945:	6a 00                	push   $0x0
  102947:	60                   	pusha  
  102948:	68 ca 00 00 00       	push   $0xca
  10294d:	e8 9e 0a 00 00       	call   1033f0 <isr_202>
  102952:	e9 9d 06 00 00       	jmp    102ff4 <handler_exit>
  102957:	89 f6                	mov    %esi,%esi
  102959:	8d bc 27 00 00 00 00 	lea    0x0(%edi,%eiz,1),%edi

00102960 <irq_203>:
  102960:	e9 00 00 00 00       	jmp    102965 <irq_handler_203>

00102965 <irq_handler_203>:
  102965:	6a 00                	push   $0x0
  102967:	60                   	pusha  
  102968:	68 cb 00 00 00       	push   $0xcb
  10296d:	e8 83 0a 00 00       	call   1033f5 <isr_203>
  102972:	e9 7d 06 00 00       	jmp    102ff4 <handler_exit>
  102977:	89 f6                	mov    %esi,%esi
  102979:	8d bc 27 00 00 00 00 	lea    0x0(%edi,%eiz,1),%edi

00102980 <irq_204>:
  102980:	e9 00 00 00 00       	jmp    102985 <irq_handler_204>

00102985 <irq_handler_204>:
  102985:	6a 00                	push   $0x0
  102987:	60                   	pusha  
  102988:	68 cc 00 00 00       	push   $0xcc
  10298d:	e8 68 0a 00 00       	call   1033fa <isr_204>
  102992:	e9 5d 06 00 00       	jmp    102ff4 <handler_exit>
  102997:	89 f6                	mov    %esi,%esi
  102999:	8d bc 27 00 00 00 00 	lea    0x0(%edi,%eiz,1),%edi

001029a0 <irq_205>:
  1029a0:	e9 00 00 00 00       	jmp    1029a5 <irq_handler_205>

001029a5 <irq_handler_205>:
  1029a5:	6a 00                	push   $0x0
  1029a7:	60                   	pusha  
  1029a8:	68 cd 00 00 00       	push   $0xcd
  1029ad:	e8 4d 0a 00 00       	call   1033ff <isr_205>
  1029b2:	e9 3d 06 00 00       	jmp    102ff4 <handler_exit>
  1029b7:	89 f6                	mov    %esi,%esi
  1029b9:	8d bc 27 00 00 00 00 	lea    0x0(%edi,%eiz,1),%edi

001029c0 <irq_206>:
  1029c0:	e9 00 00 00 00       	jmp    1029c5 <irq_handler_206>

001029c5 <irq_handler_206>:
  1029c5:	6a 00                	push   $0x0
  1029c7:	60                   	pusha  
  1029c8:	68 ce 00 00 00       	push   $0xce
  1029cd:	e8 32 0a 00 00       	call   103404 <isr_206>
  1029d2:	e9 1d 06 00 00       	jmp    102ff4 <handler_exit>
  1029d7:	89 f6                	mov    %esi,%esi
  1029d9:	8d bc 27 00 00 00 00 	lea    0x0(%edi,%eiz,1),%edi

001029e0 <irq_207>:
  1029e0:	e9 00 00 00 00       	jmp    1029e5 <irq_handler_207>

001029e5 <irq_handler_207>:
  1029e5:	6a 00                	push   $0x0
  1029e7:	60                   	pusha  
  1029e8:	68 cf 00 00 00       	push   $0xcf
  1029ed:	e8 17 0a 00 00       	call   103409 <isr_207>
  1029f2:	e9 fd 05 00 00       	jmp    102ff4 <handler_exit>
  1029f7:	89 f6                	mov    %esi,%esi
  1029f9:	8d bc 27 00 00 00 00 	lea    0x0(%edi,%eiz,1),%edi

00102a00 <irq_208>:
  102a00:	e9 00 00 00 00       	jmp    102a05 <irq_handler_208>

00102a05 <irq_handler_208>:
  102a05:	6a 00                	push   $0x0
  102a07:	60                   	pusha  
  102a08:	68 d0 00 00 00       	push   $0xd0
  102a0d:	e8 fc 09 00 00       	call   10340e <isr_208>
  102a12:	e9 dd 05 00 00       	jmp    102ff4 <handler_exit>
  102a17:	89 f6                	mov    %esi,%esi
  102a19:	8d bc 27 00 00 00 00 	lea    0x0(%edi,%eiz,1),%edi

00102a20 <irq_209>:
  102a20:	e9 00 00 00 00       	jmp    102a25 <irq_handler_209>

00102a25 <irq_handler_209>:
  102a25:	6a 00                	push   $0x0
  102a27:	60                   	pusha  
  102a28:	68 d1 00 00 00       	push   $0xd1
  102a2d:	e8 e1 09 00 00       	call   103413 <isr_209>
  102a32:	e9 bd 05 00 00       	jmp    102ff4 <handler_exit>
  102a37:	89 f6                	mov    %esi,%esi
  102a39:	8d bc 27 00 00 00 00 	lea    0x0(%edi,%eiz,1),%edi

00102a40 <irq_210>:
  102a40:	e9 00 00 00 00       	jmp    102a45 <irq_handler_210>

00102a45 <irq_handler_210>:
  102a45:	6a 00                	push   $0x0
  102a47:	60                   	pusha  
  102a48:	68 d2 00 00 00       	push   $0xd2
  102a4d:	e8 c6 09 00 00       	call   103418 <isr_210>
  102a52:	e9 9d 05 00 00       	jmp    102ff4 <handler_exit>
  102a57:	89 f6                	mov    %esi,%esi
  102a59:	8d bc 27 00 00 00 00 	lea    0x0(%edi,%eiz,1),%edi

00102a60 <irq_211>:
  102a60:	e9 00 00 00 00       	jmp    102a65 <irq_handler_211>

00102a65 <irq_handler_211>:
  102a65:	6a 00                	push   $0x0
  102a67:	60                   	pusha  
  102a68:	68 d3 00 00 00       	push   $0xd3
  102a6d:	e8 ab 09 00 00       	call   10341d <isr_211>
  102a72:	e9 7d 05 00 00       	jmp    102ff4 <handler_exit>
  102a77:	89 f6                	mov    %esi,%esi
  102a79:	8d bc 27 00 00 00 00 	lea    0x0(%edi,%eiz,1),%edi

00102a80 <irq_212>:
  102a80:	e9 00 00 00 00       	jmp    102a85 <irq_handler_212>

00102a85 <irq_handler_212>:
  102a85:	6a 00                	push   $0x0
  102a87:	60                   	pusha  
  102a88:	68 d4 00 00 00       	push   $0xd4
  102a8d:	e8 90 09 00 00       	call   103422 <isr_212>
  102a92:	e9 5d 05 00 00       	jmp    102ff4 <handler_exit>
  102a97:	89 f6                	mov    %esi,%esi
  102a99:	8d bc 27 00 00 00 00 	lea    0x0(%edi,%eiz,1),%edi

00102aa0 <irq_213>:
  102aa0:	e9 00 00 00 00       	jmp    102aa5 <irq_handler_213>

00102aa5 <irq_handler_213>:
  102aa5:	6a 00                	push   $0x0
  102aa7:	60                   	pusha  
  102aa8:	68 d5 00 00 00       	push   $0xd5
  102aad:	e8 75 09 00 00       	call   103427 <isr_213>
  102ab2:	e9 3d 05 00 00       	jmp    102ff4 <handler_exit>
  102ab7:	89 f6                	mov    %esi,%esi
  102ab9:	8d bc 27 00 00 00 00 	lea    0x0(%edi,%eiz,1),%edi

00102ac0 <irq_214>:
  102ac0:	e9 00 00 00 00       	jmp    102ac5 <irq_handler_214>

00102ac5 <irq_handler_214>:
  102ac5:	6a 00                	push   $0x0
  102ac7:	60                   	pusha  
  102ac8:	68 d6 00 00 00       	push   $0xd6
  102acd:	e8 5a 09 00 00       	call   10342c <isr_214>
  102ad2:	e9 1d 05 00 00       	jmp    102ff4 <handler_exit>
  102ad7:	89 f6                	mov    %esi,%esi
  102ad9:	8d bc 27 00 00 00 00 	lea    0x0(%edi,%eiz,1),%edi

00102ae0 <irq_215>:
  102ae0:	e9 00 00 00 00       	jmp    102ae5 <irq_handler_215>

00102ae5 <irq_handler_215>:
  102ae5:	6a 00                	push   $0x0
  102ae7:	60                   	pusha  
  102ae8:	68 d7 00 00 00       	push   $0xd7
  102aed:	e8 3f 09 00 00       	call   103431 <isr_215>
  102af2:	e9 fd 04 00 00       	jmp    102ff4 <handler_exit>
  102af7:	89 f6                	mov    %esi,%esi
  102af9:	8d bc 27 00 00 00 00 	lea    0x0(%edi,%eiz,1),%edi

00102b00 <irq_216>:
  102b00:	e9 00 00 00 00       	jmp    102b05 <irq_handler_216>

00102b05 <irq_handler_216>:
  102b05:	6a 00                	push   $0x0
  102b07:	60                   	pusha  
  102b08:	68 d8 00 00 00       	push   $0xd8
  102b0d:	e8 24 09 00 00       	call   103436 <isr_216>
  102b12:	e9 dd 04 00 00       	jmp    102ff4 <handler_exit>
  102b17:	89 f6                	mov    %esi,%esi
  102b19:	8d bc 27 00 00 00 00 	lea    0x0(%edi,%eiz,1),%edi

00102b20 <irq_217>:
  102b20:	e9 00 00 00 00       	jmp    102b25 <irq_handler_217>

00102b25 <irq_handler_217>:
  102b25:	6a 00                	push   $0x0
  102b27:	60                   	pusha  
  102b28:	68 d9 00 00 00       	push   $0xd9
  102b2d:	e8 09 09 00 00       	call   10343b <isr_217>
  102b32:	e9 bd 04 00 00       	jmp    102ff4 <handler_exit>
  102b37:	89 f6                	mov    %esi,%esi
  102b39:	8d bc 27 00 00 00 00 	lea    0x0(%edi,%eiz,1),%edi

00102b40 <irq_218>:
  102b40:	e9 00 00 00 00       	jmp    102b45 <irq_handler_218>

00102b45 <irq_handler_218>:
  102b45:	6a 00                	push   $0x0
  102b47:	60                   	pusha  
  102b48:	68 da 00 00 00       	push   $0xda
  102b4d:	e8 ee 08 00 00       	call   103440 <isr_218>
  102b52:	e9 9d 04 00 00       	jmp    102ff4 <handler_exit>
  102b57:	89 f6                	mov    %esi,%esi
  102b59:	8d bc 27 00 00 00 00 	lea    0x0(%edi,%eiz,1),%edi

00102b60 <irq_219>:
  102b60:	e9 00 00 00 00       	jmp    102b65 <irq_handler_219>

00102b65 <irq_handler_219>:
  102b65:	6a 00                	push   $0x0
  102b67:	60                   	pusha  
  102b68:	68 db 00 00 00       	push   $0xdb
  102b6d:	e8 d3 08 00 00       	call   103445 <isr_219>
  102b72:	e9 7d 04 00 00       	jmp    102ff4 <handler_exit>
  102b77:	89 f6                	mov    %esi,%esi
  102b79:	8d bc 27 00 00 00 00 	lea    0x0(%edi,%eiz,1),%edi

00102b80 <irq_220>:
  102b80:	e9 00 00 00 00       	jmp    102b85 <irq_handler_220>

00102b85 <irq_handler_220>:
  102b85:	6a 00                	push   $0x0
  102b87:	60                   	pusha  
  102b88:	68 dc 00 00 00       	push   $0xdc
  102b8d:	e8 b8 08 00 00       	call   10344a <isr_220>
  102b92:	e9 5d 04 00 00       	jmp    102ff4 <handler_exit>
  102b97:	89 f6                	mov    %esi,%esi
  102b99:	8d bc 27 00 00 00 00 	lea    0x0(%edi,%eiz,1),%edi

00102ba0 <irq_221>:
  102ba0:	e9 00 00 00 00       	jmp    102ba5 <irq_handler_221>

00102ba5 <irq_handler_221>:
  102ba5:	6a 00                	push   $0x0
  102ba7:	60                   	pusha  
  102ba8:	68 dd 00 00 00       	push   $0xdd
  102bad:	e8 9d 08 00 00       	call   10344f <isr_221>
  102bb2:	e9 3d 04 00 00       	jmp    102ff4 <handler_exit>
  102bb7:	89 f6                	mov    %esi,%esi
  102bb9:	8d bc 27 00 00 00 00 	lea    0x0(%edi,%eiz,1),%edi

00102bc0 <irq_222>:
  102bc0:	e9 00 00 00 00       	jmp    102bc5 <irq_handler_222>

00102bc5 <irq_handler_222>:
  102bc5:	6a 00                	push   $0x0
  102bc7:	60                   	pusha  
  102bc8:	68 de 00 00 00       	push   $0xde
  102bcd:	e8 82 08 00 00       	call   103454 <isr_222>
  102bd2:	e9 1d 04 00 00       	jmp    102ff4 <handler_exit>
  102bd7:	89 f6                	mov    %esi,%esi
  102bd9:	8d bc 27 00 00 00 00 	lea    0x0(%edi,%eiz,1),%edi

00102be0 <irq_223>:
  102be0:	e9 00 00 00 00       	jmp    102be5 <irq_handler_223>

00102be5 <irq_handler_223>:
  102be5:	6a 00                	push   $0x0
  102be7:	60                   	pusha  
  102be8:	68 df 00 00 00       	push   $0xdf
  102bed:	e8 67 08 00 00       	call   103459 <isr_223>
  102bf2:	e9 fd 03 00 00       	jmp    102ff4 <handler_exit>
  102bf7:	89 f6                	mov    %esi,%esi
  102bf9:	8d bc 27 00 00 00 00 	lea    0x0(%edi,%eiz,1),%edi

00102c00 <irq_224>:
  102c00:	e9 00 00 00 00       	jmp    102c05 <irq_handler_224>

00102c05 <irq_handler_224>:
  102c05:	6a 00                	push   $0x0
  102c07:	60                   	pusha  
  102c08:	68 e0 00 00 00       	push   $0xe0
  102c0d:	e8 4c 08 00 00       	call   10345e <isr_224>
  102c12:	e9 dd 03 00 00       	jmp    102ff4 <handler_exit>
  102c17:	89 f6                	mov    %esi,%esi
  102c19:	8d bc 27 00 00 00 00 	lea    0x0(%edi,%eiz,1),%edi

00102c20 <irq_225>:
  102c20:	e9 00 00 00 00       	jmp    102c25 <irq_handler_225>

00102c25 <irq_handler_225>:
  102c25:	6a 00                	push   $0x0
  102c27:	60                   	pusha  
  102c28:	68 e1 00 00 00       	push   $0xe1
  102c2d:	e8 31 08 00 00       	call   103463 <isr_225>
  102c32:	e9 bd 03 00 00       	jmp    102ff4 <handler_exit>
  102c37:	89 f6                	mov    %esi,%esi
  102c39:	8d bc 27 00 00 00 00 	lea    0x0(%edi,%eiz,1),%edi

00102c40 <irq_226>:
  102c40:	e9 00 00 00 00       	jmp    102c45 <irq_handler_226>

00102c45 <irq_handler_226>:
  102c45:	6a 00                	push   $0x0
  102c47:	60                   	pusha  
  102c48:	68 e2 00 00 00       	push   $0xe2
  102c4d:	e8 16 08 00 00       	call   103468 <isr_226>
  102c52:	e9 9d 03 00 00       	jmp    102ff4 <handler_exit>
  102c57:	89 f6                	mov    %esi,%esi
  102c59:	8d bc 27 00 00 00 00 	lea    0x0(%edi,%eiz,1),%edi

00102c60 <irq_227>:
  102c60:	e9 00 00 00 00       	jmp    102c65 <irq_handler_227>

00102c65 <irq_handler_227>:
  102c65:	6a 00                	push   $0x0
  102c67:	60                   	pusha  
  102c68:	68 e3 00 00 00       	push   $0xe3
  102c6d:	e8 fb 07 00 00       	call   10346d <isr_227>
  102c72:	e9 7d 03 00 00       	jmp    102ff4 <handler_exit>
  102c77:	89 f6                	mov    %esi,%esi
  102c79:	8d bc 27 00 00 00 00 	lea    0x0(%edi,%eiz,1),%edi

00102c80 <irq_228>:
  102c80:	e9 00 00 00 00       	jmp    102c85 <irq_handler_228>

00102c85 <irq_handler_228>:
  102c85:	6a 00                	push   $0x0
  102c87:	60                   	pusha  
  102c88:	68 e4 00 00 00       	push   $0xe4
  102c8d:	e8 e0 07 00 00       	call   103472 <isr_228>
  102c92:	e9 5d 03 00 00       	jmp    102ff4 <handler_exit>
  102c97:	89 f6                	mov    %esi,%esi
  102c99:	8d bc 27 00 00 00 00 	lea    0x0(%edi,%eiz,1),%edi

00102ca0 <irq_229>:
  102ca0:	e9 00 00 00 00       	jmp    102ca5 <irq_handler_229>

00102ca5 <irq_handler_229>:
  102ca5:	6a 00                	push   $0x0
  102ca7:	60                   	pusha  
  102ca8:	68 e5 00 00 00       	push   $0xe5
  102cad:	e8 c5 07 00 00       	call   103477 <isr_229>
  102cb2:	e9 3d 03 00 00       	jmp    102ff4 <handler_exit>
  102cb7:	89 f6                	mov    %esi,%esi
  102cb9:	8d bc 27 00 00 00 00 	lea    0x0(%edi,%eiz,1),%edi

00102cc0 <irq_230>:
  102cc0:	e9 00 00 00 00       	jmp    102cc5 <irq_handler_230>

00102cc5 <irq_handler_230>:
  102cc5:	6a 00                	push   $0x0
  102cc7:	60                   	pusha  
  102cc8:	68 e6 00 00 00       	push   $0xe6
  102ccd:	e8 aa 07 00 00       	call   10347c <isr_230>
  102cd2:	e9 1d 03 00 00       	jmp    102ff4 <handler_exit>
  102cd7:	89 f6                	mov    %esi,%esi
  102cd9:	8d bc 27 00 00 00 00 	lea    0x0(%edi,%eiz,1),%edi

00102ce0 <irq_231>:
  102ce0:	e9 00 00 00 00       	jmp    102ce5 <irq_handler_231>

00102ce5 <irq_handler_231>:
  102ce5:	6a 00                	push   $0x0
  102ce7:	60                   	pusha  
  102ce8:	68 e7 00 00 00       	push   $0xe7
  102ced:	e8 8f 07 00 00       	call   103481 <isr_231>
  102cf2:	e9 fd 02 00 00       	jmp    102ff4 <handler_exit>
  102cf7:	89 f6                	mov    %esi,%esi
  102cf9:	8d bc 27 00 00 00 00 	lea    0x0(%edi,%eiz,1),%edi

00102d00 <irq_232>:
  102d00:	e9 00 00 00 00       	jmp    102d05 <irq_handler_232>

00102d05 <irq_handler_232>:
  102d05:	6a 00                	push   $0x0
  102d07:	60                   	pusha  
  102d08:	68 e8 00 00 00       	push   $0xe8
  102d0d:	e8 74 07 00 00       	call   103486 <isr_232>
  102d12:	e9 dd 02 00 00       	jmp    102ff4 <handler_exit>
  102d17:	89 f6                	mov    %esi,%esi
  102d19:	8d bc 27 00 00 00 00 	lea    0x0(%edi,%eiz,1),%edi

00102d20 <irq_233>:
  102d20:	e9 00 00 00 00       	jmp    102d25 <irq_handler_233>

00102d25 <irq_handler_233>:
  102d25:	6a 00                	push   $0x0
  102d27:	60                   	pusha  
  102d28:	68 e9 00 00 00       	push   $0xe9
  102d2d:	e8 59 07 00 00       	call   10348b <isr_233>
  102d32:	e9 bd 02 00 00       	jmp    102ff4 <handler_exit>
  102d37:	89 f6                	mov    %esi,%esi
  102d39:	8d bc 27 00 00 00 00 	lea    0x0(%edi,%eiz,1),%edi

00102d40 <irq_234>:
  102d40:	e9 00 00 00 00       	jmp    102d45 <irq_handler_234>

00102d45 <irq_handler_234>:
  102d45:	6a 00                	push   $0x0
  102d47:	60                   	pusha  
  102d48:	68 ea 00 00 00       	push   $0xea
  102d4d:	e8 3e 07 00 00       	call   103490 <isr_234>
  102d52:	e9 9d 02 00 00       	jmp    102ff4 <handler_exit>
  102d57:	89 f6                	mov    %esi,%esi
  102d59:	8d bc 27 00 00 00 00 	lea    0x0(%edi,%eiz,1),%edi

00102d60 <irq_235>:
  102d60:	e9 00 00 00 00       	jmp    102d65 <irq_handler_235>

00102d65 <irq_handler_235>:
  102d65:	6a 00                	push   $0x0
  102d67:	60                   	pusha  
  102d68:	68 eb 00 00 00       	push   $0xeb
  102d6d:	e8 23 07 00 00       	call   103495 <isr_235>
  102d72:	e9 7d 02 00 00       	jmp    102ff4 <handler_exit>
  102d77:	89 f6                	mov    %esi,%esi
  102d79:	8d bc 27 00 00 00 00 	lea    0x0(%edi,%eiz,1),%edi

00102d80 <irq_236>:
  102d80:	e9 00 00 00 00       	jmp    102d85 <irq_handler_236>

00102d85 <irq_handler_236>:
  102d85:	6a 00                	push   $0x0
  102d87:	60                   	pusha  
  102d88:	68 ec 00 00 00       	push   $0xec
  102d8d:	e8 08 07 00 00       	call   10349a <isr_236>
  102d92:	e9 5d 02 00 00       	jmp    102ff4 <handler_exit>
  102d97:	89 f6                	mov    %esi,%esi
  102d99:	8d bc 27 00 00 00 00 	lea    0x0(%edi,%eiz,1),%edi

00102da0 <irq_237>:
  102da0:	e9 00 00 00 00       	jmp    102da5 <irq_handler_237>

00102da5 <irq_handler_237>:
  102da5:	6a 00                	push   $0x0
  102da7:	60                   	pusha  
  102da8:	68 ed 00 00 00       	push   $0xed
  102dad:	e8 ed 06 00 00       	call   10349f <isr_237>
  102db2:	e9 3d 02 00 00       	jmp    102ff4 <handler_exit>
  102db7:	89 f6                	mov    %esi,%esi
  102db9:	8d bc 27 00 00 00 00 	lea    0x0(%edi,%eiz,1),%edi

00102dc0 <irq_238>:
  102dc0:	e9 00 00 00 00       	jmp    102dc5 <irq_handler_238>

00102dc5 <irq_handler_238>:
  102dc5:	6a 00                	push   $0x0
  102dc7:	60                   	pusha  
  102dc8:	68 ee 00 00 00       	push   $0xee
  102dcd:	e8 d2 06 00 00       	call   1034a4 <isr_238>
  102dd2:	e9 1d 02 00 00       	jmp    102ff4 <handler_exit>
  102dd7:	89 f6                	mov    %esi,%esi
  102dd9:	8d bc 27 00 00 00 00 	lea    0x0(%edi,%eiz,1),%edi

00102de0 <irq_239>:
  102de0:	e9 00 00 00 00       	jmp    102de5 <irq_handler_239>

00102de5 <irq_handler_239>:
  102de5:	6a 00                	push   $0x0
  102de7:	60                   	pusha  
  102de8:	68 ef 00 00 00       	push   $0xef
  102ded:	e8 b7 06 00 00       	call   1034a9 <isr_239>
  102df2:	e9 fd 01 00 00       	jmp    102ff4 <handler_exit>
  102df7:	89 f6                	mov    %esi,%esi
  102df9:	8d bc 27 00 00 00 00 	lea    0x0(%edi,%eiz,1),%edi

00102e00 <irq_240>:
  102e00:	e9 00 00 00 00       	jmp    102e05 <irq_handler_240>

00102e05 <irq_handler_240>:
  102e05:	6a 00                	push   $0x0
  102e07:	60                   	pusha  
  102e08:	68 f0 00 00 00       	push   $0xf0
  102e0d:	e8 9c 06 00 00       	call   1034ae <isr_240>
  102e12:	e9 dd 01 00 00       	jmp    102ff4 <handler_exit>
  102e17:	89 f6                	mov    %esi,%esi
  102e19:	8d bc 27 00 00 00 00 	lea    0x0(%edi,%eiz,1),%edi

00102e20 <irq_241>:
  102e20:	e9 00 00 00 00       	jmp    102e25 <irq_handler_241>

00102e25 <irq_handler_241>:
  102e25:	6a 00                	push   $0x0
  102e27:	60                   	pusha  
  102e28:	68 f1 00 00 00       	push   $0xf1
  102e2d:	e8 81 06 00 00       	call   1034b3 <isr_241>
  102e32:	e9 bd 01 00 00       	jmp    102ff4 <handler_exit>
  102e37:	89 f6                	mov    %esi,%esi
  102e39:	8d bc 27 00 00 00 00 	lea    0x0(%edi,%eiz,1),%edi

00102e40 <irq_242>:
  102e40:	e9 00 00 00 00       	jmp    102e45 <irq_handler_242>

00102e45 <irq_handler_242>:
  102e45:	6a 00                	push   $0x0
  102e47:	60                   	pusha  
  102e48:	68 f2 00 00 00       	push   $0xf2
  102e4d:	e8 66 06 00 00       	call   1034b8 <isr_242>
  102e52:	e9 9d 01 00 00       	jmp    102ff4 <handler_exit>
  102e57:	89 f6                	mov    %esi,%esi
  102e59:	8d bc 27 00 00 00 00 	lea    0x0(%edi,%eiz,1),%edi

00102e60 <irq_243>:
  102e60:	e9 00 00 00 00       	jmp    102e65 <irq_handler_243>

00102e65 <irq_handler_243>:
  102e65:	6a 00                	push   $0x0
  102e67:	60                   	pusha  
  102e68:	68 f3 00 00 00       	push   $0xf3
  102e6d:	e8 4b 06 00 00       	call   1034bd <isr_243>
  102e72:	e9 7d 01 00 00       	jmp    102ff4 <handler_exit>
  102e77:	89 f6                	mov    %esi,%esi
  102e79:	8d bc 27 00 00 00 00 	lea    0x0(%edi,%eiz,1),%edi

00102e80 <irq_244>:
  102e80:	e9 00 00 00 00       	jmp    102e85 <irq_handler_244>

00102e85 <irq_handler_244>:
  102e85:	6a 00                	push   $0x0
  102e87:	60                   	pusha  
  102e88:	68 f4 00 00 00       	push   $0xf4
  102e8d:	e8 30 06 00 00       	call   1034c2 <isr_244>
  102e92:	e9 5d 01 00 00       	jmp    102ff4 <handler_exit>
  102e97:	89 f6                	mov    %esi,%esi
  102e99:	8d bc 27 00 00 00 00 	lea    0x0(%edi,%eiz,1),%edi

00102ea0 <irq_245>:
  102ea0:	e9 00 00 00 00       	jmp    102ea5 <irq_handler_245>

00102ea5 <irq_handler_245>:
  102ea5:	6a 00                	push   $0x0
  102ea7:	60                   	pusha  
  102ea8:	68 f5 00 00 00       	push   $0xf5
  102ead:	e8 15 06 00 00       	call   1034c7 <isr_245>
  102eb2:	e9 3d 01 00 00       	jmp    102ff4 <handler_exit>
  102eb7:	89 f6                	mov    %esi,%esi
  102eb9:	8d bc 27 00 00 00 00 	lea    0x0(%edi,%eiz,1),%edi

00102ec0 <irq_246>:
  102ec0:	e9 00 00 00 00       	jmp    102ec5 <irq_handler_246>

00102ec5 <irq_handler_246>:
  102ec5:	6a 00                	push   $0x0
  102ec7:	60                   	pusha  
  102ec8:	68 f6 00 00 00       	push   $0xf6
  102ecd:	e8 fa 05 00 00       	call   1034cc <isr_246>
  102ed2:	e9 1d 01 00 00       	jmp    102ff4 <handler_exit>
  102ed7:	89 f6                	mov    %esi,%esi
  102ed9:	8d bc 27 00 00 00 00 	lea    0x0(%edi,%eiz,1),%edi

00102ee0 <irq_247>:
  102ee0:	e9 00 00 00 00       	jmp    102ee5 <irq_handler_247>

00102ee5 <irq_handler_247>:
  102ee5:	6a 00                	push   $0x0
  102ee7:	60                   	pusha  
  102ee8:	68 f7 00 00 00       	push   $0xf7
  102eed:	e8 df 05 00 00       	call   1034d1 <isr_247>
  102ef2:	e9 fd 00 00 00       	jmp    102ff4 <handler_exit>
  102ef7:	89 f6                	mov    %esi,%esi
  102ef9:	8d bc 27 00 00 00 00 	lea    0x0(%edi,%eiz,1),%edi

00102f00 <irq_248>:
  102f00:	e9 00 00 00 00       	jmp    102f05 <irq_handler_248>

00102f05 <irq_handler_248>:
  102f05:	6a 00                	push   $0x0
  102f07:	60                   	pusha  
  102f08:	68 f8 00 00 00       	push   $0xf8
  102f0d:	e8 c4 05 00 00       	call   1034d6 <isr_248>
  102f12:	e9 dd 00 00 00       	jmp    102ff4 <handler_exit>
  102f17:	89 f6                	mov    %esi,%esi
  102f19:	8d bc 27 00 00 00 00 	lea    0x0(%edi,%eiz,1),%edi

00102f20 <irq_249>:
  102f20:	e9 00 00 00 00       	jmp    102f25 <irq_handler_249>

00102f25 <irq_handler_249>:
  102f25:	6a 00                	push   $0x0
  102f27:	60                   	pusha  
  102f28:	68 f9 00 00 00       	push   $0xf9
  102f2d:	e8 a9 05 00 00       	call   1034db <isr_249>
  102f32:	e9 bd 00 00 00       	jmp    102ff4 <handler_exit>
  102f37:	89 f6                	mov    %esi,%esi
  102f39:	8d bc 27 00 00 00 00 	lea    0x0(%edi,%eiz,1),%edi

00102f40 <irq_250>:
  102f40:	e9 00 00 00 00       	jmp    102f45 <irq_handler_250>

00102f45 <irq_handler_250>:
  102f45:	6a 00                	push   $0x0
  102f47:	60                   	pusha  
  102f48:	68 fa 00 00 00       	push   $0xfa
  102f4d:	e8 8e 05 00 00       	call   1034e0 <isr_250>
  102f52:	e9 9d 00 00 00       	jmp    102ff4 <handler_exit>
  102f57:	89 f6                	mov    %esi,%esi
  102f59:	8d bc 27 00 00 00 00 	lea    0x0(%edi,%eiz,1),%edi

00102f60 <irq_251>:
  102f60:	e9 00 00 00 00       	jmp    102f65 <irq_handler_251>

00102f65 <irq_handler_251>:
  102f65:	6a 00                	push   $0x0
  102f67:	60                   	pusha  
  102f68:	68 fb 00 00 00       	push   $0xfb
  102f6d:	e8 73 05 00 00       	call   1034e5 <isr_251>
  102f72:	e9 7d 00 00 00       	jmp    102ff4 <handler_exit>
  102f77:	89 f6                	mov    %esi,%esi
  102f79:	8d bc 27 00 00 00 00 	lea    0x0(%edi,%eiz,1),%edi

00102f80 <irq_252>:
  102f80:	e9 00 00 00 00       	jmp    102f85 <irq_handler_252>

00102f85 <irq_handler_252>:
  102f85:	6a 00                	push   $0x0
  102f87:	60                   	pusha  
  102f88:	68 fc 00 00 00       	push   $0xfc
  102f8d:	e8 58 05 00 00       	call   1034ea <isr_252>
  102f92:	eb 60                	jmp    102ff4 <handler_exit>
  102f94:	8d b6 00 00 00 00    	lea    0x0(%esi),%esi
  102f9a:	8d bf 00 00 00 00    	lea    0x0(%edi),%edi

00102fa0 <irq_253>:
  102fa0:	e9 00 00 00 00       	jmp    102fa5 <irq_handler_253>

00102fa5 <irq_handler_253>:
  102fa5:	6a 00                	push   $0x0
  102fa7:	60                   	pusha  
  102fa8:	68 fd 00 00 00       	push   $0xfd
  102fad:	e8 3d 05 00 00       	call   1034ef <isr_253>
  102fb2:	eb 40                	jmp    102ff4 <handler_exit>
  102fb4:	8d b6 00 00 00 00    	lea    0x0(%esi),%esi
  102fba:	8d bf 00 00 00 00    	lea    0x0(%edi),%edi

00102fc0 <irq_254>:
  102fc0:	e9 00 00 00 00       	jmp    102fc5 <irq_handler_254>

00102fc5 <irq_handler_254>:
  102fc5:	6a 00                	push   $0x0
  102fc7:	60                   	pusha  
  102fc8:	68 fe 00 00 00       	push   $0xfe
  102fcd:	e8 22 05 00 00       	call   1034f4 <isr_254>
  102fd2:	eb 20                	jmp    102ff4 <handler_exit>
  102fd4:	8d b6 00 00 00 00    	lea    0x0(%esi),%esi
  102fda:	8d bf 00 00 00 00    	lea    0x0(%edi),%edi

00102fe0 <irq_255>:
  102fe0:	e9 00 00 00 00       	jmp    102fe5 <irq_handler_255>

00102fe5 <irq_handler_255>:
  102fe5:	6a 00                	push   $0x0
  102fe7:	60                   	pusha  
  102fe8:	68 ff 00 00 00       	push   $0xff
  102fed:	e8 07 05 00 00       	call   1034f9 <isr_255>
  102ff2:	eb 00                	jmp    102ff4 <handler_exit>

00102ff4 <handler_exit>:
  102ff4:	83 c4 04             	add    $0x4,%esp
  102ff7:	61                   	popa   
  102ff8:	83 c4 04             	add    $0x4,%esp
  102ffb:	cf                   	iret   

00102ffc <irq_resume>:
  102ffc:	61                   	popa   
  102ffd:	c3                   	ret    

00102ffe <isr_0>:
  102ffe:	e9 57 15 00 00       	jmp    10455a <isr_unhandled>

00103003 <isr_1>:
  103003:	e9 52 15 00 00       	jmp    10455a <isr_unhandled>

00103008 <isr_2>:
  103008:	e9 4d 15 00 00       	jmp    10455a <isr_unhandled>

0010300d <isr_3>:
  10300d:	e9 48 15 00 00       	jmp    10455a <isr_unhandled>

00103012 <isr_4>:
  103012:	e9 43 15 00 00       	jmp    10455a <isr_unhandled>

00103017 <isr_5>:
  103017:	e9 3e 15 00 00       	jmp    10455a <isr_unhandled>

0010301c <isr_6>:
  10301c:	e9 39 15 00 00       	jmp    10455a <isr_unhandled>

00103021 <isr_7>:
  103021:	e9 34 15 00 00       	jmp    10455a <isr_unhandled>

00103026 <isr_8>:
  103026:	e9 2f 15 00 00       	jmp    10455a <isr_unhandled>

0010302b <isr_9>:
  10302b:	e9 2a 15 00 00       	jmp    10455a <isr_unhandled>

00103030 <isr_10>:
  103030:	e9 25 15 00 00       	jmp    10455a <isr_unhandled>

00103035 <isr_11>:
  103035:	e9 20 15 00 00       	jmp    10455a <isr_unhandled>

0010303a <isr_12>:
  10303a:	e9 1b 15 00 00       	jmp    10455a <isr_unhandled>

0010303f <isr_13>:
  10303f:	e9 16 15 00 00       	jmp    10455a <isr_unhandled>

00103044 <isr_14>:
  103044:	e9 11 15 00 00       	jmp    10455a <isr_unhandled>

00103049 <isr_15>:
  103049:	e9 0c 15 00 00       	jmp    10455a <isr_unhandled>

0010304e <isr_16>:
  10304e:	e9 07 15 00 00       	jmp    10455a <isr_unhandled>

00103053 <isr_17>:
  103053:	e9 02 15 00 00       	jmp    10455a <isr_unhandled>

00103058 <isr_18>:
  103058:	e9 fd 14 00 00       	jmp    10455a <isr_unhandled>

0010305d <isr_19>:
  10305d:	e9 f8 14 00 00       	jmp    10455a <isr_unhandled>

00103062 <isr_20>:
  103062:	e9 f3 14 00 00       	jmp    10455a <isr_unhandled>

00103067 <isr_21>:
  103067:	e9 ee 14 00 00       	jmp    10455a <isr_unhandled>

0010306c <isr_22>:
  10306c:	e9 e9 14 00 00       	jmp    10455a <isr_unhandled>

00103071 <isr_23>:
  103071:	e9 e4 14 00 00       	jmp    10455a <isr_unhandled>

00103076 <isr_24>:
  103076:	e9 df 14 00 00       	jmp    10455a <isr_unhandled>

0010307b <isr_25>:
  10307b:	e9 da 14 00 00       	jmp    10455a <isr_unhandled>

00103080 <isr_26>:
  103080:	e9 d5 14 00 00       	jmp    10455a <isr_unhandled>

00103085 <isr_27>:
  103085:	e9 d0 14 00 00       	jmp    10455a <isr_unhandled>

0010308a <isr_28>:
  10308a:	e9 cb 14 00 00       	jmp    10455a <isr_unhandled>

0010308f <isr_29>:
  10308f:	e9 c6 14 00 00       	jmp    10455a <isr_unhandled>

00103094 <isr_30>:
  103094:	e9 c1 14 00 00       	jmp    10455a <isr_unhandled>

00103099 <isr_31>:
  103099:	e9 bc 14 00 00       	jmp    10455a <isr_unhandled>

0010309e <isr_32>:
  10309e:	e9 b7 14 00 00       	jmp    10455a <isr_unhandled>

001030a3 <isr_33>:
  1030a3:	e9 b2 14 00 00       	jmp    10455a <isr_unhandled>

001030a8 <isr_34>:
  1030a8:	e9 ad 14 00 00       	jmp    10455a <isr_unhandled>

001030ad <isr_35>:
  1030ad:	e9 a8 14 00 00       	jmp    10455a <isr_unhandled>

001030b2 <isr_36>:
  1030b2:	e9 a3 14 00 00       	jmp    10455a <isr_unhandled>

001030b7 <isr_37>:
  1030b7:	e9 9e 14 00 00       	jmp    10455a <isr_unhandled>

001030bc <isr_38>:
  1030bc:	e9 99 14 00 00       	jmp    10455a <isr_unhandled>

001030c1 <isr_39>:
  1030c1:	e9 94 14 00 00       	jmp    10455a <isr_unhandled>

001030c6 <isr_40>:
  1030c6:	e9 8f 14 00 00       	jmp    10455a <isr_unhandled>

001030cb <isr_41>:
  1030cb:	e9 8a 14 00 00       	jmp    10455a <isr_unhandled>

001030d0 <isr_42>:
  1030d0:	e9 85 14 00 00       	jmp    10455a <isr_unhandled>

001030d5 <isr_43>:
  1030d5:	e9 80 14 00 00       	jmp    10455a <isr_unhandled>

001030da <isr_44>:
  1030da:	e9 7b 14 00 00       	jmp    10455a <isr_unhandled>

001030df <isr_45>:
  1030df:	e9 76 14 00 00       	jmp    10455a <isr_unhandled>

001030e4 <isr_46>:
  1030e4:	e9 71 14 00 00       	jmp    10455a <isr_unhandled>

001030e9 <isr_47>:
  1030e9:	e9 6c 14 00 00       	jmp    10455a <isr_unhandled>

001030ee <isr_48>:
  1030ee:	e9 67 14 00 00       	jmp    10455a <isr_unhandled>

001030f3 <isr_49>:
  1030f3:	e9 62 14 00 00       	jmp    10455a <isr_unhandled>

001030f8 <isr_50>:
  1030f8:	e9 5d 14 00 00       	jmp    10455a <isr_unhandled>

001030fd <isr_51>:
  1030fd:	e9 58 14 00 00       	jmp    10455a <isr_unhandled>

00103102 <isr_52>:
  103102:	e9 53 14 00 00       	jmp    10455a <isr_unhandled>

00103107 <isr_53>:
  103107:	e9 4e 14 00 00       	jmp    10455a <isr_unhandled>

0010310c <isr_54>:
  10310c:	e9 49 14 00 00       	jmp    10455a <isr_unhandled>

00103111 <isr_55>:
  103111:	e9 44 14 00 00       	jmp    10455a <isr_unhandled>

00103116 <isr_56>:
  103116:	e9 3f 14 00 00       	jmp    10455a <isr_unhandled>

0010311b <isr_57>:
  10311b:	e9 3a 14 00 00       	jmp    10455a <isr_unhandled>

00103120 <isr_58>:
  103120:	e9 35 14 00 00       	jmp    10455a <isr_unhandled>

00103125 <isr_59>:
  103125:	e9 30 14 00 00       	jmp    10455a <isr_unhandled>

0010312a <isr_60>:
  10312a:	e9 2b 14 00 00       	jmp    10455a <isr_unhandled>

0010312f <isr_61>:
  10312f:	e9 26 14 00 00       	jmp    10455a <isr_unhandled>

00103134 <isr_62>:
  103134:	e9 21 14 00 00       	jmp    10455a <isr_unhandled>

00103139 <isr_63>:
  103139:	e9 1c 14 00 00       	jmp    10455a <isr_unhandled>

0010313e <isr_64>:
  10313e:	e9 17 14 00 00       	jmp    10455a <isr_unhandled>

00103143 <isr_65>:
  103143:	e9 12 14 00 00       	jmp    10455a <isr_unhandled>

00103148 <isr_66>:
  103148:	e9 0d 14 00 00       	jmp    10455a <isr_unhandled>

0010314d <isr_67>:
  10314d:	e9 08 14 00 00       	jmp    10455a <isr_unhandled>

00103152 <isr_68>:
  103152:	e9 03 14 00 00       	jmp    10455a <isr_unhandled>

00103157 <isr_69>:
  103157:	e9 fe 13 00 00       	jmp    10455a <isr_unhandled>

0010315c <isr_70>:
  10315c:	e9 f9 13 00 00       	jmp    10455a <isr_unhandled>

00103161 <isr_71>:
  103161:	e9 f4 13 00 00       	jmp    10455a <isr_unhandled>

00103166 <isr_72>:
  103166:	e9 ef 13 00 00       	jmp    10455a <isr_unhandled>

0010316b <isr_73>:
  10316b:	e9 ea 13 00 00       	jmp    10455a <isr_unhandled>

00103170 <isr_74>:
  103170:	e9 e5 13 00 00       	jmp    10455a <isr_unhandled>

00103175 <isr_75>:
  103175:	e9 e0 13 00 00       	jmp    10455a <isr_unhandled>

0010317a <isr_76>:
  10317a:	e9 db 13 00 00       	jmp    10455a <isr_unhandled>

0010317f <isr_77>:
  10317f:	e9 d6 13 00 00       	jmp    10455a <isr_unhandled>

00103184 <isr_78>:
  103184:	e9 d1 13 00 00       	jmp    10455a <isr_unhandled>

00103189 <isr_79>:
  103189:	e9 cc 13 00 00       	jmp    10455a <isr_unhandled>

0010318e <isr_80>:
  10318e:	e9 c7 13 00 00       	jmp    10455a <isr_unhandled>

00103193 <isr_81>:
  103193:	e9 c2 13 00 00       	jmp    10455a <isr_unhandled>

00103198 <isr_82>:
  103198:	e9 bd 13 00 00       	jmp    10455a <isr_unhandled>

0010319d <isr_83>:
  10319d:	e9 b8 13 00 00       	jmp    10455a <isr_unhandled>

001031a2 <isr_84>:
  1031a2:	e9 b3 13 00 00       	jmp    10455a <isr_unhandled>

001031a7 <isr_85>:
  1031a7:	e9 ae 13 00 00       	jmp    10455a <isr_unhandled>

001031ac <isr_86>:
  1031ac:	e9 a9 13 00 00       	jmp    10455a <isr_unhandled>

001031b1 <isr_87>:
  1031b1:	e9 a4 13 00 00       	jmp    10455a <isr_unhandled>

001031b6 <isr_88>:
  1031b6:	e9 9f 13 00 00       	jmp    10455a <isr_unhandled>

001031bb <isr_89>:
  1031bb:	e9 9a 13 00 00       	jmp    10455a <isr_unhandled>

001031c0 <isr_90>:
  1031c0:	e9 95 13 00 00       	jmp    10455a <isr_unhandled>

001031c5 <isr_91>:
  1031c5:	e9 90 13 00 00       	jmp    10455a <isr_unhandled>

001031ca <isr_92>:
  1031ca:	e9 8b 13 00 00       	jmp    10455a <isr_unhandled>

001031cf <isr_93>:
  1031cf:	e9 86 13 00 00       	jmp    10455a <isr_unhandled>

001031d4 <isr_94>:
  1031d4:	e9 81 13 00 00       	jmp    10455a <isr_unhandled>

001031d9 <isr_95>:
  1031d9:	e9 7c 13 00 00       	jmp    10455a <isr_unhandled>

001031de <isr_96>:
  1031de:	e9 77 13 00 00       	jmp    10455a <isr_unhandled>

001031e3 <isr_97>:
  1031e3:	e9 72 13 00 00       	jmp    10455a <isr_unhandled>

001031e8 <isr_98>:
  1031e8:	e9 6d 13 00 00       	jmp    10455a <isr_unhandled>

001031ed <isr_99>:
  1031ed:	e9 68 13 00 00       	jmp    10455a <isr_unhandled>

001031f2 <isr_100>:
  1031f2:	e9 63 13 00 00       	jmp    10455a <isr_unhandled>

001031f7 <isr_101>:
  1031f7:	e9 5e 13 00 00       	jmp    10455a <isr_unhandled>

001031fc <isr_102>:
  1031fc:	e9 59 13 00 00       	jmp    10455a <isr_unhandled>

00103201 <isr_103>:
  103201:	e9 54 13 00 00       	jmp    10455a <isr_unhandled>

00103206 <isr_104>:
  103206:	e9 4f 13 00 00       	jmp    10455a <isr_unhandled>

0010320b <isr_105>:
  10320b:	e9 4a 13 00 00       	jmp    10455a <isr_unhandled>

00103210 <isr_106>:
  103210:	e9 45 13 00 00       	jmp    10455a <isr_unhandled>

00103215 <isr_107>:
  103215:	e9 40 13 00 00       	jmp    10455a <isr_unhandled>

0010321a <isr_108>:
  10321a:	e9 3b 13 00 00       	jmp    10455a <isr_unhandled>

0010321f <isr_109>:
  10321f:	e9 36 13 00 00       	jmp    10455a <isr_unhandled>

00103224 <isr_110>:
  103224:	e9 31 13 00 00       	jmp    10455a <isr_unhandled>

00103229 <isr_111>:
  103229:	e9 2c 13 00 00       	jmp    10455a <isr_unhandled>

0010322e <isr_112>:
  10322e:	e9 27 13 00 00       	jmp    10455a <isr_unhandled>

00103233 <isr_113>:
  103233:	e9 22 13 00 00       	jmp    10455a <isr_unhandled>

00103238 <isr_114>:
  103238:	e9 1d 13 00 00       	jmp    10455a <isr_unhandled>

0010323d <isr_115>:
  10323d:	e9 18 13 00 00       	jmp    10455a <isr_unhandled>

00103242 <isr_116>:
  103242:	e9 13 13 00 00       	jmp    10455a <isr_unhandled>

00103247 <isr_117>:
  103247:	e9 0e 13 00 00       	jmp    10455a <isr_unhandled>

0010324c <isr_118>:
  10324c:	e9 09 13 00 00       	jmp    10455a <isr_unhandled>

00103251 <isr_119>:
  103251:	e9 04 13 00 00       	jmp    10455a <isr_unhandled>

00103256 <isr_120>:
  103256:	e9 ff 12 00 00       	jmp    10455a <isr_unhandled>

0010325b <isr_121>:
  10325b:	e9 fa 12 00 00       	jmp    10455a <isr_unhandled>

00103260 <isr_122>:
  103260:	e9 f5 12 00 00       	jmp    10455a <isr_unhandled>

00103265 <isr_123>:
  103265:	e9 f0 12 00 00       	jmp    10455a <isr_unhandled>

0010326a <isr_124>:
  10326a:	e9 eb 12 00 00       	jmp    10455a <isr_unhandled>

0010326f <isr_125>:
  10326f:	e9 e6 12 00 00       	jmp    10455a <isr_unhandled>

00103274 <isr_126>:
  103274:	e9 e1 12 00 00       	jmp    10455a <isr_unhandled>

00103279 <isr_127>:
  103279:	e9 dc 12 00 00       	jmp    10455a <isr_unhandled>

0010327e <isr_128>:
  10327e:	e9 d7 12 00 00       	jmp    10455a <isr_unhandled>

00103283 <isr_129>:
  103283:	e9 d2 12 00 00       	jmp    10455a <isr_unhandled>

00103288 <isr_130>:
  103288:	e9 cd 12 00 00       	jmp    10455a <isr_unhandled>

0010328d <isr_131>:
  10328d:	e9 c8 12 00 00       	jmp    10455a <isr_unhandled>

00103292 <isr_132>:
  103292:	e9 c3 12 00 00       	jmp    10455a <isr_unhandled>

00103297 <isr_133>:
  103297:	e9 be 12 00 00       	jmp    10455a <isr_unhandled>

0010329c <isr_134>:
  10329c:	e9 b9 12 00 00       	jmp    10455a <isr_unhandled>

001032a1 <isr_135>:
  1032a1:	e9 b4 12 00 00       	jmp    10455a <isr_unhandled>

001032a6 <isr_136>:
  1032a6:	e9 af 12 00 00       	jmp    10455a <isr_unhandled>

001032ab <isr_137>:
  1032ab:	e9 aa 12 00 00       	jmp    10455a <isr_unhandled>

001032b0 <isr_138>:
  1032b0:	e9 a5 12 00 00       	jmp    10455a <isr_unhandled>

001032b5 <isr_139>:
  1032b5:	e9 a0 12 00 00       	jmp    10455a <isr_unhandled>

001032ba <isr_140>:
  1032ba:	e9 9b 12 00 00       	jmp    10455a <isr_unhandled>

001032bf <isr_141>:
  1032bf:	e9 96 12 00 00       	jmp    10455a <isr_unhandled>

001032c4 <isr_142>:
  1032c4:	e9 91 12 00 00       	jmp    10455a <isr_unhandled>

001032c9 <isr_143>:
  1032c9:	e9 8c 12 00 00       	jmp    10455a <isr_unhandled>

001032ce <isr_144>:
  1032ce:	e9 87 12 00 00       	jmp    10455a <isr_unhandled>

001032d3 <isr_145>:
  1032d3:	e9 82 12 00 00       	jmp    10455a <isr_unhandled>

001032d8 <isr_146>:
  1032d8:	e9 7d 12 00 00       	jmp    10455a <isr_unhandled>

001032dd <isr_147>:
  1032dd:	e9 78 12 00 00       	jmp    10455a <isr_unhandled>

001032e2 <isr_148>:
  1032e2:	e9 73 12 00 00       	jmp    10455a <isr_unhandled>

001032e7 <isr_149>:
  1032e7:	e9 6e 12 00 00       	jmp    10455a <isr_unhandled>

001032ec <isr_150>:
  1032ec:	e9 69 12 00 00       	jmp    10455a <isr_unhandled>

001032f1 <isr_151>:
  1032f1:	e9 64 12 00 00       	jmp    10455a <isr_unhandled>

001032f6 <isr_152>:
  1032f6:	e9 5f 12 00 00       	jmp    10455a <isr_unhandled>

001032fb <isr_153>:
  1032fb:	e9 5a 12 00 00       	jmp    10455a <isr_unhandled>

00103300 <isr_154>:
  103300:	e9 55 12 00 00       	jmp    10455a <isr_unhandled>

00103305 <isr_155>:
  103305:	e9 50 12 00 00       	jmp    10455a <isr_unhandled>

0010330a <isr_156>:
  10330a:	e9 4b 12 00 00       	jmp    10455a <isr_unhandled>

0010330f <isr_157>:
  10330f:	e9 46 12 00 00       	jmp    10455a <isr_unhandled>

00103314 <isr_158>:
  103314:	e9 41 12 00 00       	jmp    10455a <isr_unhandled>

00103319 <isr_159>:
  103319:	e9 3c 12 00 00       	jmp    10455a <isr_unhandled>

0010331e <isr_160>:
  10331e:	e9 37 12 00 00       	jmp    10455a <isr_unhandled>

00103323 <isr_161>:
  103323:	e9 32 12 00 00       	jmp    10455a <isr_unhandled>

00103328 <isr_162>:
  103328:	e9 2d 12 00 00       	jmp    10455a <isr_unhandled>

0010332d <isr_163>:
  10332d:	e9 28 12 00 00       	jmp    10455a <isr_unhandled>

00103332 <isr_164>:
  103332:	e9 23 12 00 00       	jmp    10455a <isr_unhandled>

00103337 <isr_165>:
  103337:	e9 1e 12 00 00       	jmp    10455a <isr_unhandled>

0010333c <isr_166>:
  10333c:	e9 19 12 00 00       	jmp    10455a <isr_unhandled>

00103341 <isr_167>:
  103341:	e9 14 12 00 00       	jmp    10455a <isr_unhandled>

00103346 <isr_168>:
  103346:	e9 0f 12 00 00       	jmp    10455a <isr_unhandled>

0010334b <isr_169>:
  10334b:	e9 0a 12 00 00       	jmp    10455a <isr_unhandled>

00103350 <isr_170>:
  103350:	e9 05 12 00 00       	jmp    10455a <isr_unhandled>

00103355 <isr_171>:
  103355:	e9 00 12 00 00       	jmp    10455a <isr_unhandled>

0010335a <isr_172>:
  10335a:	e9 fb 11 00 00       	jmp    10455a <isr_unhandled>

0010335f <isr_173>:
  10335f:	e9 f6 11 00 00       	jmp    10455a <isr_unhandled>

00103364 <isr_174>:
  103364:	e9 f1 11 00 00       	jmp    10455a <isr_unhandled>

00103369 <isr_175>:
  103369:	e9 ec 11 00 00       	jmp    10455a <isr_unhandled>

0010336e <isr_176>:
  10336e:	e9 e7 11 00 00       	jmp    10455a <isr_unhandled>

00103373 <isr_177>:
  103373:	e9 e2 11 00 00       	jmp    10455a <isr_unhandled>

00103378 <isr_178>:
  103378:	e9 dd 11 00 00       	jmp    10455a <isr_unhandled>

0010337d <isr_179>:
  10337d:	e9 d8 11 00 00       	jmp    10455a <isr_unhandled>

00103382 <isr_180>:
  103382:	e9 d3 11 00 00       	jmp    10455a <isr_unhandled>

00103387 <isr_181>:
  103387:	e9 ce 11 00 00       	jmp    10455a <isr_unhandled>

0010338c <isr_182>:
  10338c:	e9 c9 11 00 00       	jmp    10455a <isr_unhandled>

00103391 <isr_183>:
  103391:	e9 c4 11 00 00       	jmp    10455a <isr_unhandled>

00103396 <isr_184>:
  103396:	e9 bf 11 00 00       	jmp    10455a <isr_unhandled>

0010339b <isr_185>:
  10339b:	e9 ba 11 00 00       	jmp    10455a <isr_unhandled>

001033a0 <isr_186>:
  1033a0:	e9 b5 11 00 00       	jmp    10455a <isr_unhandled>

001033a5 <isr_187>:
  1033a5:	e9 b0 11 00 00       	jmp    10455a <isr_unhandled>

001033aa <isr_188>:
  1033aa:	e9 ab 11 00 00       	jmp    10455a <isr_unhandled>

001033af <isr_189>:
  1033af:	e9 a6 11 00 00       	jmp    10455a <isr_unhandled>

001033b4 <isr_190>:
  1033b4:	e9 a1 11 00 00       	jmp    10455a <isr_unhandled>

001033b9 <isr_191>:
  1033b9:	e9 9c 11 00 00       	jmp    10455a <isr_unhandled>

001033be <isr_192>:
  1033be:	e9 97 11 00 00       	jmp    10455a <isr_unhandled>

001033c3 <isr_193>:
  1033c3:	e9 92 11 00 00       	jmp    10455a <isr_unhandled>

001033c8 <isr_194>:
  1033c8:	e9 8d 11 00 00       	jmp    10455a <isr_unhandled>

001033cd <isr_195>:
  1033cd:	e9 88 11 00 00       	jmp    10455a <isr_unhandled>

001033d2 <isr_196>:
  1033d2:	e9 83 11 00 00       	jmp    10455a <isr_unhandled>

001033d7 <isr_197>:
  1033d7:	e9 7e 11 00 00       	jmp    10455a <isr_unhandled>

001033dc <isr_198>:
  1033dc:	e9 79 11 00 00       	jmp    10455a <isr_unhandled>

001033e1 <isr_199>:
  1033e1:	e9 74 11 00 00       	jmp    10455a <isr_unhandled>

001033e6 <isr_200>:
  1033e6:	e9 6f 11 00 00       	jmp    10455a <isr_unhandled>

001033eb <isr_201>:
  1033eb:	e9 6a 11 00 00       	jmp    10455a <isr_unhandled>

001033f0 <isr_202>:
  1033f0:	e9 65 11 00 00       	jmp    10455a <isr_unhandled>

001033f5 <isr_203>:
  1033f5:	e9 60 11 00 00       	jmp    10455a <isr_unhandled>

001033fa <isr_204>:
  1033fa:	e9 5b 11 00 00       	jmp    10455a <isr_unhandled>

001033ff <isr_205>:
  1033ff:	e9 56 11 00 00       	jmp    10455a <isr_unhandled>

00103404 <isr_206>:
  103404:	e9 51 11 00 00       	jmp    10455a <isr_unhandled>

00103409 <isr_207>:
  103409:	e9 4c 11 00 00       	jmp    10455a <isr_unhandled>

0010340e <isr_208>:
  10340e:	e9 47 11 00 00       	jmp    10455a <isr_unhandled>

00103413 <isr_209>:
  103413:	e9 42 11 00 00       	jmp    10455a <isr_unhandled>

00103418 <isr_210>:
  103418:	e9 3d 11 00 00       	jmp    10455a <isr_unhandled>

0010341d <isr_211>:
  10341d:	e9 38 11 00 00       	jmp    10455a <isr_unhandled>

00103422 <isr_212>:
  103422:	e9 33 11 00 00       	jmp    10455a <isr_unhandled>

00103427 <isr_213>:
  103427:	e9 2e 11 00 00       	jmp    10455a <isr_unhandled>

0010342c <isr_214>:
  10342c:	e9 29 11 00 00       	jmp    10455a <isr_unhandled>

00103431 <isr_215>:
  103431:	e9 24 11 00 00       	jmp    10455a <isr_unhandled>

00103436 <isr_216>:
  103436:	e9 1f 11 00 00       	jmp    10455a <isr_unhandled>

0010343b <isr_217>:
  10343b:	e9 1a 11 00 00       	jmp    10455a <isr_unhandled>

00103440 <isr_218>:
  103440:	e9 15 11 00 00       	jmp    10455a <isr_unhandled>

00103445 <isr_219>:
  103445:	e9 10 11 00 00       	jmp    10455a <isr_unhandled>

0010344a <isr_220>:
  10344a:	e9 0b 11 00 00       	jmp    10455a <isr_unhandled>

0010344f <isr_221>:
  10344f:	e9 06 11 00 00       	jmp    10455a <isr_unhandled>

00103454 <isr_222>:
  103454:	e9 01 11 00 00       	jmp    10455a <isr_unhandled>

00103459 <isr_223>:
  103459:	e9 fc 10 00 00       	jmp    10455a <isr_unhandled>

0010345e <isr_224>:
  10345e:	e9 f7 10 00 00       	jmp    10455a <isr_unhandled>

00103463 <isr_225>:
  103463:	e9 f2 10 00 00       	jmp    10455a <isr_unhandled>

00103468 <isr_226>:
  103468:	e9 ed 10 00 00       	jmp    10455a <isr_unhandled>

0010346d <isr_227>:
  10346d:	e9 e8 10 00 00       	jmp    10455a <isr_unhandled>

00103472 <isr_228>:
  103472:	e9 e3 10 00 00       	jmp    10455a <isr_unhandled>

00103477 <isr_229>:
  103477:	e9 de 10 00 00       	jmp    10455a <isr_unhandled>

0010347c <isr_230>:
  10347c:	e9 d9 10 00 00       	jmp    10455a <isr_unhandled>

00103481 <isr_231>:
  103481:	e9 d4 10 00 00       	jmp    10455a <isr_unhandled>

00103486 <isr_232>:
  103486:	e9 cf 10 00 00       	jmp    10455a <isr_unhandled>

0010348b <isr_233>:
  10348b:	e9 ca 10 00 00       	jmp    10455a <isr_unhandled>

00103490 <isr_234>:
  103490:	e9 c5 10 00 00       	jmp    10455a <isr_unhandled>

00103495 <isr_235>:
  103495:	e9 c0 10 00 00       	jmp    10455a <isr_unhandled>

0010349a <isr_236>:
  10349a:	e9 bb 10 00 00       	jmp    10455a <isr_unhandled>

0010349f <isr_237>:
  10349f:	e9 b6 10 00 00       	jmp    10455a <isr_unhandled>

001034a4 <isr_238>:
  1034a4:	e9 b1 10 00 00       	jmp    10455a <isr_unhandled>

001034a9 <isr_239>:
  1034a9:	e9 ac 10 00 00       	jmp    10455a <isr_unhandled>

001034ae <isr_240>:
  1034ae:	e9 a7 10 00 00       	jmp    10455a <isr_unhandled>

001034b3 <isr_241>:
  1034b3:	e9 a2 10 00 00       	jmp    10455a <isr_unhandled>

001034b8 <isr_242>:
  1034b8:	e9 9d 10 00 00       	jmp    10455a <isr_unhandled>

001034bd <isr_243>:
  1034bd:	e9 98 10 00 00       	jmp    10455a <isr_unhandled>

001034c2 <isr_244>:
  1034c2:	e9 93 10 00 00       	jmp    10455a <isr_unhandled>

001034c7 <isr_245>:
  1034c7:	e9 8e 10 00 00       	jmp    10455a <isr_unhandled>

001034cc <isr_246>:
  1034cc:	e9 89 10 00 00       	jmp    10455a <isr_unhandled>

001034d1 <isr_247>:
  1034d1:	e9 84 10 00 00       	jmp    10455a <isr_unhandled>

001034d6 <isr_248>:
  1034d6:	e9 7f 10 00 00       	jmp    10455a <isr_unhandled>

001034db <isr_249>:
  1034db:	e9 7a 10 00 00       	jmp    10455a <isr_unhandled>

001034e0 <isr_250>:
  1034e0:	e9 75 10 00 00       	jmp    10455a <isr_unhandled>

001034e5 <isr_251>:
  1034e5:	e9 70 10 00 00       	jmp    10455a <isr_unhandled>

001034ea <isr_252>:
  1034ea:	e9 6b 10 00 00       	jmp    10455a <isr_unhandled>

001034ef <isr_253>:
  1034ef:	e9 66 10 00 00       	jmp    10455a <isr_unhandled>

001034f4 <isr_254>:
  1034f4:	e9 61 10 00 00       	jmp    10455a <isr_unhandled>

001034f9 <isr_255>:
  1034f9:	e9 5c 10 00 00       	jmp    10455a <isr_unhandled>

001034fe <theidt>:
  1034fe:	00 10                	add    %dl,(%eax)
  103500:	08 00                	or     %al,(%eax)
  103502:	00 8e 10 00 20 10    	add    %cl,0x10200010(%esi)
  103508:	08 00                	or     %al,(%eax)
  10350a:	00 8e 10 00 40 10    	add    %cl,0x10400010(%esi)
  103510:	08 00                	or     %al,(%eax)
  103512:	00 8e 10 00 60 10    	add    %cl,0x10600010(%esi)
  103518:	08 00                	or     %al,(%eax)
  10351a:	00 8e 10 00 80 10    	add    %cl,0x10800010(%esi)
  103520:	08 00                	or     %al,(%eax)
  103522:	00 8e 10 00 a0 10    	add    %cl,0x10a00010(%esi)
  103528:	08 00                	or     %al,(%eax)
  10352a:	00 8e 10 00 c0 10    	add    %cl,0x10c00010(%esi)
  103530:	08 00                	or     %al,(%eax)
  103532:	00 8e 10 00 e0 10    	add    %cl,0x10e00010(%esi)
  103538:	08 00                	or     %al,(%eax)
  10353a:	00 8e 10 00 00 11    	add    %cl,0x11000010(%esi)
  103540:	08 00                	or     %al,(%eax)
  103542:	00 8e 10 00 20 11    	add    %cl,0x11200010(%esi)
  103548:	08 00                	or     %al,(%eax)
  10354a:	00 8e 10 00 40 11    	add    %cl,0x11400010(%esi)
  103550:	08 00                	or     %al,(%eax)
  103552:	00 8e 10 00 60 11    	add    %cl,0x11600010(%esi)
  103558:	08 00                	or     %al,(%eax)
  10355a:	00 8e 10 00 80 11    	add    %cl,0x11800010(%esi)
  103560:	08 00                	or     %al,(%eax)
  103562:	00 8e 10 00 a0 11    	add    %cl,0x11a00010(%esi)
  103568:	08 00                	or     %al,(%eax)
  10356a:	00 8e 10 00 c0 11    	add    %cl,0x11c00010(%esi)
  103570:	08 00                	or     %al,(%eax)
  103572:	00 8e 10 00 e0 11    	add    %cl,0x11e00010(%esi)
  103578:	08 00                	or     %al,(%eax)
  10357a:	00 8e 10 00 00 12    	add    %cl,0x12000010(%esi)
  103580:	08 00                	or     %al,(%eax)
  103582:	00 8e 10 00 20 12    	add    %cl,0x12200010(%esi)
  103588:	08 00                	or     %al,(%eax)
  10358a:	00 8e 10 00 40 12    	add    %cl,0x12400010(%esi)
  103590:	08 00                	or     %al,(%eax)
  103592:	00 8e 10 00 60 12    	add    %cl,0x12600010(%esi)
  103598:	08 00                	or     %al,(%eax)
  10359a:	00 8e 10 00 80 12    	add    %cl,0x12800010(%esi)
  1035a0:	08 00                	or     %al,(%eax)
  1035a2:	00 8e 10 00 a0 12    	add    %cl,0x12a00010(%esi)
  1035a8:	08 00                	or     %al,(%eax)
  1035aa:	00 8e 10 00 c0 12    	add    %cl,0x12c00010(%esi)
  1035b0:	08 00                	or     %al,(%eax)
  1035b2:	00 8e 10 00 e0 12    	add    %cl,0x12e00010(%esi)
  1035b8:	08 00                	or     %al,(%eax)
  1035ba:	00 8e 10 00 00 13    	add    %cl,0x13000010(%esi)
  1035c0:	08 00                	or     %al,(%eax)
  1035c2:	00 8e 10 00 20 13    	add    %cl,0x13200010(%esi)
  1035c8:	08 00                	or     %al,(%eax)
  1035ca:	00 8e 10 00 40 13    	add    %cl,0x13400010(%esi)
  1035d0:	08 00                	or     %al,(%eax)
  1035d2:	00 8e 10 00 60 13    	add    %cl,0x13600010(%esi)
  1035d8:	08 00                	or     %al,(%eax)
  1035da:	00 8e 10 00 80 13    	add    %cl,0x13800010(%esi)
  1035e0:	08 00                	or     %al,(%eax)
  1035e2:	00 8e 10 00 a0 13    	add    %cl,0x13a00010(%esi)
  1035e8:	08 00                	or     %al,(%eax)
  1035ea:	00 8e 10 00 c0 13    	add    %cl,0x13c00010(%esi)
  1035f0:	08 00                	or     %al,(%eax)
  1035f2:	00 8e 10 00 e0 13    	add    %cl,0x13e00010(%esi)
  1035f8:	08 00                	or     %al,(%eax)
  1035fa:	00 8e 10 00 00 14    	add    %cl,0x14000010(%esi)
  103600:	08 00                	or     %al,(%eax)
  103602:	00 8e 10 00 20 14    	add    %cl,0x14200010(%esi)
  103608:	08 00                	or     %al,(%eax)
  10360a:	00 8e 10 00 40 14    	add    %cl,0x14400010(%esi)
  103610:	08 00                	or     %al,(%eax)
  103612:	00 8e 10 00 60 14    	add    %cl,0x14600010(%esi)
  103618:	08 00                	or     %al,(%eax)
  10361a:	00 8e 10 00 80 14    	add    %cl,0x14800010(%esi)
  103620:	08 00                	or     %al,(%eax)
  103622:	00 8e 10 00 a0 14    	add    %cl,0x14a00010(%esi)
  103628:	08 00                	or     %al,(%eax)
  10362a:	00 8e 10 00 c0 14    	add    %cl,0x14c00010(%esi)
  103630:	08 00                	or     %al,(%eax)
  103632:	00 8e 10 00 e0 14    	add    %cl,0x14e00010(%esi)
  103638:	08 00                	or     %al,(%eax)
  10363a:	00 8e 10 00 00 15    	add    %cl,0x15000010(%esi)
  103640:	08 00                	or     %al,(%eax)
  103642:	00 8e 10 00 20 15    	add    %cl,0x15200010(%esi)
  103648:	08 00                	or     %al,(%eax)
  10364a:	00 8e 10 00 40 15    	add    %cl,0x15400010(%esi)
  103650:	08 00                	or     %al,(%eax)
  103652:	00 8e 10 00 60 15    	add    %cl,0x15600010(%esi)
  103658:	08 00                	or     %al,(%eax)
  10365a:	00 8e 10 00 80 15    	add    %cl,0x15800010(%esi)
  103660:	08 00                	or     %al,(%eax)
  103662:	00 8e 10 00 a0 15    	add    %cl,0x15a00010(%esi)
  103668:	08 00                	or     %al,(%eax)
  10366a:	00 8e 10 00 c0 15    	add    %cl,0x15c00010(%esi)
  103670:	08 00                	or     %al,(%eax)
  103672:	00 8e 10 00 e0 15    	add    %cl,0x15e00010(%esi)
  103678:	08 00                	or     %al,(%eax)
  10367a:	00 8e 10 00 00 16    	add    %cl,0x16000010(%esi)
  103680:	08 00                	or     %al,(%eax)
  103682:	00 8e 10 00 20 16    	add    %cl,0x16200010(%esi)
  103688:	08 00                	or     %al,(%eax)
  10368a:	00 8e 10 00 40 16    	add    %cl,0x16400010(%esi)
  103690:	08 00                	or     %al,(%eax)
  103692:	00 8e 10 00 60 16    	add    %cl,0x16600010(%esi)
  103698:	08 00                	or     %al,(%eax)
  10369a:	00 8e 10 00 80 16    	add    %cl,0x16800010(%esi)
  1036a0:	08 00                	or     %al,(%eax)
  1036a2:	00 8e 10 00 a0 16    	add    %cl,0x16a00010(%esi)
  1036a8:	08 00                	or     %al,(%eax)
  1036aa:	00 8e 10 00 c0 16    	add    %cl,0x16c00010(%esi)
  1036b0:	08 00                	or     %al,(%eax)
  1036b2:	00 8e 10 00 e0 16    	add    %cl,0x16e00010(%esi)
  1036b8:	08 00                	or     %al,(%eax)
  1036ba:	00 8e 10 00 00 17    	add    %cl,0x17000010(%esi)
  1036c0:	08 00                	or     %al,(%eax)
  1036c2:	00 8e 10 00 20 17    	add    %cl,0x17200010(%esi)
  1036c8:	08 00                	or     %al,(%eax)
  1036ca:	00 8e 10 00 40 17    	add    %cl,0x17400010(%esi)
  1036d0:	08 00                	or     %al,(%eax)
  1036d2:	00 8e 10 00 60 17    	add    %cl,0x17600010(%esi)
  1036d8:	08 00                	or     %al,(%eax)
  1036da:	00 8e 10 00 80 17    	add    %cl,0x17800010(%esi)
  1036e0:	08 00                	or     %al,(%eax)
  1036e2:	00 8e 10 00 a0 17    	add    %cl,0x17a00010(%esi)
  1036e8:	08 00                	or     %al,(%eax)
  1036ea:	00 8e 10 00 c0 17    	add    %cl,0x17c00010(%esi)
  1036f0:	08 00                	or     %al,(%eax)
  1036f2:	00 8e 10 00 e0 17    	add    %cl,0x17e00010(%esi)
  1036f8:	08 00                	or     %al,(%eax)
  1036fa:	00 8e 10 00 00 18    	add    %cl,0x18000010(%esi)
  103700:	08 00                	or     %al,(%eax)
  103702:	00 8e 10 00 20 18    	add    %cl,0x18200010(%esi)
  103708:	08 00                	or     %al,(%eax)
  10370a:	00 8e 10 00 40 18    	add    %cl,0x18400010(%esi)
  103710:	08 00                	or     %al,(%eax)
  103712:	00 8e 10 00 60 18    	add    %cl,0x18600010(%esi)
  103718:	08 00                	or     %al,(%eax)
  10371a:	00 8e 10 00 80 18    	add    %cl,0x18800010(%esi)
  103720:	08 00                	or     %al,(%eax)
  103722:	00 8e 10 00 a0 18    	add    %cl,0x18a00010(%esi)
  103728:	08 00                	or     %al,(%eax)
  10372a:	00 8e 10 00 c0 18    	add    %cl,0x18c00010(%esi)
  103730:	08 00                	or     %al,(%eax)
  103732:	00 8e 10 00 e0 18    	add    %cl,0x18e00010(%esi)
  103738:	08 00                	or     %al,(%eax)
  10373a:	00 8e 10 00 00 19    	add    %cl,0x19000010(%esi)
  103740:	08 00                	or     %al,(%eax)
  103742:	00 8e 10 00 20 19    	add    %cl,0x19200010(%esi)
  103748:	08 00                	or     %al,(%eax)
  10374a:	00 8e 10 00 40 19    	add    %cl,0x19400010(%esi)
  103750:	08 00                	or     %al,(%eax)
  103752:	00 8e 10 00 60 19    	add    %cl,0x19600010(%esi)
  103758:	08 00                	or     %al,(%eax)
  10375a:	00 8e 10 00 80 19    	add    %cl,0x19800010(%esi)
  103760:	08 00                	or     %al,(%eax)
  103762:	00 8e 10 00 a0 19    	add    %cl,0x19a00010(%esi)
  103768:	08 00                	or     %al,(%eax)
  10376a:	00 8e 10 00 c0 19    	add    %cl,0x19c00010(%esi)
  103770:	08 00                	or     %al,(%eax)
  103772:	00 8e 10 00 e0 19    	add    %cl,0x19e00010(%esi)
  103778:	08 00                	or     %al,(%eax)
  10377a:	00 8e 10 00 00 1a    	add    %cl,0x1a000010(%esi)
  103780:	08 00                	or     %al,(%eax)
  103782:	00 8e 10 00 20 1a    	add    %cl,0x1a200010(%esi)
  103788:	08 00                	or     %al,(%eax)
  10378a:	00 8e 10 00 40 1a    	add    %cl,0x1a400010(%esi)
  103790:	08 00                	or     %al,(%eax)
  103792:	00 8e 10 00 60 1a    	add    %cl,0x1a600010(%esi)
  103798:	08 00                	or     %al,(%eax)
  10379a:	00 8e 10 00 80 1a    	add    %cl,0x1a800010(%esi)
  1037a0:	08 00                	or     %al,(%eax)
  1037a2:	00 8e 10 00 a0 1a    	add    %cl,0x1aa00010(%esi)
  1037a8:	08 00                	or     %al,(%eax)
  1037aa:	00 8e 10 00 c0 1a    	add    %cl,0x1ac00010(%esi)
  1037b0:	08 00                	or     %al,(%eax)
  1037b2:	00 8e 10 00 e0 1a    	add    %cl,0x1ae00010(%esi)
  1037b8:	08 00                	or     %al,(%eax)
  1037ba:	00 8e 10 00 00 1b    	add    %cl,0x1b000010(%esi)
  1037c0:	08 00                	or     %al,(%eax)
  1037c2:	00 8e 10 00 20 1b    	add    %cl,0x1b200010(%esi)
  1037c8:	08 00                	or     %al,(%eax)
  1037ca:	00 8e 10 00 40 1b    	add    %cl,0x1b400010(%esi)
  1037d0:	08 00                	or     %al,(%eax)
  1037d2:	00 8e 10 00 60 1b    	add    %cl,0x1b600010(%esi)
  1037d8:	08 00                	or     %al,(%eax)
  1037da:	00 8e 10 00 80 1b    	add    %cl,0x1b800010(%esi)
  1037e0:	08 00                	or     %al,(%eax)
  1037e2:	00 8e 10 00 a0 1b    	add    %cl,0x1ba00010(%esi)
  1037e8:	08 00                	or     %al,(%eax)
  1037ea:	00 8e 10 00 c0 1b    	add    %cl,0x1bc00010(%esi)
  1037f0:	08 00                	or     %al,(%eax)
  1037f2:	00 8e 10 00 e0 1b    	add    %cl,0x1be00010(%esi)
  1037f8:	08 00                	or     %al,(%eax)
  1037fa:	00 8e 10 00 00 1c    	add    %cl,0x1c000010(%esi)
  103800:	08 00                	or     %al,(%eax)
  103802:	00 8e 10 00 20 1c    	add    %cl,0x1c200010(%esi)
  103808:	08 00                	or     %al,(%eax)
  10380a:	00 8e 10 00 40 1c    	add    %cl,0x1c400010(%esi)
  103810:	08 00                	or     %al,(%eax)
  103812:	00 8e 10 00 60 1c    	add    %cl,0x1c600010(%esi)
  103818:	08 00                	or     %al,(%eax)
  10381a:	00 8e 10 00 80 1c    	add    %cl,0x1c800010(%esi)
  103820:	08 00                	or     %al,(%eax)
  103822:	00 8e 10 00 a0 1c    	add    %cl,0x1ca00010(%esi)
  103828:	08 00                	or     %al,(%eax)
  10382a:	00 8e 10 00 c0 1c    	add    %cl,0x1cc00010(%esi)
  103830:	08 00                	or     %al,(%eax)
  103832:	00 8e 10 00 e0 1c    	add    %cl,0x1ce00010(%esi)
  103838:	08 00                	or     %al,(%eax)
  10383a:	00 8e 10 00 00 1d    	add    %cl,0x1d000010(%esi)
  103840:	08 00                	or     %al,(%eax)
  103842:	00 8e 10 00 20 1d    	add    %cl,0x1d200010(%esi)
  103848:	08 00                	or     %al,(%eax)
  10384a:	00 8e 10 00 40 1d    	add    %cl,0x1d400010(%esi)
  103850:	08 00                	or     %al,(%eax)
  103852:	00 8e 10 00 60 1d    	add    %cl,0x1d600010(%esi)
  103858:	08 00                	or     %al,(%eax)
  10385a:	00 8e 10 00 80 1d    	add    %cl,0x1d800010(%esi)
  103860:	08 00                	or     %al,(%eax)
  103862:	00 8e 10 00 a0 1d    	add    %cl,0x1da00010(%esi)
  103868:	08 00                	or     %al,(%eax)
  10386a:	00 8e 10 00 c0 1d    	add    %cl,0x1dc00010(%esi)
  103870:	08 00                	or     %al,(%eax)
  103872:	00 8e 10 00 e0 1d    	add    %cl,0x1de00010(%esi)
  103878:	08 00                	or     %al,(%eax)
  10387a:	00 8e 10 00 00 1e    	add    %cl,0x1e000010(%esi)
  103880:	08 00                	or     %al,(%eax)
  103882:	00 8e 10 00 20 1e    	add    %cl,0x1e200010(%esi)
  103888:	08 00                	or     %al,(%eax)
  10388a:	00 8e 10 00 40 1e    	add    %cl,0x1e400010(%esi)
  103890:	08 00                	or     %al,(%eax)
  103892:	00 8e 10 00 60 1e    	add    %cl,0x1e600010(%esi)
  103898:	08 00                	or     %al,(%eax)
  10389a:	00 8e 10 00 80 1e    	add    %cl,0x1e800010(%esi)
  1038a0:	08 00                	or     %al,(%eax)
