
Debug/out.elf:     file format elf32-i386


Disassembly of section .text:

00100000 <multiboot_header>:
  100000:	02 b0 ad 1b 03 00    	add    0x31bad(%eax),%dh
  100006:	00 00                	add    %al,(%eax)
  100008:	fb                   	sti    
  100009:	4f                   	dec    %edi
  10000a:	52                   	push   %edx
  10000b:	e4 66                	in     $0x66,%al
  10000d:	90                   	nop
  10000e:	66 90                	xchg   %ax,%ax
  100010:	66 90                	xchg   %ax,%ax
  100012:	66 90                	xchg   %ax,%ax
  100014:	66 90                	xchg   %ax,%ax
  100016:	66 90                	xchg   %ax,%ax
  100018:	66 90                	xchg   %ax,%ax
  10001a:	66 90                	xchg   %ax,%ax
  10001c:	66 90                	xchg   %ax,%ax
  10001e:	66 90                	xchg   %ax,%ax
  100020:	66 90                	xchg   %ax,%ax
  100022:	66 90                	xchg   %ax,%ax
  100024:	66 90                	xchg   %ax,%ax
  100026:	66 90                	xchg   %ax,%ax
  100028:	66 90                	xchg   %ax,%ax
  10002a:	66 90                	xchg   %ax,%ax
  10002c:	66 90                	xchg   %ax,%ax
  10002e:	66 90                	xchg   %ax,%ax
  100030:	66 90                	xchg   %ax,%ax
  100032:	66 90                	xchg   %ax,%ax
  100034:	66 90                	xchg   %ax,%ax
  100036:	66 90                	xchg   %ax,%ax
  100038:	66 90                	xchg   %ax,%ax
  10003a:	66 90                	xchg   %ax,%ax
  10003c:	66 90                	xchg   %ax,%ax
  10003e:	66 90                	xchg   %ax,%ax
  100040:	66 90                	xchg   %ax,%ax
  100042:	66 90                	xchg   %ax,%ax
  100044:	66 90                	xchg   %ax,%ax
  100046:	66 90                	xchg   %ax,%ax
  100048:	66 90                	xchg   %ax,%ax
  10004a:	66 90                	xchg   %ax,%ax
  10004c:	66 90                	xchg   %ax,%ax
  10004e:	66 90                	xchg   %ax,%ax
  100050:	66 90                	xchg   %ax,%ax
  100052:	66 90                	xchg   %ax,%ax
  100054:	66 90                	xchg   %ax,%ax
  100056:	66 90                	xchg   %ax,%ax
  100058:	66 90                	xchg   %ax,%ax
  10005a:	66 90                	xchg   %ax,%ax
  10005c:	66 90                	xchg   %ax,%ax
  10005e:	66 90                	xchg   %ax,%ax
  100060:	66 90                	xchg   %ax,%ax
  100062:	66 90                	xchg   %ax,%ax
  100064:	66 90                	xchg   %ax,%ax
  100066:	66 90                	xchg   %ax,%ax
  100068:	66 90                	xchg   %ax,%ax
  10006a:	66 90                	xchg   %ax,%ax
  10006c:	66 90                	xchg   %ax,%ax
  10006e:	66 90                	xchg   %ax,%ax
  100070:	66 90                	xchg   %ax,%ax
  100072:	66 90                	xchg   %ax,%ax
  100074:	66 90                	xchg   %ax,%ax
  100076:	66 90                	xchg   %ax,%ax
  100078:	66 90                	xchg   %ax,%ax
  10007a:	66 90                	xchg   %ax,%ax
  10007c:	66 90                	xchg   %ax,%ax
  10007e:	66 90                	xchg   %ax,%ax
  100080:	66 90                	xchg   %ax,%ax
  100082:	66 90                	xchg   %ax,%ax
  100084:	66 90                	xchg   %ax,%ax
  100086:	66 90                	xchg   %ax,%ax
  100088:	66 90                	xchg   %ax,%ax
  10008a:	66 90                	xchg   %ax,%ax
  10008c:	66 90                	xchg   %ax,%ax
  10008e:	66 90                	xchg   %ax,%ax
  100090:	66 90                	xchg   %ax,%ax
  100092:	66 90                	xchg   %ax,%ax
  100094:	66 90                	xchg   %ax,%ax
  100096:	66 90                	xchg   %ax,%ax
  100098:	66 90                	xchg   %ax,%ax
  10009a:	66 90                	xchg   %ax,%ax
  10009c:	66 90                	xchg   %ax,%ax
  10009e:	66 90                	xchg   %ax,%ax
  1000a0:	66 90                	xchg   %ax,%ax
  1000a2:	66 90                	xchg   %ax,%ax
  1000a4:	66 90                	xchg   %ax,%ax
  1000a6:	66 90                	xchg   %ax,%ax
  1000a8:	66 90                	xchg   %ax,%ax
  1000aa:	66 90                	xchg   %ax,%ax
  1000ac:	66 90                	xchg   %ax,%ax
  1000ae:	66 90                	xchg   %ax,%ax
  1000b0:	66 90                	xchg   %ax,%ax
  1000b2:	66 90                	xchg   %ax,%ax
  1000b4:	66 90                	xchg   %ax,%ax
  1000b6:	66 90                	xchg   %ax,%ax
  1000b8:	66 90                	xchg   %ax,%ax
  1000ba:	66 90                	xchg   %ax,%ax
  1000bc:	66 90                	xchg   %ax,%ax
  1000be:	66 90                	xchg   %ax,%ax
  1000c0:	66 90                	xchg   %ax,%ax
  1000c2:	66 90                	xchg   %ax,%ax
  1000c4:	66 90                	xchg   %ax,%ax
  1000c6:	66 90                	xchg   %ax,%ax
  1000c8:	66 90                	xchg   %ax,%ax
  1000ca:	66 90                	xchg   %ax,%ax
  1000cc:	66 90                	xchg   %ax,%ax
  1000ce:	66 90                	xchg   %ax,%ax
  1000d0:	66 90                	xchg   %ax,%ax
  1000d2:	66 90                	xchg   %ax,%ax
  1000d4:	66 90                	xchg   %ax,%ax
  1000d6:	66 90                	xchg   %ax,%ax
  1000d8:	66 90                	xchg   %ax,%ax
  1000da:	66 90                	xchg   %ax,%ax
  1000dc:	66 90                	xchg   %ax,%ax
  1000de:	66 90                	xchg   %ax,%ax
  1000e0:	66 90                	xchg   %ax,%ax
  1000e2:	66 90                	xchg   %ax,%ax
  1000e4:	66 90                	xchg   %ax,%ax
  1000e6:	66 90                	xchg   %ax,%ax
  1000e8:	66 90                	xchg   %ax,%ax
  1000ea:	66 90                	xchg   %ax,%ax
  1000ec:	66 90                	xchg   %ax,%ax
  1000ee:	66 90                	xchg   %ax,%ax
  1000f0:	66 90                	xchg   %ax,%ax
  1000f2:	66 90                	xchg   %ax,%ax
  1000f4:	66 90                	xchg   %ax,%ax
  1000f6:	66 90                	xchg   %ax,%ax
  1000f8:	66 90                	xchg   %ax,%ax
  1000fa:	66 90                	xchg   %ax,%ax
  1000fc:	66 90                	xchg   %ax,%ax
  1000fe:	66 90                	xchg   %ax,%ax
  100100:	66 90                	xchg   %ax,%ax
  100102:	66 90                	xchg   %ax,%ax
  100104:	66 90                	xchg   %ax,%ax
  100106:	66 90                	xchg   %ax,%ax
  100108:	66 90                	xchg   %ax,%ax
  10010a:	66 90                	xchg   %ax,%ax
  10010c:	66 90                	xchg   %ax,%ax
  10010e:	66 90                	xchg   %ax,%ax
  100110:	66 90                	xchg   %ax,%ax
  100112:	66 90                	xchg   %ax,%ax
  100114:	66 90                	xchg   %ax,%ax
  100116:	66 90                	xchg   %ax,%ax
  100118:	66 90                	xchg   %ax,%ax
  10011a:	66 90                	xchg   %ax,%ax
  10011c:	66 90                	xchg   %ax,%ax
  10011e:	66 90                	xchg   %ax,%ax
  100120:	66 90                	xchg   %ax,%ax
  100122:	66 90                	xchg   %ax,%ax
  100124:	66 90                	xchg   %ax,%ax
  100126:	66 90                	xchg   %ax,%ax
  100128:	66 90                	xchg   %ax,%ax
  10012a:	66 90                	xchg   %ax,%ax
  10012c:	66 90                	xchg   %ax,%ax
  10012e:	66 90                	xchg   %ax,%ax
  100130:	66 90                	xchg   %ax,%ax
  100132:	66 90                	xchg   %ax,%ax
  100134:	66 90                	xchg   %ax,%ax
  100136:	66 90                	xchg   %ax,%ax
  100138:	66 90                	xchg   %ax,%ax
  10013a:	66 90                	xchg   %ax,%ax
  10013c:	66 90                	xchg   %ax,%ax
  10013e:	66 90                	xchg   %ax,%ax
  100140:	66 90                	xchg   %ax,%ax
  100142:	66 90                	xchg   %ax,%ax
  100144:	66 90                	xchg   %ax,%ax
  100146:	66 90                	xchg   %ax,%ax
  100148:	66 90                	xchg   %ax,%ax
  10014a:	66 90                	xchg   %ax,%ax
  10014c:	66 90                	xchg   %ax,%ax
  10014e:	66 90                	xchg   %ax,%ax
  100150:	66 90                	xchg   %ax,%ax
  100152:	66 90                	xchg   %ax,%ax
  100154:	66 90                	xchg   %ax,%ax
  100156:	66 90                	xchg   %ax,%ax
  100158:	66 90                	xchg   %ax,%ax
  10015a:	66 90                	xchg   %ax,%ax
  10015c:	66 90                	xchg   %ax,%ax
  10015e:	66 90                	xchg   %ax,%ax
  100160:	66 90                	xchg   %ax,%ax
  100162:	66 90                	xchg   %ax,%ax
  100164:	66 90                	xchg   %ax,%ax
  100166:	66 90                	xchg   %ax,%ax
  100168:	66 90                	xchg   %ax,%ax
  10016a:	66 90                	xchg   %ax,%ax
  10016c:	66 90                	xchg   %ax,%ax
  10016e:	66 90                	xchg   %ax,%ax
  100170:	66 90                	xchg   %ax,%ax
  100172:	66 90                	xchg   %ax,%ax
  100174:	66 90                	xchg   %ax,%ax
  100176:	66 90                	xchg   %ax,%ax
  100178:	66 90                	xchg   %ax,%ax
  10017a:	66 90                	xchg   %ax,%ax
  10017c:	66 90                	xchg   %ax,%ax
  10017e:	66 90                	xchg   %ax,%ax
  100180:	66 90                	xchg   %ax,%ax
  100182:	66 90                	xchg   %ax,%ax
  100184:	66 90                	xchg   %ax,%ax
  100186:	66 90                	xchg   %ax,%ax
  100188:	66 90                	xchg   %ax,%ax
  10018a:	66 90                	xchg   %ax,%ax
  10018c:	66 90                	xchg   %ax,%ax
  10018e:	66 90                	xchg   %ax,%ax
  100190:	66 90                	xchg   %ax,%ax
  100192:	66 90                	xchg   %ax,%ax
  100194:	66 90                	xchg   %ax,%ax
  100196:	66 90                	xchg   %ax,%ax
  100198:	66 90                	xchg   %ax,%ax
  10019a:	66 90                	xchg   %ax,%ax
  10019c:	66 90                	xchg   %ax,%ax
  10019e:	66 90                	xchg   %ax,%ax
  1001a0:	66 90                	xchg   %ax,%ax
  1001a2:	66 90                	xchg   %ax,%ax
  1001a4:	66 90                	xchg   %ax,%ax
  1001a6:	66 90                	xchg   %ax,%ax
  1001a8:	66 90                	xchg   %ax,%ax
  1001aa:	66 90                	xchg   %ax,%ax
  1001ac:	66 90                	xchg   %ax,%ax
  1001ae:	66 90                	xchg   %ax,%ax
  1001b0:	66 90                	xchg   %ax,%ax
  1001b2:	66 90                	xchg   %ax,%ax
  1001b4:	66 90                	xchg   %ax,%ax
  1001b6:	66 90                	xchg   %ax,%ax
  1001b8:	66 90                	xchg   %ax,%ax
  1001ba:	66 90                	xchg   %ax,%ax
  1001bc:	66 90                	xchg   %ax,%ax
  1001be:	66 90                	xchg   %ax,%ax
  1001c0:	66 90                	xchg   %ax,%ax
  1001c2:	66 90                	xchg   %ax,%ax
  1001c4:	66 90                	xchg   %ax,%ax
  1001c6:	66 90                	xchg   %ax,%ax
  1001c8:	66 90                	xchg   %ax,%ax
  1001ca:	66 90                	xchg   %ax,%ax
  1001cc:	66 90                	xchg   %ax,%ax
  1001ce:	66 90                	xchg   %ax,%ax
  1001d0:	66 90                	xchg   %ax,%ax
  1001d2:	66 90                	xchg   %ax,%ax
  1001d4:	66 90                	xchg   %ax,%ax
  1001d6:	66 90                	xchg   %ax,%ax
  1001d8:	66 90                	xchg   %ax,%ax
  1001da:	66 90                	xchg   %ax,%ax
  1001dc:	66 90                	xchg   %ax,%ax
  1001de:	66 90                	xchg   %ax,%ax
  1001e0:	66 90                	xchg   %ax,%ax
  1001e2:	66 90                	xchg   %ax,%ax
  1001e4:	66 90                	xchg   %ax,%ax
  1001e6:	66 90                	xchg   %ax,%ax
  1001e8:	66 90                	xchg   %ax,%ax
  1001ea:	66 90                	xchg   %ax,%ax
  1001ec:	66 90                	xchg   %ax,%ax
  1001ee:	66 90                	xchg   %ax,%ax
  1001f0:	66 90                	xchg   %ax,%ax
  1001f2:	66 90                	xchg   %ax,%ax
  1001f4:	66 90                	xchg   %ax,%ax
  1001f6:	66 90                	xchg   %ax,%ax
  1001f8:	66 90                	xchg   %ax,%ax
  1001fa:	66 90                	xchg   %ax,%ax
  1001fc:	66 90                	xchg   %ax,%ax
  1001fe:	66 90                	xchg   %ax,%ax
  100200:	66 90                	xchg   %ax,%ax
  100202:	66 90                	xchg   %ax,%ax
  100204:	66 90                	xchg   %ax,%ax
  100206:	66 90                	xchg   %ax,%ax
  100208:	66 90                	xchg   %ax,%ax
  10020a:	66 90                	xchg   %ax,%ax
  10020c:	66 90                	xchg   %ax,%ax
  10020e:	66 90                	xchg   %ax,%ax
  100210:	66 90                	xchg   %ax,%ax
  100212:	66 90                	xchg   %ax,%ax
  100214:	66 90                	xchg   %ax,%ax
  100216:	66 90                	xchg   %ax,%ax
  100218:	66 90                	xchg   %ax,%ax
  10021a:	66 90                	xchg   %ax,%ax
  10021c:	66 90                	xchg   %ax,%ax
  10021e:	66 90                	xchg   %ax,%ax
  100220:	66 90                	xchg   %ax,%ax
  100222:	66 90                	xchg   %ax,%ax
  100224:	66 90                	xchg   %ax,%ax
  100226:	66 90                	xchg   %ax,%ax
  100228:	66 90                	xchg   %ax,%ax
  10022a:	66 90                	xchg   %ax,%ax
  10022c:	66 90                	xchg   %ax,%ax
  10022e:	66 90                	xchg   %ax,%ax
  100230:	66 90                	xchg   %ax,%ax
  100232:	66 90                	xchg   %ax,%ax
  100234:	66 90                	xchg   %ax,%ax
  100236:	66 90                	xchg   %ax,%ax
  100238:	66 90                	xchg   %ax,%ax
  10023a:	66 90                	xchg   %ax,%ax
  10023c:	66 90                	xchg   %ax,%ax
  10023e:	66 90                	xchg   %ax,%ax
  100240:	66 90                	xchg   %ax,%ax
  100242:	66 90                	xchg   %ax,%ax
  100244:	66 90                	xchg   %ax,%ax
  100246:	66 90                	xchg   %ax,%ax
  100248:	66 90                	xchg   %ax,%ax
  10024a:	66 90                	xchg   %ax,%ax
  10024c:	66 90                	xchg   %ax,%ax
  10024e:	66 90                	xchg   %ax,%ax
  100250:	66 90                	xchg   %ax,%ax
  100252:	66 90                	xchg   %ax,%ax
  100254:	66 90                	xchg   %ax,%ax
  100256:	66 90                	xchg   %ax,%ax
  100258:	66 90                	xchg   %ax,%ax
  10025a:	66 90                	xchg   %ax,%ax
  10025c:	66 90                	xchg   %ax,%ax
  10025e:	66 90                	xchg   %ax,%ax
  100260:	66 90                	xchg   %ax,%ax
  100262:	66 90                	xchg   %ax,%ax
  100264:	66 90                	xchg   %ax,%ax
  100266:	66 90                	xchg   %ax,%ax
  100268:	66 90                	xchg   %ax,%ax
  10026a:	66 90                	xchg   %ax,%ax
  10026c:	66 90                	xchg   %ax,%ax
  10026e:	66 90                	xchg   %ax,%ax
  100270:	66 90                	xchg   %ax,%ax
  100272:	66 90                	xchg   %ax,%ax
  100274:	66 90                	xchg   %ax,%ax
  100276:	66 90                	xchg   %ax,%ax
  100278:	66 90                	xchg   %ax,%ax
  10027a:	66 90                	xchg   %ax,%ax
  10027c:	66 90                	xchg   %ax,%ax
  10027e:	66 90                	xchg   %ax,%ax
  100280:	66 90                	xchg   %ax,%ax
  100282:	66 90                	xchg   %ax,%ax
  100284:	66 90                	xchg   %ax,%ax
  100286:	66 90                	xchg   %ax,%ax
  100288:	66 90                	xchg   %ax,%ax
  10028a:	66 90                	xchg   %ax,%ax
  10028c:	66 90                	xchg   %ax,%ax
  10028e:	66 90                	xchg   %ax,%ax
  100290:	66 90                	xchg   %ax,%ax
  100292:	66 90                	xchg   %ax,%ax
  100294:	66 90                	xchg   %ax,%ax
  100296:	66 90                	xchg   %ax,%ax
  100298:	66 90                	xchg   %ax,%ax
  10029a:	66 90                	xchg   %ax,%ax
  10029c:	66 90                	xchg   %ax,%ax
  10029e:	66 90                	xchg   %ax,%ax
  1002a0:	66 90                	xchg   %ax,%ax
  1002a2:	66 90                	xchg   %ax,%ax
  1002a4:	66 90                	xchg   %ax,%ax
  1002a6:	66 90                	xchg   %ax,%ax
  1002a8:	66 90                	xchg   %ax,%ax
  1002aa:	66 90                	xchg   %ax,%ax
  1002ac:	66 90                	xchg   %ax,%ax
  1002ae:	66 90                	xchg   %ax,%ax
  1002b0:	66 90                	xchg   %ax,%ax
  1002b2:	66 90                	xchg   %ax,%ax
  1002b4:	66 90                	xchg   %ax,%ax
  1002b6:	66 90                	xchg   %ax,%ax
  1002b8:	66 90                	xchg   %ax,%ax
  1002ba:	66 90                	xchg   %ax,%ax
  1002bc:	66 90                	xchg   %ax,%ax
  1002be:	66 90                	xchg   %ax,%ax
  1002c0:	66 90                	xchg   %ax,%ax
  1002c2:	66 90                	xchg   %ax,%ax
  1002c4:	66 90                	xchg   %ax,%ax
  1002c6:	66 90                	xchg   %ax,%ax
  1002c8:	66 90                	xchg   %ax,%ax
  1002ca:	66 90                	xchg   %ax,%ax
  1002cc:	66 90                	xchg   %ax,%ax
  1002ce:	66 90                	xchg   %ax,%ax
  1002d0:	66 90                	xchg   %ax,%ax
  1002d2:	66 90                	xchg   %ax,%ax
  1002d4:	66 90                	xchg   %ax,%ax
  1002d6:	66 90                	xchg   %ax,%ax
  1002d8:	66 90                	xchg   %ax,%ax
  1002da:	66 90                	xchg   %ax,%ax
  1002dc:	66 90                	xchg   %ax,%ax
  1002de:	66 90                	xchg   %ax,%ax
  1002e0:	66 90                	xchg   %ax,%ax
  1002e2:	66 90                	xchg   %ax,%ax
  1002e4:	66 90                	xchg   %ax,%ax
  1002e6:	66 90                	xchg   %ax,%ax
  1002e8:	66 90                	xchg   %ax,%ax
  1002ea:	66 90                	xchg   %ax,%ax
  1002ec:	66 90                	xchg   %ax,%ax
  1002ee:	66 90                	xchg   %ax,%ax
  1002f0:	66 90                	xchg   %ax,%ax
  1002f2:	66 90                	xchg   %ax,%ax
  1002f4:	66 90                	xchg   %ax,%ax
  1002f6:	66 90                	xchg   %ax,%ax
  1002f8:	66 90                	xchg   %ax,%ax
  1002fa:	66 90                	xchg   %ax,%ax
  1002fc:	66 90                	xchg   %ax,%ax
  1002fe:	66 90                	xchg   %ax,%ax
  100300:	66 90                	xchg   %ax,%ax
  100302:	66 90                	xchg   %ax,%ax
  100304:	66 90                	xchg   %ax,%ax
  100306:	66 90                	xchg   %ax,%ax
  100308:	66 90                	xchg   %ax,%ax
  10030a:	66 90                	xchg   %ax,%ax
  10030c:	66 90                	xchg   %ax,%ax
  10030e:	66 90                	xchg   %ax,%ax
  100310:	66 90                	xchg   %ax,%ax
  100312:	66 90                	xchg   %ax,%ax
  100314:	66 90                	xchg   %ax,%ax
  100316:	66 90                	xchg   %ax,%ax
  100318:	66 90                	xchg   %ax,%ax
  10031a:	66 90                	xchg   %ax,%ax
  10031c:	66 90                	xchg   %ax,%ax
  10031e:	66 90                	xchg   %ax,%ax
  100320:	66 90                	xchg   %ax,%ax
  100322:	66 90                	xchg   %ax,%ax
  100324:	66 90                	xchg   %ax,%ax
  100326:	66 90                	xchg   %ax,%ax
  100328:	66 90                	xchg   %ax,%ax
  10032a:	66 90                	xchg   %ax,%ax
  10032c:	66 90                	xchg   %ax,%ax
  10032e:	66 90                	xchg   %ax,%ax
  100330:	66 90                	xchg   %ax,%ax
  100332:	66 90                	xchg   %ax,%ax
  100334:	66 90                	xchg   %ax,%ax
  100336:	66 90                	xchg   %ax,%ax
  100338:	66 90                	xchg   %ax,%ax
  10033a:	66 90                	xchg   %ax,%ax
  10033c:	66 90                	xchg   %ax,%ax
  10033e:	66 90                	xchg   %ax,%ax
  100340:	66 90                	xchg   %ax,%ax
  100342:	66 90                	xchg   %ax,%ax
  100344:	66 90                	xchg   %ax,%ax
  100346:	66 90                	xchg   %ax,%ax
  100348:	66 90                	xchg   %ax,%ax
  10034a:	66 90                	xchg   %ax,%ax
  10034c:	66 90                	xchg   %ax,%ax
  10034e:	66 90                	xchg   %ax,%ax
  100350:	66 90                	xchg   %ax,%ax
  100352:	66 90                	xchg   %ax,%ax
  100354:	66 90                	xchg   %ax,%ax
  100356:	66 90                	xchg   %ax,%ax
  100358:	66 90                	xchg   %ax,%ax
  10035a:	66 90                	xchg   %ax,%ax
  10035c:	66 90                	xchg   %ax,%ax
  10035e:	66 90                	xchg   %ax,%ax
  100360:	66 90                	xchg   %ax,%ax
  100362:	66 90                	xchg   %ax,%ax
  100364:	66 90                	xchg   %ax,%ax
  100366:	66 90                	xchg   %ax,%ax
  100368:	66 90                	xchg   %ax,%ax
  10036a:	66 90                	xchg   %ax,%ax
  10036c:	66 90                	xchg   %ax,%ax
  10036e:	66 90                	xchg   %ax,%ax
  100370:	66 90                	xchg   %ax,%ax
  100372:	66 90                	xchg   %ax,%ax
  100374:	66 90                	xchg   %ax,%ax
  100376:	66 90                	xchg   %ax,%ax
  100378:	66 90                	xchg   %ax,%ax
  10037a:	66 90                	xchg   %ax,%ax
  10037c:	66 90                	xchg   %ax,%ax
  10037e:	66 90                	xchg   %ax,%ax
  100380:	66 90                	xchg   %ax,%ax
  100382:	66 90                	xchg   %ax,%ax
  100384:	66 90                	xchg   %ax,%ax
  100386:	66 90                	xchg   %ax,%ax
  100388:	66 90                	xchg   %ax,%ax
  10038a:	66 90                	xchg   %ax,%ax
  10038c:	66 90                	xchg   %ax,%ax
  10038e:	66 90                	xchg   %ax,%ax
  100390:	66 90                	xchg   %ax,%ax
  100392:	66 90                	xchg   %ax,%ax
  100394:	66 90                	xchg   %ax,%ax
  100396:	66 90                	xchg   %ax,%ax
  100398:	66 90                	xchg   %ax,%ax
  10039a:	66 90                	xchg   %ax,%ax
  10039c:	66 90                	xchg   %ax,%ax
  10039e:	66 90                	xchg   %ax,%ax
  1003a0:	66 90                	xchg   %ax,%ax
  1003a2:	66 90                	xchg   %ax,%ax
  1003a4:	66 90                	xchg   %ax,%ax
  1003a6:	66 90                	xchg   %ax,%ax
  1003a8:	66 90                	xchg   %ax,%ax
  1003aa:	66 90                	xchg   %ax,%ax
  1003ac:	66 90                	xchg   %ax,%ax
  1003ae:	66 90                	xchg   %ax,%ax
  1003b0:	66 90                	xchg   %ax,%ax
  1003b2:	66 90                	xchg   %ax,%ax
  1003b4:	66 90                	xchg   %ax,%ax
  1003b6:	66 90                	xchg   %ax,%ax
  1003b8:	66 90                	xchg   %ax,%ax
  1003ba:	66 90                	xchg   %ax,%ax
  1003bc:	66 90                	xchg   %ax,%ax
  1003be:	66 90                	xchg   %ax,%ax
  1003c0:	66 90                	xchg   %ax,%ax
  1003c2:	66 90                	xchg   %ax,%ax
  1003c4:	66 90                	xchg   %ax,%ax
  1003c6:	66 90                	xchg   %ax,%ax
  1003c8:	66 90                	xchg   %ax,%ax
  1003ca:	66 90                	xchg   %ax,%ax
  1003cc:	66 90                	xchg   %ax,%ax
  1003ce:	66 90                	xchg   %ax,%ax
  1003d0:	66 90                	xchg   %ax,%ax
  1003d2:	66 90                	xchg   %ax,%ax
  1003d4:	66 90                	xchg   %ax,%ax
  1003d6:	66 90                	xchg   %ax,%ax
  1003d8:	66 90                	xchg   %ax,%ax
  1003da:	66 90                	xchg   %ax,%ax
  1003dc:	66 90                	xchg   %ax,%ax
  1003de:	66 90                	xchg   %ax,%ax
  1003e0:	66 90                	xchg   %ax,%ax
  1003e2:	66 90                	xchg   %ax,%ax
  1003e4:	66 90                	xchg   %ax,%ax
  1003e6:	66 90                	xchg   %ax,%ax
  1003e8:	66 90                	xchg   %ax,%ax
  1003ea:	66 90                	xchg   %ax,%ax
  1003ec:	66 90                	xchg   %ax,%ax
  1003ee:	66 90                	xchg   %ax,%ax
  1003f0:	66 90                	xchg   %ax,%ax
  1003f2:	66 90                	xchg   %ax,%ax
  1003f4:	66 90                	xchg   %ax,%ax
  1003f6:	66 90                	xchg   %ax,%ax
  1003f8:	66 90                	xchg   %ax,%ax
  1003fa:	66 90                	xchg   %ax,%ax
  1003fc:	66 90                	xchg   %ax,%ax
  1003fe:	66 90                	xchg   %ax,%ax
  100400:	66 90                	xchg   %ax,%ax
  100402:	66 90                	xchg   %ax,%ax
  100404:	66 90                	xchg   %ax,%ax
  100406:	66 90                	xchg   %ax,%ax
  100408:	66 90                	xchg   %ax,%ax
  10040a:	66 90                	xchg   %ax,%ax
  10040c:	66 90                	xchg   %ax,%ax
  10040e:	66 90                	xchg   %ax,%ax
  100410:	66 90                	xchg   %ax,%ax
  100412:	66 90                	xchg   %ax,%ax
  100414:	66 90                	xchg   %ax,%ax
  100416:	66 90                	xchg   %ax,%ax
  100418:	66 90                	xchg   %ax,%ax
  10041a:	66 90                	xchg   %ax,%ax
  10041c:	66 90                	xchg   %ax,%ax
  10041e:	66 90                	xchg   %ax,%ax
  100420:	66 90                	xchg   %ax,%ax
  100422:	66 90                	xchg   %ax,%ax
  100424:	66 90                	xchg   %ax,%ax
  100426:	66 90                	xchg   %ax,%ax
  100428:	66 90                	xchg   %ax,%ax
  10042a:	66 90                	xchg   %ax,%ax
  10042c:	66 90                	xchg   %ax,%ax
  10042e:	66 90                	xchg   %ax,%ax
  100430:	66 90                	xchg   %ax,%ax
  100432:	66 90                	xchg   %ax,%ax
  100434:	66 90                	xchg   %ax,%ax
  100436:	66 90                	xchg   %ax,%ax
  100438:	66 90                	xchg   %ax,%ax
  10043a:	66 90                	xchg   %ax,%ax
  10043c:	66 90                	xchg   %ax,%ax
  10043e:	66 90                	xchg   %ax,%ax
  100440:	66 90                	xchg   %ax,%ax
  100442:	66 90                	xchg   %ax,%ax
  100444:	66 90                	xchg   %ax,%ax
  100446:	66 90                	xchg   %ax,%ax
  100448:	66 90                	xchg   %ax,%ax
  10044a:	66 90                	xchg   %ax,%ax
  10044c:	66 90                	xchg   %ax,%ax
  10044e:	66 90                	xchg   %ax,%ax
  100450:	66 90                	xchg   %ax,%ax
  100452:	66 90                	xchg   %ax,%ax
  100454:	66 90                	xchg   %ax,%ax
  100456:	66 90                	xchg   %ax,%ax
  100458:	66 90                	xchg   %ax,%ax
  10045a:	66 90                	xchg   %ax,%ax
  10045c:	66 90                	xchg   %ax,%ax
  10045e:	66 90                	xchg   %ax,%ax
  100460:	66 90                	xchg   %ax,%ax
  100462:	66 90                	xchg   %ax,%ax
  100464:	66 90                	xchg   %ax,%ax
  100466:	66 90                	xchg   %ax,%ax
  100468:	66 90                	xchg   %ax,%ax
  10046a:	66 90                	xchg   %ax,%ax
  10046c:	66 90                	xchg   %ax,%ax
  10046e:	66 90                	xchg   %ax,%ax
  100470:	66 90                	xchg   %ax,%ax
  100472:	66 90                	xchg   %ax,%ax
  100474:	66 90                	xchg   %ax,%ax
  100476:	66 90                	xchg   %ax,%ax
  100478:	66 90                	xchg   %ax,%ax
  10047a:	66 90                	xchg   %ax,%ax
  10047c:	66 90                	xchg   %ax,%ax
  10047e:	66 90                	xchg   %ax,%ax
  100480:	66 90                	xchg   %ax,%ax
  100482:	66 90                	xchg   %ax,%ax
  100484:	66 90                	xchg   %ax,%ax
  100486:	66 90                	xchg   %ax,%ax
  100488:	66 90                	xchg   %ax,%ax
  10048a:	66 90                	xchg   %ax,%ax
  10048c:	66 90                	xchg   %ax,%ax
  10048e:	66 90                	xchg   %ax,%ax
  100490:	66 90                	xchg   %ax,%ax
  100492:	66 90                	xchg   %ax,%ax
  100494:	66 90                	xchg   %ax,%ax
  100496:	66 90                	xchg   %ax,%ax
  100498:	66 90                	xchg   %ax,%ax
  10049a:	66 90                	xchg   %ax,%ax
  10049c:	66 90                	xchg   %ax,%ax
  10049e:	66 90                	xchg   %ax,%ax
  1004a0:	66 90                	xchg   %ax,%ax
  1004a2:	66 90                	xchg   %ax,%ax
  1004a4:	66 90                	xchg   %ax,%ax
  1004a6:	66 90                	xchg   %ax,%ax
  1004a8:	66 90                	xchg   %ax,%ax
  1004aa:	66 90                	xchg   %ax,%ax
  1004ac:	66 90                	xchg   %ax,%ax
  1004ae:	66 90                	xchg   %ax,%ax
  1004b0:	66 90                	xchg   %ax,%ax
  1004b2:	66 90                	xchg   %ax,%ax
  1004b4:	66 90                	xchg   %ax,%ax
  1004b6:	66 90                	xchg   %ax,%ax
  1004b8:	66 90                	xchg   %ax,%ax
  1004ba:	66 90                	xchg   %ax,%ax
  1004bc:	66 90                	xchg   %ax,%ax
  1004be:	66 90                	xchg   %ax,%ax
  1004c0:	66 90                	xchg   %ax,%ax
  1004c2:	66 90                	xchg   %ax,%ax
  1004c4:	66 90                	xchg   %ax,%ax
  1004c6:	66 90                	xchg   %ax,%ax
  1004c8:	66 90                	xchg   %ax,%ax
  1004ca:	66 90                	xchg   %ax,%ax
  1004cc:	66 90                	xchg   %ax,%ax
  1004ce:	66 90                	xchg   %ax,%ax
  1004d0:	66 90                	xchg   %ax,%ax
  1004d2:	66 90                	xchg   %ax,%ax
  1004d4:	66 90                	xchg   %ax,%ax
  1004d6:	66 90                	xchg   %ax,%ax
  1004d8:	66 90                	xchg   %ax,%ax
  1004da:	66 90                	xchg   %ax,%ax
  1004dc:	66 90                	xchg   %ax,%ax
  1004de:	66 90                	xchg   %ax,%ax
  1004e0:	66 90                	xchg   %ax,%ax
  1004e2:	66 90                	xchg   %ax,%ax
  1004e4:	66 90                	xchg   %ax,%ax
  1004e6:	66 90                	xchg   %ax,%ax
  1004e8:	66 90                	xchg   %ax,%ax
  1004ea:	66 90                	xchg   %ax,%ax
  1004ec:	66 90                	xchg   %ax,%ax
  1004ee:	66 90                	xchg   %ax,%ax
  1004f0:	66 90                	xchg   %ax,%ax
  1004f2:	66 90                	xchg   %ax,%ax
  1004f4:	66 90                	xchg   %ax,%ax
  1004f6:	66 90                	xchg   %ax,%ax
  1004f8:	66 90                	xchg   %ax,%ax
  1004fa:	66 90                	xchg   %ax,%ax
  1004fc:	66 90                	xchg   %ax,%ax
  1004fe:	66 90                	xchg   %ax,%ax
  100500:	66 90                	xchg   %ax,%ax
  100502:	66 90                	xchg   %ax,%ax
  100504:	66 90                	xchg   %ax,%ax
  100506:	66 90                	xchg   %ax,%ax
  100508:	66 90                	xchg   %ax,%ax
  10050a:	66 90                	xchg   %ax,%ax
  10050c:	66 90                	xchg   %ax,%ax
  10050e:	66 90                	xchg   %ax,%ax
  100510:	66 90                	xchg   %ax,%ax
  100512:	66 90                	xchg   %ax,%ax
  100514:	66 90                	xchg   %ax,%ax
  100516:	66 90                	xchg   %ax,%ax
  100518:	66 90                	xchg   %ax,%ax
  10051a:	66 90                	xchg   %ax,%ax
  10051c:	66 90                	xchg   %ax,%ax
  10051e:	66 90                	xchg   %ax,%ax
  100520:	66 90                	xchg   %ax,%ax
  100522:	66 90                	xchg   %ax,%ax
  100524:	66 90                	xchg   %ax,%ax
  100526:	66 90                	xchg   %ax,%ax
  100528:	66 90                	xchg   %ax,%ax
  10052a:	66 90                	xchg   %ax,%ax
  10052c:	66 90                	xchg   %ax,%ax
  10052e:	66 90                	xchg   %ax,%ax
  100530:	66 90                	xchg   %ax,%ax
  100532:	66 90                	xchg   %ax,%ax
  100534:	66 90                	xchg   %ax,%ax
  100536:	66 90                	xchg   %ax,%ax
  100538:	66 90                	xchg   %ax,%ax
  10053a:	66 90                	xchg   %ax,%ax
  10053c:	66 90                	xchg   %ax,%ax
  10053e:	66 90                	xchg   %ax,%ax
  100540:	66 90                	xchg   %ax,%ax
  100542:	66 90                	xchg   %ax,%ax
  100544:	66 90                	xchg   %ax,%ax
  100546:	66 90                	xchg   %ax,%ax
  100548:	66 90                	xchg   %ax,%ax
  10054a:	66 90                	xchg   %ax,%ax
  10054c:	66 90                	xchg   %ax,%ax
  10054e:	66 90                	xchg   %ax,%ax
  100550:	66 90                	xchg   %ax,%ax
  100552:	66 90                	xchg   %ax,%ax
  100554:	66 90                	xchg   %ax,%ax
  100556:	66 90                	xchg   %ax,%ax
  100558:	66 90                	xchg   %ax,%ax
  10055a:	66 90                	xchg   %ax,%ax
  10055c:	66 90                	xchg   %ax,%ax
  10055e:	66 90                	xchg   %ax,%ax
  100560:	66 90                	xchg   %ax,%ax
  100562:	66 90                	xchg   %ax,%ax
  100564:	66 90                	xchg   %ax,%ax
  100566:	66 90                	xchg   %ax,%ax
  100568:	66 90                	xchg   %ax,%ax
  10056a:	66 90                	xchg   %ax,%ax
  10056c:	66 90                	xchg   %ax,%ax
  10056e:	66 90                	xchg   %ax,%ax
  100570:	66 90                	xchg   %ax,%ax
  100572:	66 90                	xchg   %ax,%ax
  100574:	66 90                	xchg   %ax,%ax
  100576:	66 90                	xchg   %ax,%ax
  100578:	66 90                	xchg   %ax,%ax
  10057a:	66 90                	xchg   %ax,%ax
  10057c:	66 90                	xchg   %ax,%ax
  10057e:	66 90                	xchg   %ax,%ax
  100580:	66 90                	xchg   %ax,%ax
  100582:	66 90                	xchg   %ax,%ax
  100584:	66 90                	xchg   %ax,%ax
  100586:	66 90                	xchg   %ax,%ax
  100588:	66 90                	xchg   %ax,%ax
  10058a:	66 90                	xchg   %ax,%ax
  10058c:	66 90                	xchg   %ax,%ax
  10058e:	66 90                	xchg   %ax,%ax
  100590:	66 90                	xchg   %ax,%ax
  100592:	66 90                	xchg   %ax,%ax
  100594:	66 90                	xchg   %ax,%ax
  100596:	66 90                	xchg   %ax,%ax
  100598:	66 90                	xchg   %ax,%ax
  10059a:	66 90                	xchg   %ax,%ax
  10059c:	66 90                	xchg   %ax,%ax
  10059e:	66 90                	xchg   %ax,%ax
  1005a0:	66 90                	xchg   %ax,%ax
  1005a2:	66 90                	xchg   %ax,%ax
  1005a4:	66 90                	xchg   %ax,%ax
  1005a6:	66 90                	xchg   %ax,%ax
  1005a8:	66 90                	xchg   %ax,%ax
  1005aa:	66 90                	xchg   %ax,%ax
  1005ac:	66 90                	xchg   %ax,%ax
  1005ae:	66 90                	xchg   %ax,%ax
  1005b0:	66 90                	xchg   %ax,%ax
  1005b2:	66 90                	xchg   %ax,%ax
  1005b4:	66 90                	xchg   %ax,%ax
  1005b6:	66 90                	xchg   %ax,%ax
  1005b8:	66 90                	xchg   %ax,%ax
  1005ba:	66 90                	xchg   %ax,%ax
  1005bc:	66 90                	xchg   %ax,%ax
  1005be:	66 90                	xchg   %ax,%ax
  1005c0:	66 90                	xchg   %ax,%ax
  1005c2:	66 90                	xchg   %ax,%ax
  1005c4:	66 90                	xchg   %ax,%ax
  1005c6:	66 90                	xchg   %ax,%ax
  1005c8:	66 90                	xchg   %ax,%ax
  1005ca:	66 90                	xchg   %ax,%ax
  1005cc:	66 90                	xchg   %ax,%ax
  1005ce:	66 90                	xchg   %ax,%ax
  1005d0:	66 90                	xchg   %ax,%ax
  1005d2:	66 90                	xchg   %ax,%ax
  1005d4:	66 90                	xchg   %ax,%ax
  1005d6:	66 90                	xchg   %ax,%ax
  1005d8:	66 90                	xchg   %ax,%ax
  1005da:	66 90                	xchg   %ax,%ax
  1005dc:	66 90                	xchg   %ax,%ax
  1005de:	66 90                	xchg   %ax,%ax
  1005e0:	66 90                	xchg   %ax,%ax
  1005e2:	66 90                	xchg   %ax,%ax
  1005e4:	66 90                	xchg   %ax,%ax
  1005e6:	66 90                	xchg   %ax,%ax
  1005e8:	66 90                	xchg   %ax,%ax
  1005ea:	66 90                	xchg   %ax,%ax
  1005ec:	66 90                	xchg   %ax,%ax
  1005ee:	66 90                	xchg   %ax,%ax
  1005f0:	66 90                	xchg   %ax,%ax
  1005f2:	66 90                	xchg   %ax,%ax
  1005f4:	66 90                	xchg   %ax,%ax
  1005f6:	66 90                	xchg   %ax,%ax
  1005f8:	66 90                	xchg   %ax,%ax
  1005fa:	66 90                	xchg   %ax,%ax
  1005fc:	66 90                	xchg   %ax,%ax
  1005fe:	66 90                	xchg   %ax,%ax
  100600:	66 90                	xchg   %ax,%ax
  100602:	66 90                	xchg   %ax,%ax
  100604:	66 90                	xchg   %ax,%ax
  100606:	66 90                	xchg   %ax,%ax
  100608:	66 90                	xchg   %ax,%ax
  10060a:	66 90                	xchg   %ax,%ax
  10060c:	66 90                	xchg   %ax,%ax
  10060e:	66 90                	xchg   %ax,%ax
  100610:	66 90                	xchg   %ax,%ax
  100612:	66 90                	xchg   %ax,%ax
  100614:	66 90                	xchg   %ax,%ax
  100616:	66 90                	xchg   %ax,%ax
  100618:	66 90                	xchg   %ax,%ax
  10061a:	66 90                	xchg   %ax,%ax
  10061c:	66 90                	xchg   %ax,%ax
  10061e:	66 90                	xchg   %ax,%ax
  100620:	66 90                	xchg   %ax,%ax
  100622:	66 90                	xchg   %ax,%ax
  100624:	66 90                	xchg   %ax,%ax
  100626:	66 90                	xchg   %ax,%ax
  100628:	66 90                	xchg   %ax,%ax
  10062a:	66 90                	xchg   %ax,%ax
  10062c:	66 90                	xchg   %ax,%ax
  10062e:	66 90                	xchg   %ax,%ax
  100630:	66 90                	xchg   %ax,%ax
  100632:	66 90                	xchg   %ax,%ax
  100634:	66 90                	xchg   %ax,%ax
  100636:	66 90                	xchg   %ax,%ax
  100638:	66 90                	xchg   %ax,%ax
  10063a:	66 90                	xchg   %ax,%ax
  10063c:	66 90                	xchg   %ax,%ax
  10063e:	66 90                	xchg   %ax,%ax
  100640:	66 90                	xchg   %ax,%ax
  100642:	66 90                	xchg   %ax,%ax
  100644:	66 90                	xchg   %ax,%ax
  100646:	66 90                	xchg   %ax,%ax
  100648:	66 90                	xchg   %ax,%ax
  10064a:	66 90                	xchg   %ax,%ax
  10064c:	66 90                	xchg   %ax,%ax
  10064e:	66 90                	xchg   %ax,%ax
  100650:	66 90                	xchg   %ax,%ax
  100652:	66 90                	xchg   %ax,%ax
  100654:	66 90                	xchg   %ax,%ax
  100656:	66 90                	xchg   %ax,%ax
  100658:	66 90                	xchg   %ax,%ax
  10065a:	66 90                	xchg   %ax,%ax
  10065c:	66 90                	xchg   %ax,%ax
  10065e:	66 90                	xchg   %ax,%ax
  100660:	66 90                	xchg   %ax,%ax
  100662:	66 90                	xchg   %ax,%ax
  100664:	66 90                	xchg   %ax,%ax
  100666:	66 90                	xchg   %ax,%ax
  100668:	66 90                	xchg   %ax,%ax
  10066a:	66 90                	xchg   %ax,%ax
  10066c:	66 90                	xchg   %ax,%ax
  10066e:	66 90                	xchg   %ax,%ax
  100670:	66 90                	xchg   %ax,%ax
  100672:	66 90                	xchg   %ax,%ax
  100674:	66 90                	xchg   %ax,%ax
  100676:	66 90                	xchg   %ax,%ax
  100678:	66 90                	xchg   %ax,%ax
  10067a:	66 90                	xchg   %ax,%ax
  10067c:	66 90                	xchg   %ax,%ax
  10067e:	66 90                	xchg   %ax,%ax
  100680:	66 90                	xchg   %ax,%ax
  100682:	66 90                	xchg   %ax,%ax
  100684:	66 90                	xchg   %ax,%ax
  100686:	66 90                	xchg   %ax,%ax
  100688:	66 90                	xchg   %ax,%ax
  10068a:	66 90                	xchg   %ax,%ax
  10068c:	66 90                	xchg   %ax,%ax
  10068e:	66 90                	xchg   %ax,%ax
  100690:	66 90                	xchg   %ax,%ax
  100692:	66 90                	xchg   %ax,%ax
  100694:	66 90                	xchg   %ax,%ax
  100696:	66 90                	xchg   %ax,%ax
  100698:	66 90                	xchg   %ax,%ax
  10069a:	66 90                	xchg   %ax,%ax
  10069c:	66 90                	xchg   %ax,%ax
  10069e:	66 90                	xchg   %ax,%ax
  1006a0:	66 90                	xchg   %ax,%ax
  1006a2:	66 90                	xchg   %ax,%ax
  1006a4:	66 90                	xchg   %ax,%ax
  1006a6:	66 90                	xchg   %ax,%ax
  1006a8:	66 90                	xchg   %ax,%ax
  1006aa:	66 90                	xchg   %ax,%ax
  1006ac:	66 90                	xchg   %ax,%ax
  1006ae:	66 90                	xchg   %ax,%ax
  1006b0:	66 90                	xchg   %ax,%ax
  1006b2:	66 90                	xchg   %ax,%ax
  1006b4:	66 90                	xchg   %ax,%ax
  1006b6:	66 90                	xchg   %ax,%ax
  1006b8:	66 90                	xchg   %ax,%ax
  1006ba:	66 90                	xchg   %ax,%ax
  1006bc:	66 90                	xchg   %ax,%ax
  1006be:	66 90                	xchg   %ax,%ax
  1006c0:	66 90                	xchg   %ax,%ax
  1006c2:	66 90                	xchg   %ax,%ax
  1006c4:	66 90                	xchg   %ax,%ax
  1006c6:	66 90                	xchg   %ax,%ax
  1006c8:	66 90                	xchg   %ax,%ax
  1006ca:	66 90                	xchg   %ax,%ax
  1006cc:	66 90                	xchg   %ax,%ax
  1006ce:	66 90                	xchg   %ax,%ax
  1006d0:	66 90                	xchg   %ax,%ax
  1006d2:	66 90                	xchg   %ax,%ax
  1006d4:	66 90                	xchg   %ax,%ax
  1006d6:	66 90                	xchg   %ax,%ax
  1006d8:	66 90                	xchg   %ax,%ax
  1006da:	66 90                	xchg   %ax,%ax
  1006dc:	66 90                	xchg   %ax,%ax
  1006de:	66 90                	xchg   %ax,%ax
  1006e0:	66 90                	xchg   %ax,%ax
  1006e2:	66 90                	xchg   %ax,%ax
  1006e4:	66 90                	xchg   %ax,%ax
  1006e6:	66 90                	xchg   %ax,%ax
  1006e8:	66 90                	xchg   %ax,%ax
  1006ea:	66 90                	xchg   %ax,%ax
  1006ec:	66 90                	xchg   %ax,%ax
  1006ee:	66 90                	xchg   %ax,%ax
  1006f0:	66 90                	xchg   %ax,%ax
  1006f2:	66 90                	xchg   %ax,%ax
  1006f4:	66 90                	xchg   %ax,%ax
  1006f6:	66 90                	xchg   %ax,%ax
  1006f8:	66 90                	xchg   %ax,%ax
  1006fa:	66 90                	xchg   %ax,%ax
  1006fc:	66 90                	xchg   %ax,%ax
  1006fe:	66 90                	xchg   %ax,%ax
  100700:	66 90                	xchg   %ax,%ax
  100702:	66 90                	xchg   %ax,%ax
  100704:	66 90                	xchg   %ax,%ax
  100706:	66 90                	xchg   %ax,%ax
  100708:	66 90                	xchg   %ax,%ax
  10070a:	66 90                	xchg   %ax,%ax
  10070c:	66 90                	xchg   %ax,%ax
  10070e:	66 90                	xchg   %ax,%ax
  100710:	66 90                	xchg   %ax,%ax
  100712:	66 90                	xchg   %ax,%ax
  100714:	66 90                	xchg   %ax,%ax
  100716:	66 90                	xchg   %ax,%ax
  100718:	66 90                	xchg   %ax,%ax
  10071a:	66 90                	xchg   %ax,%ax
  10071c:	66 90                	xchg   %ax,%ax
  10071e:	66 90                	xchg   %ax,%ax
  100720:	66 90                	xchg   %ax,%ax
  100722:	66 90                	xchg   %ax,%ax
  100724:	66 90                	xchg   %ax,%ax
  100726:	66 90                	xchg   %ax,%ax
  100728:	66 90                	xchg   %ax,%ax
  10072a:	66 90                	xchg   %ax,%ax
  10072c:	66 90                	xchg   %ax,%ax
  10072e:	66 90                	xchg   %ax,%ax
  100730:	66 90                	xchg   %ax,%ax
  100732:	66 90                	xchg   %ax,%ax
  100734:	66 90                	xchg   %ax,%ax
  100736:	66 90                	xchg   %ax,%ax
  100738:	66 90                	xchg   %ax,%ax
  10073a:	66 90                	xchg   %ax,%ax
  10073c:	66 90                	xchg   %ax,%ax
  10073e:	66 90                	xchg   %ax,%ax
  100740:	66 90                	xchg   %ax,%ax
  100742:	66 90                	xchg   %ax,%ax
  100744:	66 90                	xchg   %ax,%ax
  100746:	66 90                	xchg   %ax,%ax
  100748:	66 90                	xchg   %ax,%ax
  10074a:	66 90                	xchg   %ax,%ax
  10074c:	66 90                	xchg   %ax,%ax
  10074e:	66 90                	xchg   %ax,%ax
  100750:	66 90                	xchg   %ax,%ax
  100752:	66 90                	xchg   %ax,%ax
  100754:	66 90                	xchg   %ax,%ax
  100756:	66 90                	xchg   %ax,%ax
  100758:	66 90                	xchg   %ax,%ax
  10075a:	66 90                	xchg   %ax,%ax
  10075c:	66 90                	xchg   %ax,%ax
  10075e:	66 90                	xchg   %ax,%ax
  100760:	66 90                	xchg   %ax,%ax
  100762:	66 90                	xchg   %ax,%ax
  100764:	66 90                	xchg   %ax,%ax
  100766:	66 90                	xchg   %ax,%ax
  100768:	66 90                	xchg   %ax,%ax
  10076a:	66 90                	xchg   %ax,%ax
  10076c:	66 90                	xchg   %ax,%ax
  10076e:	66 90                	xchg   %ax,%ax
  100770:	66 90                	xchg   %ax,%ax
  100772:	66 90                	xchg   %ax,%ax
  100774:	66 90                	xchg   %ax,%ax
  100776:	66 90                	xchg   %ax,%ax
  100778:	66 90                	xchg   %ax,%ax
  10077a:	66 90                	xchg   %ax,%ax
  10077c:	66 90                	xchg   %ax,%ax
  10077e:	66 90                	xchg   %ax,%ax
  100780:	66 90                	xchg   %ax,%ax
  100782:	66 90                	xchg   %ax,%ax
  100784:	66 90                	xchg   %ax,%ax
  100786:	66 90                	xchg   %ax,%ax
  100788:	66 90                	xchg   %ax,%ax
  10078a:	66 90                	xchg   %ax,%ax
  10078c:	66 90                	xchg   %ax,%ax
  10078e:	66 90                	xchg   %ax,%ax
  100790:	66 90                	xchg   %ax,%ax
  100792:	66 90                	xchg   %ax,%ax
  100794:	66 90                	xchg   %ax,%ax
  100796:	66 90                	xchg   %ax,%ax
  100798:	66 90                	xchg   %ax,%ax
  10079a:	66 90                	xchg   %ax,%ax
  10079c:	66 90                	xchg   %ax,%ax
  10079e:	66 90                	xchg   %ax,%ax
  1007a0:	66 90                	xchg   %ax,%ax
  1007a2:	66 90                	xchg   %ax,%ax
  1007a4:	66 90                	xchg   %ax,%ax
  1007a6:	66 90                	xchg   %ax,%ax
  1007a8:	66 90                	xchg   %ax,%ax
  1007aa:	66 90                	xchg   %ax,%ax
  1007ac:	66 90                	xchg   %ax,%ax
  1007ae:	66 90                	xchg   %ax,%ax
  1007b0:	66 90                	xchg   %ax,%ax
  1007b2:	66 90                	xchg   %ax,%ax
  1007b4:	66 90                	xchg   %ax,%ax
  1007b6:	66 90                	xchg   %ax,%ax
  1007b8:	66 90                	xchg   %ax,%ax
  1007ba:	66 90                	xchg   %ax,%ax
  1007bc:	66 90                	xchg   %ax,%ax
  1007be:	66 90                	xchg   %ax,%ax
  1007c0:	66 90                	xchg   %ax,%ax
  1007c2:	66 90                	xchg   %ax,%ax
  1007c4:	66 90                	xchg   %ax,%ax
  1007c6:	66 90                	xchg   %ax,%ax
  1007c8:	66 90                	xchg   %ax,%ax
  1007ca:	66 90                	xchg   %ax,%ax
  1007cc:	66 90                	xchg   %ax,%ax
  1007ce:	66 90                	xchg   %ax,%ax
  1007d0:	66 90                	xchg   %ax,%ax
  1007d2:	66 90                	xchg   %ax,%ax
  1007d4:	66 90                	xchg   %ax,%ax
  1007d6:	66 90                	xchg   %ax,%ax
  1007d8:	66 90                	xchg   %ax,%ax
  1007da:	66 90                	xchg   %ax,%ax
  1007dc:	66 90                	xchg   %ax,%ax
  1007de:	66 90                	xchg   %ax,%ax
  1007e0:	66 90                	xchg   %ax,%ax
  1007e2:	66 90                	xchg   %ax,%ax
  1007e4:	66 90                	xchg   %ax,%ax
  1007e6:	66 90                	xchg   %ax,%ax
  1007e8:	66 90                	xchg   %ax,%ax
  1007ea:	66 90                	xchg   %ax,%ax
  1007ec:	66 90                	xchg   %ax,%ax
  1007ee:	66 90                	xchg   %ax,%ax
  1007f0:	66 90                	xchg   %ax,%ax
  1007f2:	66 90                	xchg   %ax,%ax
  1007f4:	66 90                	xchg   %ax,%ax
  1007f6:	66 90                	xchg   %ax,%ax
  1007f8:	66 90                	xchg   %ax,%ax
  1007fa:	66 90                	xchg   %ax,%ax
  1007fc:	66 90                	xchg   %ax,%ax
  1007fe:	66 90                	xchg   %ax,%ax
  100800:	66 90                	xchg   %ax,%ax
  100802:	66 90                	xchg   %ax,%ax
  100804:	66 90                	xchg   %ax,%ax
  100806:	66 90                	xchg   %ax,%ax
  100808:	66 90                	xchg   %ax,%ax
  10080a:	66 90                	xchg   %ax,%ax
  10080c:	66 90                	xchg   %ax,%ax
  10080e:	66 90                	xchg   %ax,%ax
  100810:	66 90                	xchg   %ax,%ax
  100812:	66 90                	xchg   %ax,%ax
  100814:	66 90                	xchg   %ax,%ax
  100816:	66 90                	xchg   %ax,%ax
  100818:	66 90                	xchg   %ax,%ax
  10081a:	66 90                	xchg   %ax,%ax
  10081c:	66 90                	xchg   %ax,%ax
  10081e:	66 90                	xchg   %ax,%ax
  100820:	66 90                	xchg   %ax,%ax
  100822:	66 90                	xchg   %ax,%ax
  100824:	66 90                	xchg   %ax,%ax
  100826:	66 90                	xchg   %ax,%ax
  100828:	66 90                	xchg   %ax,%ax
  10082a:	66 90                	xchg   %ax,%ax
  10082c:	66 90                	xchg   %ax,%ax
  10082e:	66 90                	xchg   %ax,%ax
  100830:	66 90                	xchg   %ax,%ax
  100832:	66 90                	xchg   %ax,%ax
  100834:	66 90                	xchg   %ax,%ax
  100836:	66 90                	xchg   %ax,%ax
  100838:	66 90                	xchg   %ax,%ax
  10083a:	66 90                	xchg   %ax,%ax
  10083c:	66 90                	xchg   %ax,%ax
  10083e:	66 90                	xchg   %ax,%ax
  100840:	66 90                	xchg   %ax,%ax
  100842:	66 90                	xchg   %ax,%ax
  100844:	66 90                	xchg   %ax,%ax
  100846:	66 90                	xchg   %ax,%ax
  100848:	66 90                	xchg   %ax,%ax
  10084a:	66 90                	xchg   %ax,%ax
  10084c:	66 90                	xchg   %ax,%ax
  10084e:	66 90                	xchg   %ax,%ax
  100850:	66 90                	xchg   %ax,%ax
  100852:	66 90                	xchg   %ax,%ax
  100854:	66 90                	xchg   %ax,%ax
  100856:	66 90                	xchg   %ax,%ax
  100858:	66 90                	xchg   %ax,%ax
  10085a:	66 90                	xchg   %ax,%ax
  10085c:	66 90                	xchg   %ax,%ax
  10085e:	66 90                	xchg   %ax,%ax
  100860:	66 90                	xchg   %ax,%ax
  100862:	66 90                	xchg   %ax,%ax
  100864:	66 90                	xchg   %ax,%ax
  100866:	66 90                	xchg   %ax,%ax
  100868:	66 90                	xchg   %ax,%ax
  10086a:	66 90                	xchg   %ax,%ax
  10086c:	66 90                	xchg   %ax,%ax
  10086e:	66 90                	xchg   %ax,%ax
  100870:	66 90                	xchg   %ax,%ax
  100872:	66 90                	xchg   %ax,%ax
  100874:	66 90                	xchg   %ax,%ax
  100876:	66 90                	xchg   %ax,%ax
  100878:	66 90                	xchg   %ax,%ax
  10087a:	66 90                	xchg   %ax,%ax
  10087c:	66 90                	xchg   %ax,%ax
  10087e:	66 90                	xchg   %ax,%ax
  100880:	66 90                	xchg   %ax,%ax
  100882:	66 90                	xchg   %ax,%ax
  100884:	66 90                	xchg   %ax,%ax
  100886:	66 90                	xchg   %ax,%ax
  100888:	66 90                	xchg   %ax,%ax
  10088a:	66 90                	xchg   %ax,%ax
  10088c:	66 90                	xchg   %ax,%ax
  10088e:	66 90                	xchg   %ax,%ax
  100890:	66 90                	xchg   %ax,%ax
  100892:	66 90                	xchg   %ax,%ax
  100894:	66 90                	xchg   %ax,%ax
  100896:	66 90                	xchg   %ax,%ax
  100898:	66 90                	xchg   %ax,%ax
  10089a:	66 90                	xchg   %ax,%ax
  10089c:	66 90                	xchg   %ax,%ax
  10089e:	66 90                	xchg   %ax,%ax
  1008a0:	66 90                	xchg   %ax,%ax
  1008a2:	66 90                	xchg   %ax,%ax
  1008a4:	66 90                	xchg   %ax,%ax
  1008a6:	66 90                	xchg   %ax,%ax
  1008a8:	66 90                	xchg   %ax,%ax
  1008aa:	66 90                	xchg   %ax,%ax
  1008ac:	66 90                	xchg   %ax,%ax
  1008ae:	66 90                	xchg   %ax,%ax
  1008b0:	66 90                	xchg   %ax,%ax
  1008b2:	66 90                	xchg   %ax,%ax
  1008b4:	66 90                	xchg   %ax,%ax
  1008b6:	66 90                	xchg   %ax,%ax
  1008b8:	66 90                	xchg   %ax,%ax
  1008ba:	66 90                	xchg   %ax,%ax
  1008bc:	66 90                	xchg   %ax,%ax
  1008be:	66 90                	xchg   %ax,%ax
  1008c0:	66 90                	xchg   %ax,%ax
  1008c2:	66 90                	xchg   %ax,%ax
  1008c4:	66 90                	xchg   %ax,%ax
  1008c6:	66 90                	xchg   %ax,%ax
  1008c8:	66 90                	xchg   %ax,%ax
  1008ca:	66 90                	xchg   %ax,%ax
  1008cc:	66 90                	xchg   %ax,%ax
  1008ce:	66 90                	xchg   %ax,%ax
  1008d0:	66 90                	xchg   %ax,%ax
  1008d2:	66 90                	xchg   %ax,%ax
  1008d4:	66 90                	xchg   %ax,%ax
  1008d6:	66 90                	xchg   %ax,%ax
  1008d8:	66 90                	xchg   %ax,%ax
  1008da:	66 90                	xchg   %ax,%ax
  1008dc:	66 90                	xchg   %ax,%ax
  1008de:	66 90                	xchg   %ax,%ax
  1008e0:	66 90                	xchg   %ax,%ax
  1008e2:	66 90                	xchg   %ax,%ax
  1008e4:	66 90                	xchg   %ax,%ax
  1008e6:	66 90                	xchg   %ax,%ax
  1008e8:	66 90                	xchg   %ax,%ax
  1008ea:	66 90                	xchg   %ax,%ax
  1008ec:	66 90                	xchg   %ax,%ax
  1008ee:	66 90                	xchg   %ax,%ax
  1008f0:	66 90                	xchg   %ax,%ax
  1008f2:	66 90                	xchg   %ax,%ax
  1008f4:	66 90                	xchg   %ax,%ax
  1008f6:	66 90                	xchg   %ax,%ax
  1008f8:	66 90                	xchg   %ax,%ax
  1008fa:	66 90                	xchg   %ax,%ax
  1008fc:	66 90                	xchg   %ax,%ax
  1008fe:	66 90                	xchg   %ax,%ax
  100900:	66 90                	xchg   %ax,%ax
  100902:	66 90                	xchg   %ax,%ax
  100904:	66 90                	xchg   %ax,%ax
  100906:	66 90                	xchg   %ax,%ax
  100908:	66 90                	xchg   %ax,%ax
  10090a:	66 90                	xchg   %ax,%ax
  10090c:	66 90                	xchg   %ax,%ax
  10090e:	66 90                	xchg   %ax,%ax
  100910:	66 90                	xchg   %ax,%ax
  100912:	66 90                	xchg   %ax,%ax
  100914:	66 90                	xchg   %ax,%ax
  100916:	66 90                	xchg   %ax,%ax
  100918:	66 90                	xchg   %ax,%ax
  10091a:	66 90                	xchg   %ax,%ax
  10091c:	66 90                	xchg   %ax,%ax
  10091e:	66 90                	xchg   %ax,%ax
  100920:	66 90                	xchg   %ax,%ax
  100922:	66 90                	xchg   %ax,%ax
  100924:	66 90                	xchg   %ax,%ax
  100926:	66 90                	xchg   %ax,%ax
  100928:	66 90                	xchg   %ax,%ax
  10092a:	66 90                	xchg   %ax,%ax
  10092c:	66 90                	xchg   %ax,%ax
  10092e:	66 90                	xchg   %ax,%ax
  100930:	66 90                	xchg   %ax,%ax
  100932:	66 90                	xchg   %ax,%ax
  100934:	66 90                	xchg   %ax,%ax
  100936:	66 90                	xchg   %ax,%ax
  100938:	66 90                	xchg   %ax,%ax
  10093a:	66 90                	xchg   %ax,%ax
  10093c:	66 90                	xchg   %ax,%ax
  10093e:	66 90                	xchg   %ax,%ax
  100940:	66 90                	xchg   %ax,%ax
  100942:	66 90                	xchg   %ax,%ax
  100944:	66 90                	xchg   %ax,%ax
  100946:	66 90                	xchg   %ax,%ax
  100948:	66 90                	xchg   %ax,%ax
  10094a:	66 90                	xchg   %ax,%ax
  10094c:	66 90                	xchg   %ax,%ax
  10094e:	66 90                	xchg   %ax,%ax
  100950:	66 90                	xchg   %ax,%ax
  100952:	66 90                	xchg   %ax,%ax
  100954:	66 90                	xchg   %ax,%ax
  100956:	66 90                	xchg   %ax,%ax
  100958:	66 90                	xchg   %ax,%ax
  10095a:	66 90                	xchg   %ax,%ax
  10095c:	66 90                	xchg   %ax,%ax
  10095e:	66 90                	xchg   %ax,%ax
  100960:	66 90                	xchg   %ax,%ax
  100962:	66 90                	xchg   %ax,%ax
  100964:	66 90                	xchg   %ax,%ax
  100966:	66 90                	xchg   %ax,%ax
  100968:	66 90                	xchg   %ax,%ax
  10096a:	66 90                	xchg   %ax,%ax
  10096c:	66 90                	xchg   %ax,%ax
  10096e:	66 90                	xchg   %ax,%ax
  100970:	66 90                	xchg   %ax,%ax
  100972:	66 90                	xchg   %ax,%ax
  100974:	66 90                	xchg   %ax,%ax
  100976:	66 90                	xchg   %ax,%ax
  100978:	66 90                	xchg   %ax,%ax
  10097a:	66 90                	xchg   %ax,%ax
  10097c:	66 90                	xchg   %ax,%ax
  10097e:	66 90                	xchg   %ax,%ax
  100980:	66 90                	xchg   %ax,%ax
  100982:	66 90                	xchg   %ax,%ax
  100984:	66 90                	xchg   %ax,%ax
  100986:	66 90                	xchg   %ax,%ax
  100988:	66 90                	xchg   %ax,%ax
  10098a:	66 90                	xchg   %ax,%ax
  10098c:	66 90                	xchg   %ax,%ax
  10098e:	66 90                	xchg   %ax,%ax
  100990:	66 90                	xchg   %ax,%ax
  100992:	66 90                	xchg   %ax,%ax
  100994:	66 90                	xchg   %ax,%ax
  100996:	66 90                	xchg   %ax,%ax
  100998:	66 90                	xchg   %ax,%ax
  10099a:	66 90                	xchg   %ax,%ax
  10099c:	66 90                	xchg   %ax,%ax
  10099e:	66 90                	xchg   %ax,%ax
  1009a0:	66 90                	xchg   %ax,%ax
  1009a2:	66 90                	xchg   %ax,%ax
  1009a4:	66 90                	xchg   %ax,%ax
  1009a6:	66 90                	xchg   %ax,%ax
  1009a8:	66 90                	xchg   %ax,%ax
  1009aa:	66 90                	xchg   %ax,%ax
  1009ac:	66 90                	xchg   %ax,%ax
  1009ae:	66 90                	xchg   %ax,%ax
  1009b0:	66 90                	xchg   %ax,%ax
  1009b2:	66 90                	xchg   %ax,%ax
  1009b4:	66 90                	xchg   %ax,%ax
  1009b6:	66 90                	xchg   %ax,%ax
  1009b8:	66 90                	xchg   %ax,%ax
  1009ba:	66 90                	xchg   %ax,%ax
  1009bc:	66 90                	xchg   %ax,%ax
  1009be:	66 90                	xchg   %ax,%ax
  1009c0:	66 90                	xchg   %ax,%ax
  1009c2:	66 90                	xchg   %ax,%ax
  1009c4:	66 90                	xchg   %ax,%ax
  1009c6:	66 90                	xchg   %ax,%ax
  1009c8:	66 90                	xchg   %ax,%ax
  1009ca:	66 90                	xchg   %ax,%ax
  1009cc:	66 90                	xchg   %ax,%ax
  1009ce:	66 90                	xchg   %ax,%ax
  1009d0:	66 90                	xchg   %ax,%ax
  1009d2:	66 90                	xchg   %ax,%ax
  1009d4:	66 90                	xchg   %ax,%ax
  1009d6:	66 90                	xchg   %ax,%ax
  1009d8:	66 90                	xchg   %ax,%ax
  1009da:	66 90                	xchg   %ax,%ax
  1009dc:	66 90                	xchg   %ax,%ax
  1009de:	66 90                	xchg   %ax,%ax
  1009e0:	66 90                	xchg   %ax,%ax
  1009e2:	66 90                	xchg   %ax,%ax
  1009e4:	66 90                	xchg   %ax,%ax
  1009e6:	66 90                	xchg   %ax,%ax
  1009e8:	66 90                	xchg   %ax,%ax
  1009ea:	66 90                	xchg   %ax,%ax
  1009ec:	66 90                	xchg   %ax,%ax
  1009ee:	66 90                	xchg   %ax,%ax
  1009f0:	66 90                	xchg   %ax,%ax
  1009f2:	66 90                	xchg   %ax,%ax
  1009f4:	66 90                	xchg   %ax,%ax
  1009f6:	66 90                	xchg   %ax,%ax
  1009f8:	66 90                	xchg   %ax,%ax
  1009fa:	66 90                	xchg   %ax,%ax
  1009fc:	66 90                	xchg   %ax,%ax
  1009fe:	66 90                	xchg   %ax,%ax
  100a00:	66 90                	xchg   %ax,%ax
  100a02:	66 90                	xchg   %ax,%ax
  100a04:	66 90                	xchg   %ax,%ax
  100a06:	66 90                	xchg   %ax,%ax
  100a08:	66 90                	xchg   %ax,%ax
  100a0a:	66 90                	xchg   %ax,%ax
  100a0c:	66 90                	xchg   %ax,%ax
  100a0e:	66 90                	xchg   %ax,%ax
  100a10:	66 90                	xchg   %ax,%ax
  100a12:	66 90                	xchg   %ax,%ax
  100a14:	66 90                	xchg   %ax,%ax
  100a16:	66 90                	xchg   %ax,%ax
  100a18:	66 90                	xchg   %ax,%ax
  100a1a:	66 90                	xchg   %ax,%ax
  100a1c:	66 90                	xchg   %ax,%ax
  100a1e:	66 90                	xchg   %ax,%ax
  100a20:	66 90                	xchg   %ax,%ax
  100a22:	66 90                	xchg   %ax,%ax
  100a24:	66 90                	xchg   %ax,%ax
  100a26:	66 90                	xchg   %ax,%ax
  100a28:	66 90                	xchg   %ax,%ax
  100a2a:	66 90                	xchg   %ax,%ax
  100a2c:	66 90                	xchg   %ax,%ax
  100a2e:	66 90                	xchg   %ax,%ax
  100a30:	66 90                	xchg   %ax,%ax
  100a32:	66 90                	xchg   %ax,%ax
  100a34:	66 90                	xchg   %ax,%ax
  100a36:	66 90                	xchg   %ax,%ax
  100a38:	66 90                	xchg   %ax,%ax
  100a3a:	66 90                	xchg   %ax,%ax
  100a3c:	66 90                	xchg   %ax,%ax
  100a3e:	66 90                	xchg   %ax,%ax
  100a40:	66 90                	xchg   %ax,%ax
  100a42:	66 90                	xchg   %ax,%ax
  100a44:	66 90                	xchg   %ax,%ax
  100a46:	66 90                	xchg   %ax,%ax
  100a48:	66 90                	xchg   %ax,%ax
  100a4a:	66 90                	xchg   %ax,%ax
  100a4c:	66 90                	xchg   %ax,%ax
  100a4e:	66 90                	xchg   %ax,%ax
  100a50:	66 90                	xchg   %ax,%ax
  100a52:	66 90                	xchg   %ax,%ax
  100a54:	66 90                	xchg   %ax,%ax
  100a56:	66 90                	xchg   %ax,%ax
  100a58:	66 90                	xchg   %ax,%ax
  100a5a:	66 90                	xchg   %ax,%ax
  100a5c:	66 90                	xchg   %ax,%ax
  100a5e:	66 90                	xchg   %ax,%ax
  100a60:	66 90                	xchg   %ax,%ax
  100a62:	66 90                	xchg   %ax,%ax
  100a64:	66 90                	xchg   %ax,%ax
  100a66:	66 90                	xchg   %ax,%ax
  100a68:	66 90                	xchg   %ax,%ax
  100a6a:	66 90                	xchg   %ax,%ax
  100a6c:	66 90                	xchg   %ax,%ax
  100a6e:	66 90                	xchg   %ax,%ax
  100a70:	66 90                	xchg   %ax,%ax
  100a72:	66 90                	xchg   %ax,%ax
  100a74:	66 90                	xchg   %ax,%ax
  100a76:	66 90                	xchg   %ax,%ax
  100a78:	66 90                	xchg   %ax,%ax
  100a7a:	66 90                	xchg   %ax,%ax
  100a7c:	66 90                	xchg   %ax,%ax
  100a7e:	66 90                	xchg   %ax,%ax
  100a80:	66 90                	xchg   %ax,%ax
  100a82:	66 90                	xchg   %ax,%ax
  100a84:	66 90                	xchg   %ax,%ax
  100a86:	66 90                	xchg   %ax,%ax
  100a88:	66 90                	xchg   %ax,%ax
  100a8a:	66 90                	xchg   %ax,%ax
  100a8c:	66 90                	xchg   %ax,%ax
  100a8e:	66 90                	xchg   %ax,%ax
  100a90:	66 90                	xchg   %ax,%ax
  100a92:	66 90                	xchg   %ax,%ax
  100a94:	66 90                	xchg   %ax,%ax
  100a96:	66 90                	xchg   %ax,%ax
  100a98:	66 90                	xchg   %ax,%ax
  100a9a:	66 90                	xchg   %ax,%ax
  100a9c:	66 90                	xchg   %ax,%ax
  100a9e:	66 90                	xchg   %ax,%ax
  100aa0:	66 90                	xchg   %ax,%ax
  100aa2:	66 90                	xchg   %ax,%ax
  100aa4:	66 90                	xchg   %ax,%ax
  100aa6:	66 90                	xchg   %ax,%ax
  100aa8:	66 90                	xchg   %ax,%ax
  100aaa:	66 90                	xchg   %ax,%ax
  100aac:	66 90                	xchg   %ax,%ax
  100aae:	66 90                	xchg   %ax,%ax
  100ab0:	66 90                	xchg   %ax,%ax
  100ab2:	66 90                	xchg   %ax,%ax
  100ab4:	66 90                	xchg   %ax,%ax
  100ab6:	66 90                	xchg   %ax,%ax
  100ab8:	66 90                	xchg   %ax,%ax
  100aba:	66 90                	xchg   %ax,%ax
  100abc:	66 90                	xchg   %ax,%ax
  100abe:	66 90                	xchg   %ax,%ax
  100ac0:	66 90                	xchg   %ax,%ax
  100ac2:	66 90                	xchg   %ax,%ax
  100ac4:	66 90                	xchg   %ax,%ax
  100ac6:	66 90                	xchg   %ax,%ax
  100ac8:	66 90                	xchg   %ax,%ax
  100aca:	66 90                	xchg   %ax,%ax
  100acc:	66 90                	xchg   %ax,%ax
  100ace:	66 90                	xchg   %ax,%ax
  100ad0:	66 90                	xchg   %ax,%ax
  100ad2:	66 90                	xchg   %ax,%ax
  100ad4:	66 90                	xchg   %ax,%ax
  100ad6:	66 90                	xchg   %ax,%ax
  100ad8:	66 90                	xchg   %ax,%ax
  100ada:	66 90                	xchg   %ax,%ax
  100adc:	66 90                	xchg   %ax,%ax
  100ade:	66 90                	xchg   %ax,%ax
  100ae0:	66 90                	xchg   %ax,%ax
  100ae2:	66 90                	xchg   %ax,%ax
  100ae4:	66 90                	xchg   %ax,%ax
  100ae6:	66 90                	xchg   %ax,%ax
  100ae8:	66 90                	xchg   %ax,%ax
  100aea:	66 90                	xchg   %ax,%ax
  100aec:	66 90                	xchg   %ax,%ax
  100aee:	66 90                	xchg   %ax,%ax
  100af0:	66 90                	xchg   %ax,%ax
  100af2:	66 90                	xchg   %ax,%ax
  100af4:	66 90                	xchg   %ax,%ax
  100af6:	66 90                	xchg   %ax,%ax
  100af8:	66 90                	xchg   %ax,%ax
  100afa:	66 90                	xchg   %ax,%ax
  100afc:	66 90                	xchg   %ax,%ax
  100afe:	66 90                	xchg   %ax,%ax
  100b00:	66 90                	xchg   %ax,%ax
  100b02:	66 90                	xchg   %ax,%ax
  100b04:	66 90                	xchg   %ax,%ax
  100b06:	66 90                	xchg   %ax,%ax
  100b08:	66 90                	xchg   %ax,%ax
  100b0a:	66 90                	xchg   %ax,%ax
  100b0c:	66 90                	xchg   %ax,%ax
  100b0e:	66 90                	xchg   %ax,%ax
  100b10:	66 90                	xchg   %ax,%ax
  100b12:	66 90                	xchg   %ax,%ax
  100b14:	66 90                	xchg   %ax,%ax
  100b16:	66 90                	xchg   %ax,%ax
  100b18:	66 90                	xchg   %ax,%ax
  100b1a:	66 90                	xchg   %ax,%ax
  100b1c:	66 90                	xchg   %ax,%ax
  100b1e:	66 90                	xchg   %ax,%ax
  100b20:	66 90                	xchg   %ax,%ax
  100b22:	66 90                	xchg   %ax,%ax
  100b24:	66 90                	xchg   %ax,%ax
  100b26:	66 90                	xchg   %ax,%ax
  100b28:	66 90                	xchg   %ax,%ax
  100b2a:	66 90                	xchg   %ax,%ax
  100b2c:	66 90                	xchg   %ax,%ax
  100b2e:	66 90                	xchg   %ax,%ax
  100b30:	66 90                	xchg   %ax,%ax
  100b32:	66 90                	xchg   %ax,%ax
  100b34:	66 90                	xchg   %ax,%ax
  100b36:	66 90                	xchg   %ax,%ax
  100b38:	66 90                	xchg   %ax,%ax
  100b3a:	66 90                	xchg   %ax,%ax
  100b3c:	66 90                	xchg   %ax,%ax
  100b3e:	66 90                	xchg   %ax,%ax
  100b40:	66 90                	xchg   %ax,%ax
  100b42:	66 90                	xchg   %ax,%ax
  100b44:	66 90                	xchg   %ax,%ax
  100b46:	66 90                	xchg   %ax,%ax
  100b48:	66 90                	xchg   %ax,%ax
  100b4a:	66 90                	xchg   %ax,%ax
  100b4c:	66 90                	xchg   %ax,%ax
  100b4e:	66 90                	xchg   %ax,%ax
  100b50:	66 90                	xchg   %ax,%ax
  100b52:	66 90                	xchg   %ax,%ax
  100b54:	66 90                	xchg   %ax,%ax
  100b56:	66 90                	xchg   %ax,%ax
  100b58:	66 90                	xchg   %ax,%ax
  100b5a:	66 90                	xchg   %ax,%ax
  100b5c:	66 90                	xchg   %ax,%ax
  100b5e:	66 90                	xchg   %ax,%ax
  100b60:	66 90                	xchg   %ax,%ax
  100b62:	66 90                	xchg   %ax,%ax
  100b64:	66 90                	xchg   %ax,%ax
  100b66:	66 90                	xchg   %ax,%ax
  100b68:	66 90                	xchg   %ax,%ax
  100b6a:	66 90                	xchg   %ax,%ax
  100b6c:	66 90                	xchg   %ax,%ax
  100b6e:	66 90                	xchg   %ax,%ax
  100b70:	66 90                	xchg   %ax,%ax
  100b72:	66 90                	xchg   %ax,%ax
  100b74:	66 90                	xchg   %ax,%ax
  100b76:	66 90                	xchg   %ax,%ax
  100b78:	66 90                	xchg   %ax,%ax
  100b7a:	66 90                	xchg   %ax,%ax
  100b7c:	66 90                	xchg   %ax,%ax
  100b7e:	66 90                	xchg   %ax,%ax
  100b80:	66 90                	xchg   %ax,%ax
  100b82:	66 90                	xchg   %ax,%ax
  100b84:	66 90                	xchg   %ax,%ax
  100b86:	66 90                	xchg   %ax,%ax
  100b88:	66 90                	xchg   %ax,%ax
  100b8a:	66 90                	xchg   %ax,%ax
  100b8c:	66 90                	xchg   %ax,%ax
  100b8e:	66 90                	xchg   %ax,%ax
  100b90:	66 90                	xchg   %ax,%ax
  100b92:	66 90                	xchg   %ax,%ax
  100b94:	66 90                	xchg   %ax,%ax
  100b96:	66 90                	xchg   %ax,%ax
  100b98:	66 90                	xchg   %ax,%ax
  100b9a:	66 90                	xchg   %ax,%ax
  100b9c:	66 90                	xchg   %ax,%ax
  100b9e:	66 90                	xchg   %ax,%ax
  100ba0:	66 90                	xchg   %ax,%ax
  100ba2:	66 90                	xchg   %ax,%ax
  100ba4:	66 90                	xchg   %ax,%ax
  100ba6:	66 90                	xchg   %ax,%ax
  100ba8:	66 90                	xchg   %ax,%ax
  100baa:	66 90                	xchg   %ax,%ax
  100bac:	66 90                	xchg   %ax,%ax
  100bae:	66 90                	xchg   %ax,%ax
  100bb0:	66 90                	xchg   %ax,%ax
  100bb2:	66 90                	xchg   %ax,%ax
  100bb4:	66 90                	xchg   %ax,%ax
  100bb6:	66 90                	xchg   %ax,%ax
  100bb8:	66 90                	xchg   %ax,%ax
  100bba:	66 90                	xchg   %ax,%ax
  100bbc:	66 90                	xchg   %ax,%ax
  100bbe:	66 90                	xchg   %ax,%ax
  100bc0:	66 90                	xchg   %ax,%ax
  100bc2:	66 90                	xchg   %ax,%ax
  100bc4:	66 90                	xchg   %ax,%ax
  100bc6:	66 90                	xchg   %ax,%ax
  100bc8:	66 90                	xchg   %ax,%ax
  100bca:	66 90                	xchg   %ax,%ax
  100bcc:	66 90                	xchg   %ax,%ax
  100bce:	66 90                	xchg   %ax,%ax
  100bd0:	66 90                	xchg   %ax,%ax
  100bd2:	66 90                	xchg   %ax,%ax
  100bd4:	66 90                	xchg   %ax,%ax
  100bd6:	66 90                	xchg   %ax,%ax
  100bd8:	66 90                	xchg   %ax,%ax
  100bda:	66 90                	xchg   %ax,%ax
  100bdc:	66 90                	xchg   %ax,%ax
  100bde:	66 90                	xchg   %ax,%ax
  100be0:	66 90                	xchg   %ax,%ax
  100be2:	66 90                	xchg   %ax,%ax
  100be4:	66 90                	xchg   %ax,%ax
  100be6:	66 90                	xchg   %ax,%ax
  100be8:	66 90                	xchg   %ax,%ax
  100bea:	66 90                	xchg   %ax,%ax
  100bec:	66 90                	xchg   %ax,%ax
  100bee:	66 90                	xchg   %ax,%ax
  100bf0:	66 90                	xchg   %ax,%ax
  100bf2:	66 90                	xchg   %ax,%ax
  100bf4:	66 90                	xchg   %ax,%ax
  100bf6:	66 90                	xchg   %ax,%ax
  100bf8:	66 90                	xchg   %ax,%ax
  100bfa:	66 90                	xchg   %ax,%ax
  100bfc:	66 90                	xchg   %ax,%ax
  100bfe:	66 90                	xchg   %ax,%ax
  100c00:	66 90                	xchg   %ax,%ax
  100c02:	66 90                	xchg   %ax,%ax
  100c04:	66 90                	xchg   %ax,%ax
  100c06:	66 90                	xchg   %ax,%ax
  100c08:	66 90                	xchg   %ax,%ax
  100c0a:	66 90                	xchg   %ax,%ax
  100c0c:	66 90                	xchg   %ax,%ax
  100c0e:	66 90                	xchg   %ax,%ax
  100c10:	66 90                	xchg   %ax,%ax
  100c12:	66 90                	xchg   %ax,%ax
  100c14:	66 90                	xchg   %ax,%ax
  100c16:	66 90                	xchg   %ax,%ax
  100c18:	66 90                	xchg   %ax,%ax
  100c1a:	66 90                	xchg   %ax,%ax
  100c1c:	66 90                	xchg   %ax,%ax
  100c1e:	66 90                	xchg   %ax,%ax
  100c20:	66 90                	xchg   %ax,%ax
  100c22:	66 90                	xchg   %ax,%ax
  100c24:	66 90                	xchg   %ax,%ax
  100c26:	66 90                	xchg   %ax,%ax
  100c28:	66 90                	xchg   %ax,%ax
  100c2a:	66 90                	xchg   %ax,%ax
  100c2c:	66 90                	xchg   %ax,%ax
  100c2e:	66 90                	xchg   %ax,%ax
  100c30:	66 90                	xchg   %ax,%ax
  100c32:	66 90                	xchg   %ax,%ax
  100c34:	66 90                	xchg   %ax,%ax
  100c36:	66 90                	xchg   %ax,%ax
  100c38:	66 90                	xchg   %ax,%ax
  100c3a:	66 90                	xchg   %ax,%ax
  100c3c:	66 90                	xchg   %ax,%ax
  100c3e:	66 90                	xchg   %ax,%ax
  100c40:	66 90                	xchg   %ax,%ax
  100c42:	66 90                	xchg   %ax,%ax
  100c44:	66 90                	xchg   %ax,%ax
  100c46:	66 90                	xchg   %ax,%ax
  100c48:	66 90                	xchg   %ax,%ax
  100c4a:	66 90                	xchg   %ax,%ax
  100c4c:	66 90                	xchg   %ax,%ax
  100c4e:	66 90                	xchg   %ax,%ax
  100c50:	66 90                	xchg   %ax,%ax
  100c52:	66 90                	xchg   %ax,%ax
  100c54:	66 90                	xchg   %ax,%ax
  100c56:	66 90                	xchg   %ax,%ax
  100c58:	66 90                	xchg   %ax,%ax
  100c5a:	66 90                	xchg   %ax,%ax
  100c5c:	66 90                	xchg   %ax,%ax
  100c5e:	66 90                	xchg   %ax,%ax
  100c60:	66 90                	xchg   %ax,%ax
  100c62:	66 90                	xchg   %ax,%ax
  100c64:	66 90                	xchg   %ax,%ax
  100c66:	66 90                	xchg   %ax,%ax
  100c68:	66 90                	xchg   %ax,%ax
  100c6a:	66 90                	xchg   %ax,%ax
  100c6c:	66 90                	xchg   %ax,%ax
  100c6e:	66 90                	xchg   %ax,%ax
  100c70:	66 90                	xchg   %ax,%ax
  100c72:	66 90                	xchg   %ax,%ax
  100c74:	66 90                	xchg   %ax,%ax
  100c76:	66 90                	xchg   %ax,%ax
  100c78:	66 90                	xchg   %ax,%ax
  100c7a:	66 90                	xchg   %ax,%ax
  100c7c:	66 90                	xchg   %ax,%ax
  100c7e:	66 90                	xchg   %ax,%ax
  100c80:	66 90                	xchg   %ax,%ax
  100c82:	66 90                	xchg   %ax,%ax
  100c84:	66 90                	xchg   %ax,%ax
  100c86:	66 90                	xchg   %ax,%ax
  100c88:	66 90                	xchg   %ax,%ax
  100c8a:	66 90                	xchg   %ax,%ax
  100c8c:	66 90                	xchg   %ax,%ax
  100c8e:	66 90                	xchg   %ax,%ax
  100c90:	66 90                	xchg   %ax,%ax
  100c92:	66 90                	xchg   %ax,%ax
  100c94:	66 90                	xchg   %ax,%ax
  100c96:	66 90                	xchg   %ax,%ax
  100c98:	66 90                	xchg   %ax,%ax
  100c9a:	66 90                	xchg   %ax,%ax
  100c9c:	66 90                	xchg   %ax,%ax
  100c9e:	66 90                	xchg   %ax,%ax
  100ca0:	66 90                	xchg   %ax,%ax
  100ca2:	66 90                	xchg   %ax,%ax
  100ca4:	66 90                	xchg   %ax,%ax
  100ca6:	66 90                	xchg   %ax,%ax
  100ca8:	66 90                	xchg   %ax,%ax
  100caa:	66 90                	xchg   %ax,%ax
  100cac:	66 90                	xchg   %ax,%ax
  100cae:	66 90                	xchg   %ax,%ax
  100cb0:	66 90                	xchg   %ax,%ax
  100cb2:	66 90                	xchg   %ax,%ax
  100cb4:	66 90                	xchg   %ax,%ax
  100cb6:	66 90                	xchg   %ax,%ax
  100cb8:	66 90                	xchg   %ax,%ax
  100cba:	66 90                	xchg   %ax,%ax
  100cbc:	66 90                	xchg   %ax,%ax
  100cbe:	66 90                	xchg   %ax,%ax
  100cc0:	66 90                	xchg   %ax,%ax
  100cc2:	66 90                	xchg   %ax,%ax
  100cc4:	66 90                	xchg   %ax,%ax
  100cc6:	66 90                	xchg   %ax,%ax
  100cc8:	66 90                	xchg   %ax,%ax
  100cca:	66 90                	xchg   %ax,%ax
  100ccc:	66 90                	xchg   %ax,%ax
  100cce:	66 90                	xchg   %ax,%ax
  100cd0:	66 90                	xchg   %ax,%ax
  100cd2:	66 90                	xchg   %ax,%ax
  100cd4:	66 90                	xchg   %ax,%ax
  100cd6:	66 90                	xchg   %ax,%ax
  100cd8:	66 90                	xchg   %ax,%ax
  100cda:	66 90                	xchg   %ax,%ax
  100cdc:	66 90                	xchg   %ax,%ax
  100cde:	66 90                	xchg   %ax,%ax
  100ce0:	66 90                	xchg   %ax,%ax
  100ce2:	66 90                	xchg   %ax,%ax
  100ce4:	66 90                	xchg   %ax,%ax
  100ce6:	66 90                	xchg   %ax,%ax
  100ce8:	66 90                	xchg   %ax,%ax
  100cea:	66 90                	xchg   %ax,%ax
  100cec:	66 90                	xchg   %ax,%ax
  100cee:	66 90                	xchg   %ax,%ax
  100cf0:	66 90                	xchg   %ax,%ax
  100cf2:	66 90                	xchg   %ax,%ax
  100cf4:	66 90                	xchg   %ax,%ax
  100cf6:	66 90                	xchg   %ax,%ax
  100cf8:	66 90                	xchg   %ax,%ax
  100cfa:	66 90                	xchg   %ax,%ax
  100cfc:	66 90                	xchg   %ax,%ax
  100cfe:	66 90                	xchg   %ax,%ax
  100d00:	66 90                	xchg   %ax,%ax
  100d02:	66 90                	xchg   %ax,%ax
  100d04:	66 90                	xchg   %ax,%ax
  100d06:	66 90                	xchg   %ax,%ax
  100d08:	66 90                	xchg   %ax,%ax
  100d0a:	66 90                	xchg   %ax,%ax
  100d0c:	66 90                	xchg   %ax,%ax
  100d0e:	66 90                	xchg   %ax,%ax
  100d10:	66 90                	xchg   %ax,%ax
  100d12:	66 90                	xchg   %ax,%ax
  100d14:	66 90                	xchg   %ax,%ax
  100d16:	66 90                	xchg   %ax,%ax
  100d18:	66 90                	xchg   %ax,%ax
  100d1a:	66 90                	xchg   %ax,%ax
  100d1c:	66 90                	xchg   %ax,%ax
  100d1e:	66 90                	xchg   %ax,%ax
  100d20:	66 90                	xchg   %ax,%ax
  100d22:	66 90                	xchg   %ax,%ax
  100d24:	66 90                	xchg   %ax,%ax
  100d26:	66 90                	xchg   %ax,%ax
  100d28:	66 90                	xchg   %ax,%ax
  100d2a:	66 90                	xchg   %ax,%ax
  100d2c:	66 90                	xchg   %ax,%ax
  100d2e:	66 90                	xchg   %ax,%ax
  100d30:	66 90                	xchg   %ax,%ax
  100d32:	66 90                	xchg   %ax,%ax
  100d34:	66 90                	xchg   %ax,%ax
  100d36:	66 90                	xchg   %ax,%ax
  100d38:	66 90                	xchg   %ax,%ax
  100d3a:	66 90                	xchg   %ax,%ax
  100d3c:	66 90                	xchg   %ax,%ax
  100d3e:	66 90                	xchg   %ax,%ax
  100d40:	66 90                	xchg   %ax,%ax
  100d42:	66 90                	xchg   %ax,%ax
  100d44:	66 90                	xchg   %ax,%ax
  100d46:	66 90                	xchg   %ax,%ax
  100d48:	66 90                	xchg   %ax,%ax
  100d4a:	66 90                	xchg   %ax,%ax
  100d4c:	66 90                	xchg   %ax,%ax
  100d4e:	66 90                	xchg   %ax,%ax
  100d50:	66 90                	xchg   %ax,%ax
  100d52:	66 90                	xchg   %ax,%ax
  100d54:	66 90                	xchg   %ax,%ax
  100d56:	66 90                	xchg   %ax,%ax
  100d58:	66 90                	xchg   %ax,%ax
  100d5a:	66 90                	xchg   %ax,%ax
  100d5c:	66 90                	xchg   %ax,%ax
  100d5e:	66 90                	xchg   %ax,%ax
  100d60:	66 90                	xchg   %ax,%ax
  100d62:	66 90                	xchg   %ax,%ax
  100d64:	66 90                	xchg   %ax,%ax
  100d66:	66 90                	xchg   %ax,%ax
  100d68:	66 90                	xchg   %ax,%ax
  100d6a:	66 90                	xchg   %ax,%ax
  100d6c:	66 90                	xchg   %ax,%ax
  100d6e:	66 90                	xchg   %ax,%ax
  100d70:	66 90                	xchg   %ax,%ax
  100d72:	66 90                	xchg   %ax,%ax
  100d74:	66 90                	xchg   %ax,%ax
  100d76:	66 90                	xchg   %ax,%ax
  100d78:	66 90                	xchg   %ax,%ax
  100d7a:	66 90                	xchg   %ax,%ax
  100d7c:	66 90                	xchg   %ax,%ax
  100d7e:	66 90                	xchg   %ax,%ax
  100d80:	66 90                	xchg   %ax,%ax
  100d82:	66 90                	xchg   %ax,%ax
  100d84:	66 90                	xchg   %ax,%ax
  100d86:	66 90                	xchg   %ax,%ax
  100d88:	66 90                	xchg   %ax,%ax
  100d8a:	66 90                	xchg   %ax,%ax
  100d8c:	66 90                	xchg   %ax,%ax
  100d8e:	66 90                	xchg   %ax,%ax
  100d90:	66 90                	xchg   %ax,%ax
  100d92:	66 90                	xchg   %ax,%ax
  100d94:	66 90                	xchg   %ax,%ax
  100d96:	66 90                	xchg   %ax,%ax
  100d98:	66 90                	xchg   %ax,%ax
  100d9a:	66 90                	xchg   %ax,%ax
  100d9c:	66 90                	xchg   %ax,%ax
  100d9e:	66 90                	xchg   %ax,%ax
  100da0:	66 90                	xchg   %ax,%ax
  100da2:	66 90                	xchg   %ax,%ax
  100da4:	66 90                	xchg   %ax,%ax
  100da6:	66 90                	xchg   %ax,%ax
  100da8:	66 90                	xchg   %ax,%ax
  100daa:	66 90                	xchg   %ax,%ax
  100dac:	66 90                	xchg   %ax,%ax
  100dae:	66 90                	xchg   %ax,%ax
  100db0:	66 90                	xchg   %ax,%ax
  100db2:	66 90                	xchg   %ax,%ax
  100db4:	66 90                	xchg   %ax,%ax
  100db6:	66 90                	xchg   %ax,%ax
  100db8:	66 90                	xchg   %ax,%ax
  100dba:	66 90                	xchg   %ax,%ax
  100dbc:	66 90                	xchg   %ax,%ax
  100dbe:	66 90                	xchg   %ax,%ax
  100dc0:	66 90                	xchg   %ax,%ax
  100dc2:	66 90                	xchg   %ax,%ax
  100dc4:	66 90                	xchg   %ax,%ax
  100dc6:	66 90                	xchg   %ax,%ax
  100dc8:	66 90                	xchg   %ax,%ax
  100dca:	66 90                	xchg   %ax,%ax
  100dcc:	66 90                	xchg   %ax,%ax
  100dce:	66 90                	xchg   %ax,%ax
  100dd0:	66 90                	xchg   %ax,%ax
  100dd2:	66 90                	xchg   %ax,%ax
  100dd4:	66 90                	xchg   %ax,%ax
  100dd6:	66 90                	xchg   %ax,%ax
  100dd8:	66 90                	xchg   %ax,%ax
  100dda:	66 90                	xchg   %ax,%ax
  100ddc:	66 90                	xchg   %ax,%ax
  100dde:	66 90                	xchg   %ax,%ax
  100de0:	66 90                	xchg   %ax,%ax
  100de2:	66 90                	xchg   %ax,%ax
  100de4:	66 90                	xchg   %ax,%ax
  100de6:	66 90                	xchg   %ax,%ax
  100de8:	66 90                	xchg   %ax,%ax
  100dea:	66 90                	xchg   %ax,%ax
  100dec:	66 90                	xchg   %ax,%ax
  100dee:	66 90                	xchg   %ax,%ax
  100df0:	66 90                	xchg   %ax,%ax
  100df2:	66 90                	xchg   %ax,%ax
  100df4:	66 90                	xchg   %ax,%ax
  100df6:	66 90                	xchg   %ax,%ax
  100df8:	66 90                	xchg   %ax,%ax
  100dfa:	66 90                	xchg   %ax,%ax
  100dfc:	66 90                	xchg   %ax,%ax
  100dfe:	66 90                	xchg   %ax,%ax
  100e00:	66 90                	xchg   %ax,%ax
  100e02:	66 90                	xchg   %ax,%ax
  100e04:	66 90                	xchg   %ax,%ax
  100e06:	66 90                	xchg   %ax,%ax
  100e08:	66 90                	xchg   %ax,%ax
  100e0a:	66 90                	xchg   %ax,%ax
  100e0c:	66 90                	xchg   %ax,%ax
  100e0e:	66 90                	xchg   %ax,%ax
  100e10:	66 90                	xchg   %ax,%ax
  100e12:	66 90                	xchg   %ax,%ax
  100e14:	66 90                	xchg   %ax,%ax
  100e16:	66 90                	xchg   %ax,%ax
  100e18:	66 90                	xchg   %ax,%ax
  100e1a:	66 90                	xchg   %ax,%ax
  100e1c:	66 90                	xchg   %ax,%ax
  100e1e:	66 90                	xchg   %ax,%ax
  100e20:	66 90                	xchg   %ax,%ax
  100e22:	66 90                	xchg   %ax,%ax
  100e24:	66 90                	xchg   %ax,%ax
  100e26:	66 90                	xchg   %ax,%ax
  100e28:	66 90                	xchg   %ax,%ax
  100e2a:	66 90                	xchg   %ax,%ax
  100e2c:	66 90                	xchg   %ax,%ax
  100e2e:	66 90                	xchg   %ax,%ax
  100e30:	66 90                	xchg   %ax,%ax
  100e32:	66 90                	xchg   %ax,%ax
  100e34:	66 90                	xchg   %ax,%ax
  100e36:	66 90                	xchg   %ax,%ax
  100e38:	66 90                	xchg   %ax,%ax
  100e3a:	66 90                	xchg   %ax,%ax
  100e3c:	66 90                	xchg   %ax,%ax
  100e3e:	66 90                	xchg   %ax,%ax
  100e40:	66 90                	xchg   %ax,%ax
  100e42:	66 90                	xchg   %ax,%ax
  100e44:	66 90                	xchg   %ax,%ax
  100e46:	66 90                	xchg   %ax,%ax
  100e48:	66 90                	xchg   %ax,%ax
  100e4a:	66 90                	xchg   %ax,%ax
  100e4c:	66 90                	xchg   %ax,%ax
  100e4e:	66 90                	xchg   %ax,%ax
  100e50:	66 90                	xchg   %ax,%ax
  100e52:	66 90                	xchg   %ax,%ax
  100e54:	66 90                	xchg   %ax,%ax
  100e56:	66 90                	xchg   %ax,%ax
  100e58:	66 90                	xchg   %ax,%ax
  100e5a:	66 90                	xchg   %ax,%ax
  100e5c:	66 90                	xchg   %ax,%ax
  100e5e:	66 90                	xchg   %ax,%ax
  100e60:	66 90                	xchg   %ax,%ax
  100e62:	66 90                	xchg   %ax,%ax
  100e64:	66 90                	xchg   %ax,%ax
  100e66:	66 90                	xchg   %ax,%ax
  100e68:	66 90                	xchg   %ax,%ax
  100e6a:	66 90                	xchg   %ax,%ax
  100e6c:	66 90                	xchg   %ax,%ax
  100e6e:	66 90                	xchg   %ax,%ax
  100e70:	66 90                	xchg   %ax,%ax
  100e72:	66 90                	xchg   %ax,%ax
  100e74:	66 90                	xchg   %ax,%ax
  100e76:	66 90                	xchg   %ax,%ax
  100e78:	66 90                	xchg   %ax,%ax
  100e7a:	66 90                	xchg   %ax,%ax
  100e7c:	66 90                	xchg   %ax,%ax
  100e7e:	66 90                	xchg   %ax,%ax
  100e80:	66 90                	xchg   %ax,%ax
  100e82:	66 90                	xchg   %ax,%ax
  100e84:	66 90                	xchg   %ax,%ax
  100e86:	66 90                	xchg   %ax,%ax
  100e88:	66 90                	xchg   %ax,%ax
  100e8a:	66 90                	xchg   %ax,%ax
  100e8c:	66 90                	xchg   %ax,%ax
  100e8e:	66 90                	xchg   %ax,%ax
  100e90:	66 90                	xchg   %ax,%ax
  100e92:	66 90                	xchg   %ax,%ax
  100e94:	66 90                	xchg   %ax,%ax
  100e96:	66 90                	xchg   %ax,%ax
  100e98:	66 90                	xchg   %ax,%ax
  100e9a:	66 90                	xchg   %ax,%ax
  100e9c:	66 90                	xchg   %ax,%ax
  100e9e:	66 90                	xchg   %ax,%ax
  100ea0:	66 90                	xchg   %ax,%ax
  100ea2:	66 90                	xchg   %ax,%ax
  100ea4:	66 90                	xchg   %ax,%ax
  100ea6:	66 90                	xchg   %ax,%ax
  100ea8:	66 90                	xchg   %ax,%ax
  100eaa:	66 90                	xchg   %ax,%ax
  100eac:	66 90                	xchg   %ax,%ax
  100eae:	66 90                	xchg   %ax,%ax
  100eb0:	66 90                	xchg   %ax,%ax
  100eb2:	66 90                	xchg   %ax,%ax
  100eb4:	66 90                	xchg   %ax,%ax
  100eb6:	66 90                	xchg   %ax,%ax
  100eb8:	66 90                	xchg   %ax,%ax
  100eba:	66 90                	xchg   %ax,%ax
  100ebc:	66 90                	xchg   %ax,%ax
  100ebe:	66 90                	xchg   %ax,%ax
  100ec0:	66 90                	xchg   %ax,%ax
  100ec2:	66 90                	xchg   %ax,%ax
  100ec4:	66 90                	xchg   %ax,%ax
  100ec6:	66 90                	xchg   %ax,%ax
  100ec8:	66 90                	xchg   %ax,%ax
  100eca:	66 90                	xchg   %ax,%ax
  100ecc:	66 90                	xchg   %ax,%ax
  100ece:	66 90                	xchg   %ax,%ax
  100ed0:	66 90                	xchg   %ax,%ax
  100ed2:	66 90                	xchg   %ax,%ax
  100ed4:	66 90                	xchg   %ax,%ax
  100ed6:	66 90                	xchg   %ax,%ax
  100ed8:	66 90                	xchg   %ax,%ax
  100eda:	66 90                	xchg   %ax,%ax
  100edc:	66 90                	xchg   %ax,%ax
  100ede:	66 90                	xchg   %ax,%ax
  100ee0:	66 90                	xchg   %ax,%ax
  100ee2:	66 90                	xchg   %ax,%ax
  100ee4:	66 90                	xchg   %ax,%ax
  100ee6:	66 90                	xchg   %ax,%ax
  100ee8:	66 90                	xchg   %ax,%ax
  100eea:	66 90                	xchg   %ax,%ax
  100eec:	66 90                	xchg   %ax,%ax
  100eee:	66 90                	xchg   %ax,%ax
  100ef0:	66 90                	xchg   %ax,%ax
  100ef2:	66 90                	xchg   %ax,%ax
  100ef4:	66 90                	xchg   %ax,%ax
  100ef6:	66 90                	xchg   %ax,%ax
  100ef8:	66 90                	xchg   %ax,%ax
  100efa:	66 90                	xchg   %ax,%ax
  100efc:	66 90                	xchg   %ax,%ax
  100efe:	66 90                	xchg   %ax,%ax
  100f00:	66 90                	xchg   %ax,%ax
  100f02:	66 90                	xchg   %ax,%ax
  100f04:	66 90                	xchg   %ax,%ax
  100f06:	66 90                	xchg   %ax,%ax
  100f08:	66 90                	xchg   %ax,%ax
  100f0a:	66 90                	xchg   %ax,%ax
  100f0c:	66 90                	xchg   %ax,%ax
  100f0e:	66 90                	xchg   %ax,%ax
  100f10:	66 90                	xchg   %ax,%ax
  100f12:	66 90                	xchg   %ax,%ax
  100f14:	66 90                	xchg   %ax,%ax
  100f16:	66 90                	xchg   %ax,%ax
  100f18:	66 90                	xchg   %ax,%ax
  100f1a:	66 90                	xchg   %ax,%ax
  100f1c:	66 90                	xchg   %ax,%ax
  100f1e:	66 90                	xchg   %ax,%ax
  100f20:	66 90                	xchg   %ax,%ax
  100f22:	66 90                	xchg   %ax,%ax
  100f24:	66 90                	xchg   %ax,%ax
  100f26:	66 90                	xchg   %ax,%ax
  100f28:	66 90                	xchg   %ax,%ax
  100f2a:	66 90                	xchg   %ax,%ax
  100f2c:	66 90                	xchg   %ax,%ax
  100f2e:	66 90                	xchg   %ax,%ax
  100f30:	66 90                	xchg   %ax,%ax
  100f32:	66 90                	xchg   %ax,%ax
  100f34:	66 90                	xchg   %ax,%ax
  100f36:	66 90                	xchg   %ax,%ax
  100f38:	66 90                	xchg   %ax,%ax
  100f3a:	66 90                	xchg   %ax,%ax
  100f3c:	66 90                	xchg   %ax,%ax
  100f3e:	66 90                	xchg   %ax,%ax
  100f40:	66 90                	xchg   %ax,%ax
  100f42:	66 90                	xchg   %ax,%ax
  100f44:	66 90                	xchg   %ax,%ax
  100f46:	66 90                	xchg   %ax,%ax
  100f48:	66 90                	xchg   %ax,%ax
  100f4a:	66 90                	xchg   %ax,%ax
  100f4c:	66 90                	xchg   %ax,%ax
  100f4e:	66 90                	xchg   %ax,%ax
  100f50:	66 90                	xchg   %ax,%ax
  100f52:	66 90                	xchg   %ax,%ax
  100f54:	66 90                	xchg   %ax,%ax
  100f56:	66 90                	xchg   %ax,%ax
  100f58:	66 90                	xchg   %ax,%ax
  100f5a:	66 90                	xchg   %ax,%ax
  100f5c:	66 90                	xchg   %ax,%ax
  100f5e:	66 90                	xchg   %ax,%ax
  100f60:	66 90                	xchg   %ax,%ax
  100f62:	66 90                	xchg   %ax,%ax
  100f64:	66 90                	xchg   %ax,%ax
  100f66:	66 90                	xchg   %ax,%ax
  100f68:	66 90                	xchg   %ax,%ax
  100f6a:	66 90                	xchg   %ax,%ax
  100f6c:	66 90                	xchg   %ax,%ax
  100f6e:	66 90                	xchg   %ax,%ax
  100f70:	66 90                	xchg   %ax,%ax
  100f72:	66 90                	xchg   %ax,%ax
  100f74:	66 90                	xchg   %ax,%ax
  100f76:	66 90                	xchg   %ax,%ax
  100f78:	66 90                	xchg   %ax,%ax
  100f7a:	66 90                	xchg   %ax,%ax
  100f7c:	66 90                	xchg   %ax,%ax
  100f7e:	66 90                	xchg   %ax,%ax
  100f80:	66 90                	xchg   %ax,%ax
  100f82:	66 90                	xchg   %ax,%ax
  100f84:	66 90                	xchg   %ax,%ax
  100f86:	66 90                	xchg   %ax,%ax
  100f88:	66 90                	xchg   %ax,%ax
  100f8a:	66 90                	xchg   %ax,%ax
  100f8c:	66 90                	xchg   %ax,%ax
  100f8e:	66 90                	xchg   %ax,%ax
  100f90:	66 90                	xchg   %ax,%ax
  100f92:	66 90                	xchg   %ax,%ax
  100f94:	66 90                	xchg   %ax,%ax
  100f96:	66 90                	xchg   %ax,%ax
  100f98:	66 90                	xchg   %ax,%ax
  100f9a:	66 90                	xchg   %ax,%ax
  100f9c:	66 90                	xchg   %ax,%ax
  100f9e:	66 90                	xchg   %ax,%ax
  100fa0:	66 90                	xchg   %ax,%ax
  100fa2:	66 90                	xchg   %ax,%ax
  100fa4:	66 90                	xchg   %ax,%ax
  100fa6:	66 90                	xchg   %ax,%ax
  100fa8:	66 90                	xchg   %ax,%ax
  100faa:	66 90                	xchg   %ax,%ax
  100fac:	66 90                	xchg   %ax,%ax
  100fae:	66 90                	xchg   %ax,%ax
  100fb0:	66 90                	xchg   %ax,%ax
  100fb2:	66 90                	xchg   %ax,%ax
  100fb4:	66 90                	xchg   %ax,%ax
  100fb6:	66 90                	xchg   %ax,%ax
  100fb8:	66 90                	xchg   %ax,%ax
  100fba:	66 90                	xchg   %ax,%ax
  100fbc:	66 90                	xchg   %ax,%ax
  100fbe:	66 90                	xchg   %ax,%ax
  100fc0:	66 90                	xchg   %ax,%ax
  100fc2:	66 90                	xchg   %ax,%ax
  100fc4:	66 90                	xchg   %ax,%ax
  100fc6:	66 90                	xchg   %ax,%ax
  100fc8:	66 90                	xchg   %ax,%ax
  100fca:	66 90                	xchg   %ax,%ax
  100fcc:	66 90                	xchg   %ax,%ax
  100fce:	66 90                	xchg   %ax,%ax
  100fd0:	66 90                	xchg   %ax,%ax
  100fd2:	66 90                	xchg   %ax,%ax
  100fd4:	66 90                	xchg   %ax,%ax
  100fd6:	66 90                	xchg   %ax,%ax
  100fd8:	66 90                	xchg   %ax,%ax
  100fda:	66 90                	xchg   %ax,%ax
  100fdc:	66 90                	xchg   %ax,%ax
  100fde:	66 90                	xchg   %ax,%ax
  100fe0:	66 90                	xchg   %ax,%ax
  100fe2:	66 90                	xchg   %ax,%ax
  100fe4:	66 90                	xchg   %ax,%ax
  100fe6:	66 90                	xchg   %ax,%ax
  100fe8:	66 90                	xchg   %ax,%ax
  100fea:	66 90                	xchg   %ax,%ax
  100fec:	66 90                	xchg   %ax,%ax
  100fee:	66 90                	xchg   %ax,%ax
  100ff0:	66 90                	xchg   %ax,%ax
  100ff2:	66 90                	xchg   %ax,%ax
  100ff4:	66 90                	xchg   %ax,%ax
  100ff6:	66 90                	xchg   %ax,%ax
  100ff8:	66 90                	xchg   %ax,%ax
  100ffa:	66 90                	xchg   %ax,%ax
  100ffc:	66 90                	xchg   %ax,%ax
  100ffe:	66 90                	xchg   %ax,%ax

00101000 <_stext_common>:
  101000:	e9 00 00 00 00       	jmp    101005 <irq_handler_0>

00101005 <irq_handler_0>:
  101005:	6a 00                	push   $0x0
  101007:	60                   	pusha  
  101008:	6a 00                	push   $0x0
  10100a:	e8 ef 1f 00 00       	call   102ffe <isr_0>
  10100f:	e9 e0 1f 00 00       	jmp    102ff4 <handler_exit>
  101014:	8d b6 00 00 00 00    	lea    0x0(%esi),%esi
  10101a:	8d bf 00 00 00 00    	lea    0x0(%edi),%edi

00101020 <irq_1>:
  101020:	e9 00 00 00 00       	jmp    101025 <irq_handler_1>

00101025 <irq_handler_1>:
  101025:	6a 00                	push   $0x0
  101027:	60                   	pusha  
  101028:	6a 01                	push   $0x1
  10102a:	e8 d4 1f 00 00       	call   103003 <isr_1>
  10102f:	e9 c0 1f 00 00       	jmp    102ff4 <handler_exit>
  101034:	8d b6 00 00 00 00    	lea    0x0(%esi),%esi
  10103a:	8d bf 00 00 00 00    	lea    0x0(%edi),%edi

00101040 <irq_2>:
  101040:	e9 00 00 00 00       	jmp    101045 <irq_handler_2>

00101045 <irq_handler_2>:
  101045:	6a 00                	push   $0x0
  101047:	60                   	pusha  
  101048:	6a 02                	push   $0x2
  10104a:	e8 b9 1f 00 00       	call   103008 <isr_2>
  10104f:	e9 a0 1f 00 00       	jmp    102ff4 <handler_exit>
  101054:	8d b6 00 00 00 00    	lea    0x0(%esi),%esi
  10105a:	8d bf 00 00 00 00    	lea    0x0(%edi),%edi

00101060 <irq_3>:
  101060:	e9 00 00 00 00       	jmp    101065 <irq_handler_3>

00101065 <irq_handler_3>:
  101065:	6a 00                	push   $0x0
  101067:	60                   	pusha  
  101068:	6a 03                	push   $0x3
  10106a:	e8 9e 1f 00 00       	call   10300d <isr_3>
  10106f:	e9 80 1f 00 00       	jmp    102ff4 <handler_exit>
  101074:	8d b6 00 00 00 00    	lea    0x0(%esi),%esi
  10107a:	8d bf 00 00 00 00    	lea    0x0(%edi),%edi

00101080 <irq_4>:
  101080:	e9 00 00 00 00       	jmp    101085 <irq_handler_4>

00101085 <irq_handler_4>:
  101085:	6a 00                	push   $0x0
  101087:	60                   	pusha  
  101088:	6a 04                	push   $0x4
  10108a:	e8 83 1f 00 00       	call   103012 <isr_4>
  10108f:	e9 60 1f 00 00       	jmp    102ff4 <handler_exit>
  101094:	8d b6 00 00 00 00    	lea    0x0(%esi),%esi
  10109a:	8d bf 00 00 00 00    	lea    0x0(%edi),%edi

001010a0 <irq_5>:
  1010a0:	e9 00 00 00 00       	jmp    1010a5 <irq_handler_5>

001010a5 <irq_handler_5>:
  1010a5:	6a 00                	push   $0x0
  1010a7:	60                   	pusha  
  1010a8:	6a 05                	push   $0x5
  1010aa:	e8 68 1f 00 00       	call   103017 <isr_5>
  1010af:	e9 40 1f 00 00       	jmp    102ff4 <handler_exit>
  1010b4:	8d b6 00 00 00 00    	lea    0x0(%esi),%esi
  1010ba:	8d bf 00 00 00 00    	lea    0x0(%edi),%edi

001010c0 <irq_6>:
  1010c0:	e9 00 00 00 00       	jmp    1010c5 <irq_handler_6>

001010c5 <irq_handler_6>:
  1010c5:	6a 00                	push   $0x0
  1010c7:	60                   	pusha  
  1010c8:	6a 06                	push   $0x6
  1010ca:	e8 4d 1f 00 00       	call   10301c <isr_6>
  1010cf:	e9 20 1f 00 00       	jmp    102ff4 <handler_exit>
  1010d4:	8d b6 00 00 00 00    	lea    0x0(%esi),%esi
  1010da:	8d bf 00 00 00 00    	lea    0x0(%edi),%edi

001010e0 <irq_7>:
  1010e0:	e9 00 00 00 00       	jmp    1010e5 <irq_handler_7>

001010e5 <irq_handler_7>:
  1010e5:	6a 00                	push   $0x0
  1010e7:	60                   	pusha  
  1010e8:	6a 07                	push   $0x7
  1010ea:	e8 32 1f 00 00       	call   103021 <isr_7>
  1010ef:	e9 00 1f 00 00       	jmp    102ff4 <handler_exit>
  1010f4:	8d b6 00 00 00 00    	lea    0x0(%esi),%esi
  1010fa:	8d bf 00 00 00 00    	lea    0x0(%edi),%edi

00101100 <irq_8>:
  101100:	e9 00 00 00 00       	jmp    101105 <irq_handler_8>

00101105 <irq_handler_8>:
  101105:	60                   	pusha  
  101106:	6a 08                	push   $0x8
  101108:	e8 19 1f 00 00       	call   103026 <isr_8>
  10110d:	e9 e2 1e 00 00       	jmp    102ff4 <handler_exit>
  101112:	8d b4 26 00 00 00 00 	lea    0x0(%esi,%eiz,1),%esi
  101119:	8d bc 27 00 00 00 00 	lea    0x0(%edi,%eiz,1),%edi

00101120 <irq_9>:
  101120:	e9 00 00 00 00       	jmp    101125 <irq_handler_9>

00101125 <irq_handler_9>:
  101125:	6a 00                	push   $0x0
  101127:	60                   	pusha  
  101128:	6a 09                	push   $0x9
  10112a:	e8 fc 1e 00 00       	call   10302b <isr_9>
  10112f:	e9 c0 1e 00 00       	jmp    102ff4 <handler_exit>
  101134:	8d b6 00 00 00 00    	lea    0x0(%esi),%esi
  10113a:	8d bf 00 00 00 00    	lea    0x0(%edi),%edi

00101140 <irq_10>:
  101140:	e9 00 00 00 00       	jmp    101145 <irq_handler_10>

00101145 <irq_handler_10>:
  101145:	60                   	pusha  
  101146:	6a 0a                	push   $0xa
  101148:	e8 e3 1e 00 00       	call   103030 <isr_10>
  10114d:	e9 a2 1e 00 00       	jmp    102ff4 <handler_exit>
  101152:	8d b4 26 00 00 00 00 	lea    0x0(%esi,%eiz,1),%esi
  101159:	8d bc 27 00 00 00 00 	lea    0x0(%edi,%eiz,1),%edi

00101160 <irq_11>:
  101160:	e9 00 00 00 00       	jmp    101165 <irq_handler_11>

00101165 <irq_handler_11>:
  101165:	60                   	pusha  
  101166:	6a 0b                	push   $0xb
  101168:	e8 c8 1e 00 00       	call   103035 <isr_11>
  10116d:	e9 82 1e 00 00       	jmp    102ff4 <handler_exit>
  101172:	8d b4 26 00 00 00 00 	lea    0x0(%esi,%eiz,1),%esi
  101179:	8d bc 27 00 00 00 00 	lea    0x0(%edi,%eiz,1),%edi

00101180 <irq_12>:
  101180:	e9 00 00 00 00       	jmp    101185 <irq_handler_12>

00101185 <irq_handler_12>:
  101185:	60                   	pusha  
  101186:	6a 0c                	push   $0xc
  101188:	e8 ad 1e 00 00       	call   10303a <isr_12>
  10118d:	e9 62 1e 00 00       	jmp    102ff4 <handler_exit>
  101192:	8d b4 26 00 00 00 00 	lea    0x0(%esi,%eiz,1),%esi
  101199:	8d bc 27 00 00 00 00 	lea    0x0(%edi,%eiz,1),%edi

001011a0 <irq_13>:
  1011a0:	e9 00 00 00 00       	jmp    1011a5 <irq_handler_13>

001011a5 <irq_handler_13>:
  1011a5:	60                   	pusha  
  1011a6:	6a 0d                	push   $0xd
  1011a8:	e8 92 1e 00 00       	call   10303f <isr_13>
  1011ad:	e9 42 1e 00 00       	jmp    102ff4 <handler_exit>
  1011b2:	8d b4 26 00 00 00 00 	lea    0x0(%esi,%eiz,1),%esi
  1011b9:	8d bc 27 00 00 00 00 	lea    0x0(%edi,%eiz,1),%edi

001011c0 <irq_14>:
  1011c0:	e9 00 00 00 00       	jmp    1011c5 <irq_handler_14>

001011c5 <irq_handler_14>:
  1011c5:	60                   	pusha  
  1011c6:	6a 0e                	push   $0xe
  1011c8:	e8 77 1e 00 00       	call   103044 <isr_14>
  1011cd:	e9 22 1e 00 00       	jmp    102ff4 <handler_exit>
  1011d2:	8d b4 26 00 00 00 00 	lea    0x0(%esi,%eiz,1),%esi
  1011d9:	8d bc 27 00 00 00 00 	lea    0x0(%edi,%eiz,1),%edi

001011e0 <irq_15>:
  1011e0:	e9 00 00 00 00       	jmp    1011e5 <irq_handler_15>

001011e5 <irq_handler_15>:
  1011e5:	6a 00                	push   $0x0
  1011e7:	60                   	pusha  
  1011e8:	6a 0f                	push   $0xf
  1011ea:	e8 5a 1e 00 00       	call   103049 <isr_15>
  1011ef:	e9 00 1e 00 00       	jmp    102ff4 <handler_exit>
  1011f4:	8d b6 00 00 00 00    	lea    0x0(%esi),%esi
  1011fa:	8d bf 00 00 00 00    	lea    0x0(%edi),%edi

00101200 <irq_16>:
  101200:	e9 00 00 00 00       	jmp    101205 <irq_handler_16>

00101205 <irq_handler_16>:
  101205:	6a 00                	push   $0x0
  101207:	60                   	pusha  
  101208:	6a 10                	push   $0x10
  10120a:	e8 3f 1e 00 00       	call   10304e <isr_16>
  10120f:	e9 e0 1d 00 00       	jmp    102ff4 <handler_exit>
  101214:	8d b6 00 00 00 00    	lea    0x0(%esi),%esi
  10121a:	8d bf 00 00 00 00    	lea    0x0(%edi),%edi

00101220 <irq_17>:
  101220:	e9 00 00 00 00       	jmp    101225 <irq_handler_17>

00101225 <irq_handler_17>:
  101225:	60                   	pusha  
  101226:	6a 11                	push   $0x11
  101228:	e8 26 1e 00 00       	call   103053 <isr_17>
  10122d:	e9 c2 1d 00 00       	jmp    102ff4 <handler_exit>
  101232:	8d b4 26 00 00 00 00 	lea    0x0(%esi,%eiz,1),%esi
  101239:	8d bc 27 00 00 00 00 	lea    0x0(%edi,%eiz,1),%edi

00101240 <irq_18>:
  101240:	e9 00 00 00 00       	jmp    101245 <irq_handler_18>

00101245 <irq_handler_18>:
  101245:	6a 00                	push   $0x0
  101247:	60                   	pusha  
  101248:	6a 12                	push   $0x12
  10124a:	e8 09 1e 00 00       	call   103058 <isr_18>
  10124f:	e9 a0 1d 00 00       	jmp    102ff4 <handler_exit>
  101254:	8d b6 00 00 00 00    	lea    0x0(%esi),%esi
  10125a:	8d bf 00 00 00 00    	lea    0x0(%edi),%edi

00101260 <irq_19>:
  101260:	e9 00 00 00 00       	jmp    101265 <irq_handler_19>

00101265 <irq_handler_19>:
  101265:	6a 00                	push   $0x0
  101267:	60                   	pusha  
  101268:	6a 13                	push   $0x13
  10126a:	e8 ee 1d 00 00       	call   10305d <isr_19>
  10126f:	e9 80 1d 00 00       	jmp    102ff4 <handler_exit>
  101274:	8d b6 00 00 00 00    	lea    0x0(%esi),%esi
  10127a:	8d bf 00 00 00 00    	lea    0x0(%edi),%edi

00101280 <irq_20>:
  101280:	e9 00 00 00 00       	jmp    101285 <irq_handler_20>

00101285 <irq_handler_20>:
  101285:	6a 00                	push   $0x0
  101287:	60                   	pusha  
  101288:	6a 14                	push   $0x14
  10128a:	e8 d3 1d 00 00       	call   103062 <isr_20>
  10128f:	e9 60 1d 00 00       	jmp    102ff4 <handler_exit>
  101294:	8d b6 00 00 00 00    	lea    0x0(%esi),%esi
  10129a:	8d bf 00 00 00 00    	lea    0x0(%edi),%edi

001012a0 <irq_21>:
  1012a0:	e9 00 00 00 00       	jmp    1012a5 <irq_handler_21>

001012a5 <irq_handler_21>:
  1012a5:	6a 00                	push   $0x0
  1012a7:	60                   	pusha  
  1012a8:	6a 15                	push   $0x15
  1012aa:	e8 b8 1d 00 00       	call   103067 <isr_21>
  1012af:	e9 40 1d 00 00       	jmp    102ff4 <handler_exit>
  1012b4:	8d b6 00 00 00 00    	lea    0x0(%esi),%esi
  1012ba:	8d bf 00 00 00 00    	lea    0x0(%edi),%edi

001012c0 <irq_22>:
  1012c0:	e9 00 00 00 00       	jmp    1012c5 <irq_handler_22>

001012c5 <irq_handler_22>:
  1012c5:	6a 00                	push   $0x0
  1012c7:	60                   	pusha  
  1012c8:	6a 16                	push   $0x16
  1012ca:	e8 9d 1d 00 00       	call   10306c <isr_22>
  1012cf:	e9 20 1d 00 00       	jmp    102ff4 <handler_exit>
  1012d4:	8d b6 00 00 00 00    	lea    0x0(%esi),%esi
  1012da:	8d bf 00 00 00 00    	lea    0x0(%edi),%edi

001012e0 <irq_23>:
  1012e0:	e9 00 00 00 00       	jmp    1012e5 <irq_handler_23>

001012e5 <irq_handler_23>:
  1012e5:	6a 00                	push   $0x0
  1012e7:	60                   	pusha  
  1012e8:	6a 17                	push   $0x17
  1012ea:	e8 82 1d 00 00       	call   103071 <isr_23>
  1012ef:	e9 00 1d 00 00       	jmp    102ff4 <handler_exit>
  1012f4:	8d b6 00 00 00 00    	lea    0x0(%esi),%esi
  1012fa:	8d bf 00 00 00 00    	lea    0x0(%edi),%edi

00101300 <irq_24>:
  101300:	e9 00 00 00 00       	jmp    101305 <irq_handler_24>

00101305 <irq_handler_24>:
  101305:	6a 00                	push   $0x0
  101307:	60                   	pusha  
  101308:	6a 18                	push   $0x18
  10130a:	e8 67 1d 00 00       	call   103076 <isr_24>
  10130f:	e9 e0 1c 00 00       	jmp    102ff4 <handler_exit>
  101314:	8d b6 00 00 00 00    	lea    0x0(%esi),%esi
  10131a:	8d bf 00 00 00 00    	lea    0x0(%edi),%edi

00101320 <irq_25>:
  101320:	e9 00 00 00 00       	jmp    101325 <irq_handler_25>

00101325 <irq_handler_25>:
  101325:	6a 00                	push   $0x0
  101327:	60                   	pusha  
  101328:	6a 19                	push   $0x19
  10132a:	e8 4c 1d 00 00       	call   10307b <isr_25>
  10132f:	e9 c0 1c 00 00       	jmp    102ff4 <handler_exit>
  101334:	8d b6 00 00 00 00    	lea    0x0(%esi),%esi
  10133a:	8d bf 00 00 00 00    	lea    0x0(%edi),%edi

00101340 <irq_26>:
  101340:	e9 00 00 00 00       	jmp    101345 <irq_handler_26>

00101345 <irq_handler_26>:
  101345:	6a 00                	push   $0x0
  101347:	60                   	pusha  
  101348:	6a 1a                	push   $0x1a
  10134a:	e8 31 1d 00 00       	call   103080 <isr_26>
  10134f:	e9 a0 1c 00 00       	jmp    102ff4 <handler_exit>
  101354:	8d b6 00 00 00 00    	lea    0x0(%esi),%esi
  10135a:	8d bf 00 00 00 00    	lea    0x0(%edi),%edi

00101360 <irq_27>:
  101360:	e9 00 00 00 00       	jmp    101365 <irq_handler_27>

00101365 <irq_handler_27>:
  101365:	6a 00                	push   $0x0
  101367:	60                   	pusha  
  101368:	6a 1b                	push   $0x1b
  10136a:	e8 16 1d 00 00       	call   103085 <isr_27>
  10136f:	e9 80 1c 00 00       	jmp    102ff4 <handler_exit>
  101374:	8d b6 00 00 00 00    	lea    0x0(%esi),%esi
  10137a:	8d bf 00 00 00 00    	lea    0x0(%edi),%edi

00101380 <irq_28>:
  101380:	e9 00 00 00 00       	jmp    101385 <irq_handler_28>

00101385 <irq_handler_28>:
  101385:	6a 00                	push   $0x0
  101387:	60                   	pusha  
  101388:	6a 1c                	push   $0x1c
  10138a:	e8 fb 1c 00 00       	call   10308a <isr_28>
  10138f:	e9 60 1c 00 00       	jmp    102ff4 <handler_exit>
  101394:	8d b6 00 00 00 00    	lea    0x0(%esi),%esi
  10139a:	8d bf 00 00 00 00    	lea    0x0(%edi),%edi

001013a0 <irq_29>:
  1013a0:	e9 00 00 00 00       	jmp    1013a5 <irq_handler_29>

001013a5 <irq_handler_29>:
  1013a5:	6a 00                	push   $0x0
  1013a7:	60                   	pusha  
  1013a8:	6a 1d                	push   $0x1d
  1013aa:	e8 e0 1c 00 00       	call   10308f <isr_29>
  1013af:	e9 40 1c 00 00       	jmp    102ff4 <handler_exit>
  1013b4:	8d b6 00 00 00 00    	lea    0x0(%esi),%esi
  1013ba:	8d bf 00 00 00 00    	lea    0x0(%edi),%edi

001013c0 <irq_30>:
  1013c0:	e9 00 00 00 00       	jmp    1013c5 <irq_handler_30>

001013c5 <irq_handler_30>:
  1013c5:	6a 00                	push   $0x0
  1013c7:	60                   	pusha  
  1013c8:	6a 1e                	push   $0x1e
  1013ca:	e8 c5 1c 00 00       	call   103094 <isr_30>
  1013cf:	e9 20 1c 00 00       	jmp    102ff4 <handler_exit>
  1013d4:	8d b6 00 00 00 00    	lea    0x0(%esi),%esi
  1013da:	8d bf 00 00 00 00    	lea    0x0(%edi),%edi

001013e0 <irq_31>:
  1013e0:	e9 00 00 00 00       	jmp    1013e5 <irq_handler_31>

001013e5 <irq_handler_31>:
  1013e5:	6a 00                	push   $0x0
  1013e7:	60                   	pusha  
  1013e8:	6a 1f                	push   $0x1f
  1013ea:	e8 aa 1c 00 00       	call   103099 <isr_31>
  1013ef:	e9 00 1c 00 00       	jmp    102ff4 <handler_exit>
  1013f4:	8d b6 00 00 00 00    	lea    0x0(%esi),%esi
  1013fa:	8d bf 00 00 00 00    	lea    0x0(%edi),%edi

00101400 <irq_32>:
  101400:	e9 00 00 00 00       	jmp    101405 <irq_handler_32>

00101405 <irq_handler_32>:
  101405:	6a 00                	push   $0x0
  101407:	60                   	pusha  
  101408:	6a 20                	push   $0x20
  10140a:	e8 8f 1c 00 00       	call   10309e <isr_32>
  10140f:	e9 e0 1b 00 00       	jmp    102ff4 <handler_exit>
  101414:	8d b6 00 00 00 00    	lea    0x0(%esi),%esi
  10141a:	8d bf 00 00 00 00    	lea    0x0(%edi),%edi

00101420 <irq_33>:
  101420:	e9 00 00 00 00       	jmp    101425 <irq_handler_33>

00101425 <irq_handler_33>:
  101425:	6a 00                	push   $0x0
  101427:	60                   	pusha  
  101428:	6a 21                	push   $0x21
  10142a:	e8 74 1c 00 00       	call   1030a3 <isr_33>
  10142f:	e9 c0 1b 00 00       	jmp    102ff4 <handler_exit>
  101434:	8d b6 00 00 00 00    	lea    0x0(%esi),%esi
  10143a:	8d bf 00 00 00 00    	lea    0x0(%edi),%edi

00101440 <irq_34>:
  101440:	e9 00 00 00 00       	jmp    101445 <irq_handler_34>

00101445 <irq_handler_34>:
  101445:	6a 00                	push   $0x0
  101447:	60                   	pusha  
  101448:	6a 22                	push   $0x22
  10144a:	e8 59 1c 00 00       	call   1030a8 <isr_34>
  10144f:	e9 a0 1b 00 00       	jmp    102ff4 <handler_exit>
  101454:	8d b6 00 00 00 00    	lea    0x0(%esi),%esi
  10145a:	8d bf 00 00 00 00    	lea    0x0(%edi),%edi

00101460 <irq_35>:
  101460:	e9 00 00 00 00       	jmp    101465 <irq_handler_35>

00101465 <irq_handler_35>:
  101465:	6a 00                	push   $0x0
  101467:	60                   	pusha  
  101468:	6a 23                	push   $0x23
  10146a:	e8 3e 1c 00 00       	call   1030ad <isr_35>
  10146f:	e9 80 1b 00 00       	jmp    102ff4 <handler_exit>
  101474:	8d b6 00 00 00 00    	lea    0x0(%esi),%esi
  10147a:	8d bf 00 00 00 00    	lea    0x0(%edi),%edi

00101480 <irq_36>:
  101480:	e9 00 00 00 00       	jmp    101485 <irq_handler_36>

00101485 <irq_handler_36>:
  101485:	6a 00                	push   $0x0
  101487:	60                   	pusha  
  101488:	6a 24                	push   $0x24
  10148a:	e8 23 1c 00 00       	call   1030b2 <isr_36>
  10148f:	e9 60 1b 00 00       	jmp    102ff4 <handler_exit>
  101494:	8d b6 00 00 00 00    	lea    0x0(%esi),%esi
  10149a:	8d bf 00 00 00 00    	lea    0x0(%edi),%edi

001014a0 <irq_37>:
  1014a0:	e9 00 00 00 00       	jmp    1014a5 <irq_handler_37>

001014a5 <irq_handler_37>:
  1014a5:	6a 00                	push   $0x0
  1014a7:	60                   	pusha  
  1014a8:	6a 25                	push   $0x25
  1014aa:	e8 08 1c 00 00       	call   1030b7 <isr_37>
  1014af:	e9 40 1b 00 00       	jmp    102ff4 <handler_exit>
  1014b4:	8d b6 00 00 00 00    	lea    0x0(%esi),%esi
  1014ba:	8d bf 00 00 00 00    	lea    0x0(%edi),%edi

001014c0 <irq_38>:
  1014c0:	e9 00 00 00 00       	jmp    1014c5 <irq_handler_38>

001014c5 <irq_handler_38>:
  1014c5:	6a 00                	push   $0x0
  1014c7:	60                   	pusha  
  1014c8:	6a 26                	push   $0x26
  1014ca:	e8 ed 1b 00 00       	call   1030bc <isr_38>
  1014cf:	e9 20 1b 00 00       	jmp    102ff4 <handler_exit>
  1014d4:	8d b6 00 00 00 00    	lea    0x0(%esi),%esi
  1014da:	8d bf 00 00 00 00    	lea    0x0(%edi),%edi

001014e0 <irq_39>:
  1014e0:	e9 00 00 00 00       	jmp    1014e5 <irq_handler_39>

001014e5 <irq_handler_39>:
  1014e5:	6a 00                	push   $0x0
  1014e7:	60                   	pusha  
  1014e8:	6a 27                	push   $0x27
  1014ea:	e8 d2 1b 00 00       	call   1030c1 <isr_39>
  1014ef:	e9 00 1b 00 00       	jmp    102ff4 <handler_exit>
  1014f4:	8d b6 00 00 00 00    	lea    0x0(%esi),%esi
  1014fa:	8d bf 00 00 00 00    	lea    0x0(%edi),%edi

00101500 <irq_40>:
  101500:	e9 00 00 00 00       	jmp    101505 <irq_handler_40>

00101505 <irq_handler_40>:
  101505:	6a 00                	push   $0x0
  101507:	60                   	pusha  
  101508:	6a 28                	push   $0x28
  10150a:	e8 b7 1b 00 00       	call   1030c6 <isr_40>
  10150f:	e9 e0 1a 00 00       	jmp    102ff4 <handler_exit>
  101514:	8d b6 00 00 00 00    	lea    0x0(%esi),%esi
  10151a:	8d bf 00 00 00 00    	lea    0x0(%edi),%edi

00101520 <irq_41>:
  101520:	e9 00 00 00 00       	jmp    101525 <irq_handler_41>

00101525 <irq_handler_41>:
  101525:	6a 00                	push   $0x0
  101527:	60                   	pusha  
  101528:	6a 29                	push   $0x29
  10152a:	e8 9c 1b 00 00       	call   1030cb <isr_41>
  10152f:	e9 c0 1a 00 00       	jmp    102ff4 <handler_exit>
  101534:	8d b6 00 00 00 00    	lea    0x0(%esi),%esi
  10153a:	8d bf 00 00 00 00    	lea    0x0(%edi),%edi

00101540 <irq_42>:
  101540:	e9 00 00 00 00       	jmp    101545 <irq_handler_42>

00101545 <irq_handler_42>:
  101545:	6a 00                	push   $0x0
  101547:	60                   	pusha  
  101548:	6a 2a                	push   $0x2a
  10154a:	e8 81 1b 00 00       	call   1030d0 <isr_42>
  10154f:	e9 a0 1a 00 00       	jmp    102ff4 <handler_exit>
  101554:	8d b6 00 00 00 00    	lea    0x0(%esi),%esi
  10155a:	8d bf 00 00 00 00    	lea    0x0(%edi),%edi

00101560 <irq_43>:
  101560:	e9 00 00 00 00       	jmp    101565 <irq_handler_43>

00101565 <irq_handler_43>:
  101565:	6a 00                	push   $0x0
  101567:	60                   	pusha  
  101568:	6a 2b                	push   $0x2b
  10156a:	e8 66 1b 00 00       	call   1030d5 <isr_43>
  10156f:	e9 80 1a 00 00       	jmp    102ff4 <handler_exit>
  101574:	8d b6 00 00 00 00    	lea    0x0(%esi),%esi
  10157a:	8d bf 00 00 00 00    	lea    0x0(%edi),%edi

00101580 <irq_44>:
  101580:	e9 00 00 00 00       	jmp    101585 <irq_handler_44>

00101585 <irq_handler_44>:
  101585:	6a 00                	push   $0x0
  101587:	60                   	pusha  
  101588:	6a 2c                	push   $0x2c
  10158a:	e8 4b 1b 00 00       	call   1030da <isr_44>
  10158f:	e9 60 1a 00 00       	jmp    102ff4 <handler_exit>
  101594:	8d b6 00 00 00 00    	lea    0x0(%esi),%esi
  10159a:	8d bf 00 00 00 00    	lea    0x0(%edi),%edi

001015a0 <irq_45>:
  1015a0:	e9 00 00 00 00       	jmp    1015a5 <irq_handler_45>

001015a5 <irq_handler_45>:
  1015a5:	6a 00                	push   $0x0
  1015a7:	60                   	pusha  
  1015a8:	6a 2d                	push   $0x2d
  1015aa:	e8 30 1b 00 00       	call   1030df <isr_45>
  1015af:	e9 40 1a 00 00       	jmp    102ff4 <handler_exit>
  1015b4:	8d b6 00 00 00 00    	lea    0x0(%esi),%esi
  1015ba:	8d bf 00 00 00 00    	lea    0x0(%edi),%edi

001015c0 <irq_46>:
  1015c0:	e9 00 00 00 00       	jmp    1015c5 <irq_handler_46>

001015c5 <irq_handler_46>:
  1015c5:	6a 00                	push   $0x0
  1015c7:	60                   	pusha  
  1015c8:	6a 2e                	push   $0x2e
  1015ca:	e8 15 1b 00 00       	call   1030e4 <isr_46>
  1015cf:	e9 20 1a 00 00       	jmp    102ff4 <handler_exit>
  1015d4:	8d b6 00 00 00 00    	lea    0x0(%esi),%esi
  1015da:	8d bf 00 00 00 00    	lea    0x0(%edi),%edi

001015e0 <irq_47>:
  1015e0:	e9 00 00 00 00       	jmp    1015e5 <irq_handler_47>

001015e5 <irq_handler_47>:
  1015e5:	6a 00                	push   $0x0
  1015e7:	60                   	pusha  
  1015e8:	6a 2f                	push   $0x2f
  1015ea:	e8 fa 1a 00 00       	call   1030e9 <isr_47>
  1015ef:	e9 00 1a 00 00       	jmp    102ff4 <handler_exit>
  1015f4:	8d b6 00 00 00 00    	lea    0x0(%esi),%esi
  1015fa:	8d bf 00 00 00 00    	lea    0x0(%edi),%edi

00101600 <irq_48>:
  101600:	e9 00 00 00 00       	jmp    101605 <irq_handler_48>

00101605 <irq_handler_48>:
  101605:	6a 00                	push   $0x0
  101607:	60                   	pusha  
  101608:	6a 30                	push   $0x30
  10160a:	e8 df 1a 00 00       	call   1030ee <isr_48>
  10160f:	e9 e0 19 00 00       	jmp    102ff4 <handler_exit>
  101614:	8d b6 00 00 00 00    	lea    0x0(%esi),%esi
  10161a:	8d bf 00 00 00 00    	lea    0x0(%edi),%edi

00101620 <irq_49>:
  101620:	e9 00 00 00 00       	jmp    101625 <irq_handler_49>

00101625 <irq_handler_49>:
  101625:	6a 00                	push   $0x0
  101627:	60                   	pusha  
  101628:	6a 31                	push   $0x31
  10162a:	e8 c4 1a 00 00       	call   1030f3 <isr_49>
  10162f:	e9 c0 19 00 00       	jmp    102ff4 <handler_exit>
  101634:	8d b6 00 00 00 00    	lea    0x0(%esi),%esi
  10163a:	8d bf 00 00 00 00    	lea    0x0(%edi),%edi

00101640 <irq_50>:
  101640:	e9 00 00 00 00       	jmp    101645 <irq_handler_50>

00101645 <irq_handler_50>:
  101645:	6a 00                	push   $0x0
  101647:	60                   	pusha  
  101648:	6a 32                	push   $0x32
  10164a:	e8 a9 1a 00 00       	call   1030f8 <isr_50>
  10164f:	e9 a0 19 00 00       	jmp    102ff4 <handler_exit>
  101654:	8d b6 00 00 00 00    	lea    0x0(%esi),%esi
  10165a:	8d bf 00 00 00 00    	lea    0x0(%edi),%edi

00101660 <irq_51>:
  101660:	e9 00 00 00 00       	jmp    101665 <irq_handler_51>

00101665 <irq_handler_51>:
  101665:	6a 00                	push   $0x0
  101667:	60                   	pusha  
  101668:	6a 33                	push   $0x33
  10166a:	e8 8e 1a 00 00       	call   1030fd <isr_51>
  10166f:	e9 80 19 00 00       	jmp    102ff4 <handler_exit>
  101674:	8d b6 00 00 00 00    	lea    0x0(%esi),%esi
  10167a:	8d bf 00 00 00 00    	lea    0x0(%edi),%edi

00101680 <irq_52>:
  101680:	e9 00 00 00 00       	jmp    101685 <irq_handler_52>

00101685 <irq_handler_52>:
  101685:	6a 00                	push   $0x0
  101687:	60                   	pusha  
  101688:	6a 34                	push   $0x34
  10168a:	e8 73 1a 00 00       	call   103102 <isr_52>
  10168f:	e9 60 19 00 00       	jmp    102ff4 <handler_exit>
  101694:	8d b6 00 00 00 00    	lea    0x0(%esi),%esi
  10169a:	8d bf 00 00 00 00    	lea    0x0(%edi),%edi

001016a0 <irq_53>:
  1016a0:	e9 00 00 00 00       	jmp    1016a5 <irq_handler_53>

001016a5 <irq_handler_53>:
  1016a5:	6a 00                	push   $0x0
  1016a7:	60                   	pusha  
  1016a8:	6a 35                	push   $0x35
  1016aa:	e8 58 1a 00 00       	call   103107 <isr_53>
  1016af:	e9 40 19 00 00       	jmp    102ff4 <handler_exit>
  1016b4:	8d b6 00 00 00 00    	lea    0x0(%esi),%esi
  1016ba:	8d bf 00 00 00 00    	lea    0x0(%edi),%edi

001016c0 <irq_54>:
  1016c0:	e9 00 00 00 00       	jmp    1016c5 <irq_handler_54>

001016c5 <irq_handler_54>:
  1016c5:	6a 00                	push   $0x0
  1016c7:	60                   	pusha  
  1016c8:	6a 36                	push   $0x36
  1016ca:	e8 3d 1a 00 00       	call   10310c <isr_54>
  1016cf:	e9 20 19 00 00       	jmp    102ff4 <handler_exit>
  1016d4:	8d b6 00 00 00 00    	lea    0x0(%esi),%esi
  1016da:	8d bf 00 00 00 00    	lea    0x0(%edi),%edi

001016e0 <irq_55>:
  1016e0:	e9 00 00 00 00       	jmp    1016e5 <irq_handler_55>

001016e5 <irq_handler_55>:
  1016e5:	6a 00                	push   $0x0
  1016e7:	60                   	pusha  
  1016e8:	6a 37                	push   $0x37
  1016ea:	e8 22 1a 00 00       	call   103111 <isr_55>
  1016ef:	e9 00 19 00 00       	jmp    102ff4 <handler_exit>
  1016f4:	8d b6 00 00 00 00    	lea    0x0(%esi),%esi
  1016fa:	8d bf 00 00 00 00    	lea    0x0(%edi),%edi

00101700 <irq_56>:
  101700:	e9 00 00 00 00       	jmp    101705 <irq_handler_56>

00101705 <irq_handler_56>:
  101705:	6a 00                	push   $0x0
  101707:	60                   	pusha  
  101708:	6a 38                	push   $0x38
  10170a:	e8 07 1a 00 00       	call   103116 <isr_56>
  10170f:	e9 e0 18 00 00       	jmp    102ff4 <handler_exit>
  101714:	8d b6 00 00 00 00    	lea    0x0(%esi),%esi
  10171a:	8d bf 00 00 00 00    	lea    0x0(%edi),%edi

00101720 <irq_57>:
  101720:	e9 00 00 00 00       	jmp    101725 <irq_handler_57>

00101725 <irq_handler_57>:
  101725:	6a 00                	push   $0x0
  101727:	60                   	pusha  
  101728:	6a 39                	push   $0x39
  10172a:	e8 ec 19 00 00       	call   10311b <isr_57>
  10172f:	e9 c0 18 00 00       	jmp    102ff4 <handler_exit>
  101734:	8d b6 00 00 00 00    	lea    0x0(%esi),%esi
  10173a:	8d bf 00 00 00 00    	lea    0x0(%edi),%edi

00101740 <irq_58>:
  101740:	e9 00 00 00 00       	jmp    101745 <irq_handler_58>

00101745 <irq_handler_58>:
  101745:	6a 00                	push   $0x0
  101747:	60                   	pusha  
  101748:	6a 3a                	push   $0x3a
  10174a:	e8 d1 19 00 00       	call   103120 <isr_58>
  10174f:	e9 a0 18 00 00       	jmp    102ff4 <handler_exit>
  101754:	8d b6 00 00 00 00    	lea    0x0(%esi),%esi
  10175a:	8d bf 00 00 00 00    	lea    0x0(%edi),%edi

00101760 <irq_59>:
  101760:	e9 00 00 00 00       	jmp    101765 <irq_handler_59>

00101765 <irq_handler_59>:
  101765:	6a 00                	push   $0x0
  101767:	60                   	pusha  
  101768:	6a 3b                	push   $0x3b
  10176a:	e8 b6 19 00 00       	call   103125 <isr_59>
  10176f:	e9 80 18 00 00       	jmp    102ff4 <handler_exit>
  101774:	8d b6 00 00 00 00    	lea    0x0(%esi),%esi
  10177a:	8d bf 00 00 00 00    	lea    0x0(%edi),%edi

00101780 <irq_60>:
  101780:	e9 00 00 00 00       	jmp    101785 <irq_handler_60>

00101785 <irq_handler_60>:
  101785:	6a 00                	push   $0x0
  101787:	60                   	pusha  
  101788:	6a 3c                	push   $0x3c
  10178a:	e8 9b 19 00 00       	call   10312a <isr_60>
  10178f:	e9 60 18 00 00       	jmp    102ff4 <handler_exit>
  101794:	8d b6 00 00 00 00    	lea    0x0(%esi),%esi
  10179a:	8d bf 00 00 00 00    	lea    0x0(%edi),%edi

001017a0 <irq_61>:
  1017a0:	e9 00 00 00 00       	jmp    1017a5 <irq_handler_61>

001017a5 <irq_handler_61>:
  1017a5:	6a 00                	push   $0x0
  1017a7:	60                   	pusha  
  1017a8:	6a 3d                	push   $0x3d
  1017aa:	e8 80 19 00 00       	call   10312f <isr_61>
  1017af:	e9 40 18 00 00       	jmp    102ff4 <handler_exit>
  1017b4:	8d b6 00 00 00 00    	lea    0x0(%esi),%esi
  1017ba:	8d bf 00 00 00 00    	lea    0x0(%edi),%edi

001017c0 <irq_62>:
  1017c0:	e9 00 00 00 00       	jmp    1017c5 <irq_handler_62>

001017c5 <irq_handler_62>:
  1017c5:	6a 00                	push   $0x0
  1017c7:	60                   	pusha  
  1017c8:	6a 3e                	push   $0x3e
  1017ca:	e8 65 19 00 00       	call   103134 <isr_62>
  1017cf:	e9 20 18 00 00       	jmp    102ff4 <handler_exit>
  1017d4:	8d b6 00 00 00 00    	lea    0x0(%esi),%esi
  1017da:	8d bf 00 00 00 00    	lea    0x0(%edi),%edi

001017e0 <irq_63>:
  1017e0:	e9 00 00 00 00       	jmp    1017e5 <irq_handler_63>

001017e5 <irq_handler_63>:
  1017e5:	6a 00                	push   $0x0
  1017e7:	60                   	pusha  
  1017e8:	6a 3f                	push   $0x3f
  1017ea:	e8 4a 19 00 00       	call   103139 <isr_63>
  1017ef:	e9 00 18 00 00       	jmp    102ff4 <handler_exit>
  1017f4:	8d b6 00 00 00 00    	lea    0x0(%esi),%esi
  1017fa:	8d bf 00 00 00 00    	lea    0x0(%edi),%edi

00101800 <irq_64>:
  101800:	e9 00 00 00 00       	jmp    101805 <irq_handler_64>

00101805 <irq_handler_64>:
  101805:	6a 00                	push   $0x0
  101807:	60                   	pusha  
  101808:	6a 40                	push   $0x40
  10180a:	e8 2f 19 00 00       	call   10313e <isr_64>
  10180f:	e9 e0 17 00 00       	jmp    102ff4 <handler_exit>
  101814:	8d b6 00 00 00 00    	lea    0x0(%esi),%esi
  10181a:	8d bf 00 00 00 00    	lea    0x0(%edi),%edi

00101820 <irq_65>:
  101820:	e9 00 00 00 00       	jmp    101825 <irq_handler_65>

00101825 <irq_handler_65>:
  101825:	6a 00                	push   $0x0
  101827:	60                   	pusha  
  101828:	6a 41                	push   $0x41
  10182a:	e8 14 19 00 00       	call   103143 <isr_65>
  10182f:	e9 c0 17 00 00       	jmp    102ff4 <handler_exit>
  101834:	8d b6 00 00 00 00    	lea    0x0(%esi),%esi
  10183a:	8d bf 00 00 00 00    	lea    0x0(%edi),%edi

00101840 <irq_66>:
  101840:	e9 00 00 00 00       	jmp    101845 <irq_handler_66>

00101845 <irq_handler_66>:
  101845:	6a 00                	push   $0x0
  101847:	60                   	pusha  
  101848:	6a 42                	push   $0x42
  10184a:	e8 f9 18 00 00       	call   103148 <isr_66>
  10184f:	e9 a0 17 00 00       	jmp    102ff4 <handler_exit>
  101854:	8d b6 00 00 00 00    	lea    0x0(%esi),%esi
  10185a:	8d bf 00 00 00 00    	lea    0x0(%edi),%edi

00101860 <irq_67>:
  101860:	e9 00 00 00 00       	jmp    101865 <irq_handler_67>

00101865 <irq_handler_67>:
  101865:	6a 00                	push   $0x0
  101867:	60                   	pusha  
  101868:	6a 43                	push   $0x43
  10186a:	e8 de 18 00 00       	call   10314d <isr_67>
  10186f:	e9 80 17 00 00       	jmp    102ff4 <handler_exit>
  101874:	8d b6 00 00 00 00    	lea    0x0(%esi),%esi
  10187a:	8d bf 00 00 00 00    	lea    0x0(%edi),%edi

00101880 <irq_68>:
  101880:	e9 00 00 00 00       	jmp    101885 <irq_handler_68>

00101885 <irq_handler_68>:
  101885:	6a 00                	push   $0x0
  101887:	60                   	pusha  
  101888:	6a 44                	push   $0x44
  10188a:	e8 c3 18 00 00       	call   103152 <isr_68>
  10188f:	e9 60 17 00 00       	jmp    102ff4 <handler_exit>
  101894:	8d b6 00 00 00 00    	lea    0x0(%esi),%esi
  10189a:	8d bf 00 00 00 00    	lea    0x0(%edi),%edi

001018a0 <irq_69>:
  1018a0:	e9 00 00 00 00       	jmp    1018a5 <irq_handler_69>

001018a5 <irq_handler_69>:
  1018a5:	6a 00                	push   $0x0
  1018a7:	60                   	pusha  
  1018a8:	6a 45                	push   $0x45
  1018aa:	e8 a8 18 00 00       	call   103157 <isr_69>
  1018af:	e9 40 17 00 00       	jmp    102ff4 <handler_exit>
  1018b4:	8d b6 00 00 00 00    	lea    0x0(%esi),%esi
  1018ba:	8d bf 00 00 00 00    	lea    0x0(%edi),%edi

001018c0 <irq_70>:
  1018c0:	e9 00 00 00 00       	jmp    1018c5 <irq_handler_70>

001018c5 <irq_handler_70>:
  1018c5:	6a 00                	push   $0x0
  1018c7:	60                   	pusha  
  1018c8:	6a 46                	push   $0x46
  1018ca:	e8 8d 18 00 00       	call   10315c <isr_70>
  1018cf:	e9 20 17 00 00       	jmp    102ff4 <handler_exit>
  1018d4:	8d b6 00 00 00 00    	lea    0x0(%esi),%esi
  1018da:	8d bf 00 00 00 00    	lea    0x0(%edi),%edi

001018e0 <irq_71>:
  1018e0:	e9 00 00 00 00       	jmp    1018e5 <irq_handler_71>

001018e5 <irq_handler_71>:
  1018e5:	6a 00                	push   $0x0
  1018e7:	60                   	pusha  
  1018e8:	6a 47                	push   $0x47
  1018ea:	e8 72 18 00 00       	call   103161 <isr_71>
  1018ef:	e9 00 17 00 00       	jmp    102ff4 <handler_exit>
  1018f4:	8d b6 00 00 00 00    	lea    0x0(%esi),%esi
  1018fa:	8d bf 00 00 00 00    	lea    0x0(%edi),%edi

00101900 <irq_72>:
  101900:	e9 00 00 00 00       	jmp    101905 <irq_handler_72>

00101905 <irq_handler_72>:
  101905:	6a 00                	push   $0x0
  101907:	60                   	pusha  
  101908:	6a 48                	push   $0x48
  10190a:	e8 57 18 00 00       	call   103166 <isr_72>
  10190f:	e9 e0 16 00 00       	jmp    102ff4 <handler_exit>
  101914:	8d b6 00 00 00 00    	lea    0x0(%esi),%esi
  10191a:	8d bf 00 00 00 00    	lea    0x0(%edi),%edi

00101920 <irq_73>:
  101920:	e9 00 00 00 00       	jmp    101925 <irq_handler_73>

00101925 <irq_handler_73>:
  101925:	6a 00                	push   $0x0
  101927:	60                   	pusha  
  101928:	6a 49                	push   $0x49
  10192a:	e8 3c 18 00 00       	call   10316b <isr_73>
  10192f:	e9 c0 16 00 00       	jmp    102ff4 <handler_exit>
  101934:	8d b6 00 00 00 00    	lea    0x0(%esi),%esi
  10193a:	8d bf 00 00 00 00    	lea    0x0(%edi),%edi

00101940 <irq_74>:
  101940:	e9 00 00 00 00       	jmp    101945 <irq_handler_74>

00101945 <irq_handler_74>:
  101945:	6a 00                	push   $0x0
  101947:	60                   	pusha  
  101948:	6a 4a                	push   $0x4a
  10194a:	e8 21 18 00 00       	call   103170 <isr_74>
  10194f:	e9 a0 16 00 00       	jmp    102ff4 <handler_exit>
  101954:	8d b6 00 00 00 00    	lea    0x0(%esi),%esi
  10195a:	8d bf 00 00 00 00    	lea    0x0(%edi),%edi

00101960 <irq_75>:
  101960:	e9 00 00 00 00       	jmp    101965 <irq_handler_75>

00101965 <irq_handler_75>:
  101965:	6a 00                	push   $0x0
  101967:	60                   	pusha  
  101968:	6a 4b                	push   $0x4b
  10196a:	e8 06 18 00 00       	call   103175 <isr_75>
  10196f:	e9 80 16 00 00       	jmp    102ff4 <handler_exit>
  101974:	8d b6 00 00 00 00    	lea    0x0(%esi),%esi
  10197a:	8d bf 00 00 00 00    	lea    0x0(%edi),%edi

00101980 <irq_76>:
  101980:	e9 00 00 00 00       	jmp    101985 <irq_handler_76>

00101985 <irq_handler_76>:
  101985:	6a 00                	push   $0x0
  101987:	60                   	pusha  
  101988:	6a 4c                	push   $0x4c
  10198a:	e8 eb 17 00 00       	call   10317a <isr_76>
  10198f:	e9 60 16 00 00       	jmp    102ff4 <handler_exit>
  101994:	8d b6 00 00 00 00    	lea    0x0(%esi),%esi
  10199a:	8d bf 00 00 00 00    	lea    0x0(%edi),%edi

001019a0 <irq_77>:
  1019a0:	e9 00 00 00 00       	jmp    1019a5 <irq_handler_77>

001019a5 <irq_handler_77>:
  1019a5:	6a 00                	push   $0x0
  1019a7:	60                   	pusha  
  1019a8:	6a 4d                	push   $0x4d
  1019aa:	e8 d0 17 00 00       	call   10317f <isr_77>
  1019af:	e9 40 16 00 00       	jmp    102ff4 <handler_exit>
  1019b4:	8d b6 00 00 00 00    	lea    0x0(%esi),%esi
  1019ba:	8d bf 00 00 00 00    	lea    0x0(%edi),%edi

001019c0 <irq_78>:
  1019c0:	e9 00 00 00 00       	jmp    1019c5 <irq_handler_78>

001019c5 <irq_handler_78>:
  1019c5:	6a 00                	push   $0x0
  1019c7:	60                   	pusha  
  1019c8:	6a 4e                	push   $0x4e
  1019ca:	e8 b5 17 00 00       	call   103184 <isr_78>
  1019cf:	e9 20 16 00 00       	jmp    102ff4 <handler_exit>
  1019d4:	8d b6 00 00 00 00    	lea    0x0(%esi),%esi
  1019da:	8d bf 00 00 00 00    	lea    0x0(%edi),%edi

001019e0 <irq_79>:
  1019e0:	e9 00 00 00 00       	jmp    1019e5 <irq_handler_79>

001019e5 <irq_handler_79>:
  1019e5:	6a 00                	push   $0x0
  1019e7:	60                   	pusha  
  1019e8:	6a 4f                	push   $0x4f
  1019ea:	e8 9a 17 00 00       	call   103189 <isr_79>
  1019ef:	e9 00 16 00 00       	jmp    102ff4 <handler_exit>
  1019f4:	8d b6 00 00 00 00    	lea    0x0(%esi),%esi
  1019fa:	8d bf 00 00 00 00    	lea    0x0(%edi),%edi

00101a00 <irq_80>:
  101a00:	e9 00 00 00 00       	jmp    101a05 <irq_handler_80>

00101a05 <irq_handler_80>:
  101a05:	6a 00                	push   $0x0
  101a07:	60                   	pusha  
  101a08:	6a 50                	push   $0x50
  101a0a:	e8 7f 17 00 00       	call   10318e <isr_80>
  101a0f:	e9 e0 15 00 00       	jmp    102ff4 <handler_exit>
  101a14:	8d b6 00 00 00 00    	lea    0x0(%esi),%esi
  101a1a:	8d bf 00 00 00 00    	lea    0x0(%edi),%edi

00101a20 <irq_81>:
  101a20:	e9 00 00 00 00       	jmp    101a25 <irq_handler_81>

00101a25 <irq_handler_81>:
  101a25:	6a 00                	push   $0x0
  101a27:	60                   	pusha  
  101a28:	6a 51                	push   $0x51
  101a2a:	e8 64 17 00 00       	call   103193 <isr_81>
  101a2f:	e9 c0 15 00 00       	jmp    102ff4 <handler_exit>
  101a34:	8d b6 00 00 00 00    	lea    0x0(%esi),%esi
  101a3a:	8d bf 00 00 00 00    	lea    0x0(%edi),%edi

00101a40 <irq_82>:
  101a40:	e9 00 00 00 00       	jmp    101a45 <irq_handler_82>

00101a45 <irq_handler_82>:
  101a45:	6a 00                	push   $0x0
  101a47:	60                   	pusha  
  101a48:	6a 52                	push   $0x52
  101a4a:	e8 49 17 00 00       	call   103198 <isr_82>
  101a4f:	e9 a0 15 00 00       	jmp    102ff4 <handler_exit>
  101a54:	8d b6 00 00 00 00    	lea    0x0(%esi),%esi
  101a5a:	8d bf 00 00 00 00    	lea    0x0(%edi),%edi

00101a60 <irq_83>:
  101a60:	e9 00 00 00 00       	jmp    101a65 <irq_handler_83>

00101a65 <irq_handler_83>:
  101a65:	6a 00                	push   $0x0
  101a67:	60                   	pusha  
  101a68:	6a 53                	push   $0x53
  101a6a:	e8 2e 17 00 00       	call   10319d <isr_83>
  101a6f:	e9 80 15 00 00       	jmp    102ff4 <handler_exit>
  101a74:	8d b6 00 00 00 00    	lea    0x0(%esi),%esi
  101a7a:	8d bf 00 00 00 00    	lea    0x0(%edi),%edi

00101a80 <irq_84>:
  101a80:	e9 00 00 00 00       	jmp    101a85 <irq_handler_84>

00101a85 <irq_handler_84>:
  101a85:	6a 00                	push   $0x0
  101a87:	60                   	pusha  
  101a88:	6a 54                	push   $0x54
  101a8a:	e8 13 17 00 00       	call   1031a2 <isr_84>
  101a8f:	e9 60 15 00 00       	jmp    102ff4 <handler_exit>
  101a94:	8d b6 00 00 00 00    	lea    0x0(%esi),%esi
  101a9a:	8d bf 00 00 00 00    	lea    0x0(%edi),%edi

00101aa0 <irq_85>:
  101aa0:	e9 00 00 00 00       	jmp    101aa5 <irq_handler_85>

00101aa5 <irq_handler_85>:
  101aa5:	6a 00                	push   $0x0
  101aa7:	60                   	pusha  
  101aa8:	6a 55                	push   $0x55
  101aaa:	e8 f8 16 00 00       	call   1031a7 <isr_85>
  101aaf:	e9 40 15 00 00       	jmp    102ff4 <handler_exit>
  101ab4:	8d b6 00 00 00 00    	lea    0x0(%esi),%esi
  101aba:	8d bf 00 00 00 00    	lea    0x0(%edi),%edi

00101ac0 <irq_86>:
  101ac0:	e9 00 00 00 00       	jmp    101ac5 <irq_handler_86>

00101ac5 <irq_handler_86>:
  101ac5:	6a 00                	push   $0x0
  101ac7:	60                   	pusha  
  101ac8:	6a 56                	push   $0x56
  101aca:	e8 dd 16 00 00       	call   1031ac <isr_86>
  101acf:	e9 20 15 00 00       	jmp    102ff4 <handler_exit>
  101ad4:	8d b6 00 00 00 00    	lea    0x0(%esi),%esi
  101ada:	8d bf 00 00 00 00    	lea    0x0(%edi),%edi

00101ae0 <irq_87>:
  101ae0:	e9 00 00 00 00       	jmp    101ae5 <irq_handler_87>

00101ae5 <irq_handler_87>:
  101ae5:	6a 00                	push   $0x0
  101ae7:	60                   	pusha  
  101ae8:	6a 57                	push   $0x57
  101aea:	e8 c2 16 00 00       	call   1031b1 <isr_87>
  101aef:	e9 00 15 00 00       	jmp    102ff4 <handler_exit>
  101af4:	8d b6 00 00 00 00    	lea    0x0(%esi),%esi
  101afa:	8d bf 00 00 00 00    	lea    0x0(%edi),%edi

00101b00 <irq_88>:
  101b00:	e9 00 00 00 00       	jmp    101b05 <irq_handler_88>

00101b05 <irq_handler_88>:
  101b05:	6a 00                	push   $0x0
  101b07:	60                   	pusha  
  101b08:	6a 58                	push   $0x58
  101b0a:	e8 a7 16 00 00       	call   1031b6 <isr_88>
  101b0f:	e9 e0 14 00 00       	jmp    102ff4 <handler_exit>
  101b14:	8d b6 00 00 00 00    	lea    0x0(%esi),%esi
  101b1a:	8d bf 00 00 00 00    	lea    0x0(%edi),%edi

00101b20 <irq_89>:
  101b20:	e9 00 00 00 00       	jmp    101b25 <irq_handler_89>

00101b25 <irq_handler_89>:
  101b25:	6a 00                	push   $0x0
  101b27:	60                   	pusha  
  101b28:	6a 59                	push   $0x59
  101b2a:	e8 8c 16 00 00       	call   1031bb <isr_89>
  101b2f:	e9 c0 14 00 00       	jmp    102ff4 <handler_exit>
  101b34:	8d b6 00 00 00 00    	lea    0x0(%esi),%esi
  101b3a:	8d bf 00 00 00 00    	lea    0x0(%edi),%edi

00101b40 <irq_90>:
  101b40:	e9 00 00 00 00       	jmp    101b45 <irq_handler_90>

00101b45 <irq_handler_90>:
  101b45:	6a 00                	push   $0x0
  101b47:	60                   	pusha  
  101b48:	6a 5a                	push   $0x5a
  101b4a:	e8 71 16 00 00       	call   1031c0 <isr_90>
  101b4f:	e9 a0 14 00 00       	jmp    102ff4 <handler_exit>
  101b54:	8d b6 00 00 00 00    	lea    0x0(%esi),%esi
  101b5a:	8d bf 00 00 00 00    	lea    0x0(%edi),%edi

00101b60 <irq_91>:
  101b60:	e9 00 00 00 00       	jmp    101b65 <irq_handler_91>

00101b65 <irq_handler_91>:
  101b65:	6a 00                	push   $0x0
  101b67:	60                   	pusha  
  101b68:	6a 5b                	push   $0x5b
  101b6a:	e8 56 16 00 00       	call   1031c5 <isr_91>
  101b6f:	e9 80 14 00 00       	jmp    102ff4 <handler_exit>
  101b74:	8d b6 00 00 00 00    	lea    0x0(%esi),%esi
  101b7a:	8d bf 00 00 00 00    	lea    0x0(%edi),%edi

00101b80 <irq_92>:
  101b80:	e9 00 00 00 00       	jmp    101b85 <irq_handler_92>

00101b85 <irq_handler_92>:
  101b85:	6a 00                	push   $0x0
  101b87:	60                   	pusha  
  101b88:	6a 5c                	push   $0x5c
  101b8a:	e8 3b 16 00 00       	call   1031ca <isr_92>
  101b8f:	e9 60 14 00 00       	jmp    102ff4 <handler_exit>
  101b94:	8d b6 00 00 00 00    	lea    0x0(%esi),%esi
  101b9a:	8d bf 00 00 00 00    	lea    0x0(%edi),%edi

00101ba0 <irq_93>:
  101ba0:	e9 00 00 00 00       	jmp    101ba5 <irq_handler_93>

00101ba5 <irq_handler_93>:
  101ba5:	6a 00                	push   $0x0
  101ba7:	60                   	pusha  
  101ba8:	6a 5d                	push   $0x5d
  101baa:	e8 20 16 00 00       	call   1031cf <isr_93>
  101baf:	e9 40 14 00 00       	jmp    102ff4 <handler_exit>
  101bb4:	8d b6 00 00 00 00    	lea    0x0(%esi),%esi
  101bba:	8d bf 00 00 00 00    	lea    0x0(%edi),%edi

00101bc0 <irq_94>:
  101bc0:	e9 00 00 00 00       	jmp    101bc5 <irq_handler_94>

00101bc5 <irq_handler_94>:
  101bc5:	6a 00                	push   $0x0
  101bc7:	60                   	pusha  
  101bc8:	6a 5e                	push   $0x5e
  101bca:	e8 05 16 00 00       	call   1031d4 <isr_94>
  101bcf:	e9 20 14 00 00       	jmp    102ff4 <handler_exit>
  101bd4:	8d b6 00 00 00 00    	lea    0x0(%esi),%esi
  101bda:	8d bf 00 00 00 00    	lea    0x0(%edi),%edi

00101be0 <irq_95>:
  101be0:	e9 00 00 00 00       	jmp    101be5 <irq_handler_95>

00101be5 <irq_handler_95>:
  101be5:	6a 00                	push   $0x0
  101be7:	60                   	pusha  
  101be8:	6a 5f                	push   $0x5f
  101bea:	e8 ea 15 00 00       	call   1031d9 <isr_95>
  101bef:	e9 00 14 00 00       	jmp    102ff4 <handler_exit>
  101bf4:	8d b6 00 00 00 00    	lea    0x0(%esi),%esi
  101bfa:	8d bf 00 00 00 00    	lea    0x0(%edi),%edi

00101c00 <irq_96>:
  101c00:	e9 00 00 00 00       	jmp    101c05 <irq_handler_96>

00101c05 <irq_handler_96>:
  101c05:	6a 00                	push   $0x0
  101c07:	60                   	pusha  
  101c08:	6a 60                	push   $0x60
  101c0a:	e8 cf 15 00 00       	call   1031de <isr_96>
  101c0f:	e9 e0 13 00 00       	jmp    102ff4 <handler_exit>
  101c14:	8d b6 00 00 00 00    	lea    0x0(%esi),%esi
  101c1a:	8d bf 00 00 00 00    	lea    0x0(%edi),%edi

00101c20 <irq_97>:
  101c20:	e9 00 00 00 00       	jmp    101c25 <irq_handler_97>

00101c25 <irq_handler_97>:
  101c25:	6a 00                	push   $0x0
  101c27:	60                   	pusha  
  101c28:	6a 61                	push   $0x61
  101c2a:	e8 b4 15 00 00       	call   1031e3 <isr_97>
  101c2f:	e9 c0 13 00 00       	jmp    102ff4 <handler_exit>
  101c34:	8d b6 00 00 00 00    	lea    0x0(%esi),%esi
  101c3a:	8d bf 00 00 00 00    	lea    0x0(%edi),%edi

00101c40 <irq_98>:
  101c40:	e9 00 00 00 00       	jmp    101c45 <irq_handler_98>

00101c45 <irq_handler_98>:
  101c45:	6a 00                	push   $0x0
  101c47:	60                   	pusha  
  101c48:	6a 62                	push   $0x62
  101c4a:	e8 99 15 00 00       	call   1031e8 <isr_98>
  101c4f:	e9 a0 13 00 00       	jmp    102ff4 <handler_exit>
  101c54:	8d b6 00 00 00 00    	lea    0x0(%esi),%esi
  101c5a:	8d bf 00 00 00 00    	lea    0x0(%edi),%edi

00101c60 <irq_99>:
  101c60:	e9 00 00 00 00       	jmp    101c65 <irq_handler_99>

00101c65 <irq_handler_99>:
  101c65:	6a 00                	push   $0x0
  101c67:	60                   	pusha  
  101c68:	6a 63                	push   $0x63
  101c6a:	e8 7e 15 00 00       	call   1031ed <isr_99>
  101c6f:	e9 80 13 00 00       	jmp    102ff4 <handler_exit>
  101c74:	8d b6 00 00 00 00    	lea    0x0(%esi),%esi
  101c7a:	8d bf 00 00 00 00    	lea    0x0(%edi),%edi

00101c80 <irq_100>:
  101c80:	e9 00 00 00 00       	jmp    101c85 <irq_handler_100>

00101c85 <irq_handler_100>:
  101c85:	6a 00                	push   $0x0
  101c87:	60                   	pusha  
  101c88:	6a 64                	push   $0x64
  101c8a:	e8 63 15 00 00       	call   1031f2 <isr_100>
  101c8f:	e9 60 13 00 00       	jmp    102ff4 <handler_exit>
  101c94:	8d b6 00 00 00 00    	lea    0x0(%esi),%esi
  101c9a:	8d bf 00 00 00 00    	lea    0x0(%edi),%edi

00101ca0 <irq_101>:
  101ca0:	e9 00 00 00 00       	jmp    101ca5 <irq_handler_101>

00101ca5 <irq_handler_101>:
  101ca5:	6a 00                	push   $0x0
  101ca7:	60                   	pusha  
  101ca8:	6a 65                	push   $0x65
  101caa:	e8 48 15 00 00       	call   1031f7 <isr_101>
  101caf:	e9 40 13 00 00       	jmp    102ff4 <handler_exit>
  101cb4:	8d b6 00 00 00 00    	lea    0x0(%esi),%esi
  101cba:	8d bf 00 00 00 00    	lea    0x0(%edi),%edi

00101cc0 <irq_102>:
  101cc0:	e9 00 00 00 00       	jmp    101cc5 <irq_handler_102>

00101cc5 <irq_handler_102>:
  101cc5:	6a 00                	push   $0x0
  101cc7:	60                   	pusha  
  101cc8:	6a 66                	push   $0x66
  101cca:	e8 2d 15 00 00       	call   1031fc <isr_102>
  101ccf:	e9 20 13 00 00       	jmp    102ff4 <handler_exit>
  101cd4:	8d b6 00 00 00 00    	lea    0x0(%esi),%esi
  101cda:	8d bf 00 00 00 00    	lea    0x0(%edi),%edi

00101ce0 <irq_103>:
  101ce0:	e9 00 00 00 00       	jmp    101ce5 <irq_handler_103>

00101ce5 <irq_handler_103>:
  101ce5:	6a 00                	push   $0x0
  101ce7:	60                   	pusha  
  101ce8:	6a 67                	push   $0x67
  101cea:	e8 12 15 00 00       	call   103201 <isr_103>
  101cef:	e9 00 13 00 00       	jmp    102ff4 <handler_exit>
  101cf4:	8d b6 00 00 00 00    	lea    0x0(%esi),%esi
  101cfa:	8d bf 00 00 00 00    	lea    0x0(%edi),%edi

00101d00 <irq_104>:
  101d00:	e9 00 00 00 00       	jmp    101d05 <irq_handler_104>

00101d05 <irq_handler_104>:
  101d05:	6a 00                	push   $0x0
  101d07:	60                   	pusha  
  101d08:	6a 68                	push   $0x68
  101d0a:	e8 f7 14 00 00       	call   103206 <isr_104>
  101d0f:	e9 e0 12 00 00       	jmp    102ff4 <handler_exit>
  101d14:	8d b6 00 00 00 00    	lea    0x0(%esi),%esi
  101d1a:	8d bf 00 00 00 00    	lea    0x0(%edi),%edi

00101d20 <irq_105>:
  101d20:	e9 00 00 00 00       	jmp    101d25 <irq_handler_105>

00101d25 <irq_handler_105>:
  101d25:	6a 00                	push   $0x0
  101d27:	60                   	pusha  
  101d28:	6a 69                	push   $0x69
  101d2a:	e8 dc 14 00 00       	call   10320b <isr_105>
  101d2f:	e9 c0 12 00 00       	jmp    102ff4 <handler_exit>
  101d34:	8d b6 00 00 00 00    	lea    0x0(%esi),%esi
  101d3a:	8d bf 00 00 00 00    	lea    0x0(%edi),%edi

00101d40 <irq_106>:
  101d40:	e9 00 00 00 00       	jmp    101d45 <irq_handler_106>

00101d45 <irq_handler_106>:
  101d45:	6a 00                	push   $0x0
  101d47:	60                   	pusha  
  101d48:	6a 6a                	push   $0x6a
  101d4a:	e8 c1 14 00 00       	call   103210 <isr_106>
  101d4f:	e9 a0 12 00 00       	jmp    102ff4 <handler_exit>
  101d54:	8d b6 00 00 00 00    	lea    0x0(%esi),%esi
  101d5a:	8d bf 00 00 00 00    	lea    0x0(%edi),%edi

00101d60 <irq_107>:
  101d60:	e9 00 00 00 00       	jmp    101d65 <irq_handler_107>

00101d65 <irq_handler_107>:
  101d65:	6a 00                	push   $0x0
  101d67:	60                   	pusha  
  101d68:	6a 6b                	push   $0x6b
  101d6a:	e8 a6 14 00 00       	call   103215 <isr_107>
  101d6f:	e9 80 12 00 00       	jmp    102ff4 <handler_exit>
  101d74:	8d b6 00 00 00 00    	lea    0x0(%esi),%esi
  101d7a:	8d bf 00 00 00 00    	lea    0x0(%edi),%edi

00101d80 <irq_108>:
  101d80:	e9 00 00 00 00       	jmp    101d85 <irq_handler_108>

00101d85 <irq_handler_108>:
  101d85:	6a 00                	push   $0x0
  101d87:	60                   	pusha  
  101d88:	6a 6c                	push   $0x6c
  101d8a:	e8 8b 14 00 00       	call   10321a <isr_108>
  101d8f:	e9 60 12 00 00       	jmp    102ff4 <handler_exit>
  101d94:	8d b6 00 00 00 00    	lea    0x0(%esi),%esi
  101d9a:	8d bf 00 00 00 00    	lea    0x0(%edi),%edi

00101da0 <irq_109>:
  101da0:	e9 00 00 00 00       	jmp    101da5 <irq_handler_109>

00101da5 <irq_handler_109>:
  101da5:	6a 00                	push   $0x0
  101da7:	60                   	pusha  
  101da8:	6a 6d                	push   $0x6d
  101daa:	e8 70 14 00 00       	call   10321f <isr_109>
  101daf:	e9 40 12 00 00       	jmp    102ff4 <handler_exit>
  101db4:	8d b6 00 00 00 00    	lea    0x0(%esi),%esi
  101dba:	8d bf 00 00 00 00    	lea    0x0(%edi),%edi

00101dc0 <irq_110>:
  101dc0:	e9 00 00 00 00       	jmp    101dc5 <irq_handler_110>

00101dc5 <irq_handler_110>:
  101dc5:	6a 00                	push   $0x0
  101dc7:	60                   	pusha  
  101dc8:	6a 6e                	push   $0x6e
  101dca:	e8 55 14 00 00       	call   103224 <isr_110>
  101dcf:	e9 20 12 00 00       	jmp    102ff4 <handler_exit>
  101dd4:	8d b6 00 00 00 00    	lea    0x0(%esi),%esi
  101dda:	8d bf 00 00 00 00    	lea    0x0(%edi),%edi

00101de0 <irq_111>:
  101de0:	e9 00 00 00 00       	jmp    101de5 <irq_handler_111>

00101de5 <irq_handler_111>:
  101de5:	6a 00                	push   $0x0
  101de7:	60                   	pusha  
  101de8:	6a 6f                	push   $0x6f
  101dea:	e8 3a 14 00 00       	call   103229 <isr_111>
  101def:	e9 00 12 00 00       	jmp    102ff4 <handler_exit>
  101df4:	8d b6 00 00 00 00    	lea    0x0(%esi),%esi
  101dfa:	8d bf 00 00 00 00    	lea    0x0(%edi),%edi

00101e00 <irq_112>:
  101e00:	e9 00 00 00 00       	jmp    101e05 <irq_handler_112>

00101e05 <irq_handler_112>:
  101e05:	6a 00                	push   $0x0
  101e07:	60                   	pusha  
  101e08:	6a 70                	push   $0x70
  101e0a:	e8 1f 14 00 00       	call   10322e <isr_112>
  101e0f:	e9 e0 11 00 00       	jmp    102ff4 <handler_exit>
  101e14:	8d b6 00 00 00 00    	lea    0x0(%esi),%esi
  101e1a:	8d bf 00 00 00 00    	lea    0x0(%edi),%edi

00101e20 <irq_113>:
  101e20:	e9 00 00 00 00       	jmp    101e25 <irq_handler_113>

00101e25 <irq_handler_113>:
  101e25:	6a 00                	push   $0x0
  101e27:	60                   	pusha  
  101e28:	6a 71                	push   $0x71
  101e2a:	e8 04 14 00 00       	call   103233 <isr_113>
  101e2f:	e9 c0 11 00 00       	jmp    102ff4 <handler_exit>
  101e34:	8d b6 00 00 00 00    	lea    0x0(%esi),%esi
  101e3a:	8d bf 00 00 00 00    	lea    0x0(%edi),%edi

00101e40 <irq_114>:
  101e40:	e9 00 00 00 00       	jmp    101e45 <irq_handler_114>

00101e45 <irq_handler_114>:
  101e45:	6a 00                	push   $0x0
  101e47:	60                   	pusha  
  101e48:	6a 72                	push   $0x72
  101e4a:	e8 e9 13 00 00       	call   103238 <isr_114>
  101e4f:	e9 a0 11 00 00       	jmp    102ff4 <handler_exit>
  101e54:	8d b6 00 00 00 00    	lea    0x0(%esi),%esi
  101e5a:	8d bf 00 00 00 00    	lea    0x0(%edi),%edi

00101e60 <irq_115>:
  101e60:	e9 00 00 00 00       	jmp    101e65 <irq_handler_115>

00101e65 <irq_handler_115>:
  101e65:	6a 00                	push   $0x0
  101e67:	60                   	pusha  
  101e68:	6a 73                	push   $0x73
  101e6a:	e8 ce 13 00 00       	call   10323d <isr_115>
  101e6f:	e9 80 11 00 00       	jmp    102ff4 <handler_exit>
  101e74:	8d b6 00 00 00 00    	lea    0x0(%esi),%esi
  101e7a:	8d bf 00 00 00 00    	lea    0x0(%edi),%edi

00101e80 <irq_116>:
  101e80:	e9 00 00 00 00       	jmp    101e85 <irq_handler_116>

00101e85 <irq_handler_116>:
  101e85:	6a 00                	push   $0x0
  101e87:	60                   	pusha  
  101e88:	6a 74                	push   $0x74
  101e8a:	e8 b3 13 00 00       	call   103242 <isr_116>
  101e8f:	e9 60 11 00 00       	jmp    102ff4 <handler_exit>
  101e94:	8d b6 00 00 00 00    	lea    0x0(%esi),%esi
  101e9a:	8d bf 00 00 00 00    	lea    0x0(%edi),%edi

00101ea0 <irq_117>:
  101ea0:	e9 00 00 00 00       	jmp    101ea5 <irq_handler_117>

00101ea5 <irq_handler_117>:
  101ea5:	6a 00                	push   $0x0
  101ea7:	60                   	pusha  
  101ea8:	6a 75                	push   $0x75
  101eaa:	e8 98 13 00 00       	call   103247 <isr_117>
  101eaf:	e9 40 11 00 00       	jmp    102ff4 <handler_exit>
  101eb4:	8d b6 00 00 00 00    	lea    0x0(%esi),%esi
  101eba:	8d bf 00 00 00 00    	lea    0x0(%edi),%edi

00101ec0 <irq_118>:
  101ec0:	e9 00 00 00 00       	jmp    101ec5 <irq_handler_118>

00101ec5 <irq_handler_118>:
  101ec5:	6a 00                	push   $0x0
  101ec7:	60                   	pusha  
  101ec8:	6a 76                	push   $0x76
  101eca:	e8 7d 13 00 00       	call   10324c <isr_118>
  101ecf:	e9 20 11 00 00       	jmp    102ff4 <handler_exit>
  101ed4:	8d b6 00 00 00 00    	lea    0x0(%esi),%esi
  101eda:	8d bf 00 00 00 00    	lea    0x0(%edi),%edi

00101ee0 <irq_119>:
  101ee0:	e9 00 00 00 00       	jmp    101ee5 <irq_handler_119>

00101ee5 <irq_handler_119>:
  101ee5:	6a 00                	push   $0x0
  101ee7:	60                   	pusha  
  101ee8:	6a 77                	push   $0x77
  101eea:	e8 62 13 00 00       	call   103251 <isr_119>
  101eef:	e9 00 11 00 00       	jmp    102ff4 <handler_exit>
  101ef4:	8d b6 00 00 00 00    	lea    0x0(%esi),%esi
  101efa:	8d bf 00 00 00 00    	lea    0x0(%edi),%edi

00101f00 <irq_120>:
  101f00:	e9 00 00 00 00       	jmp    101f05 <irq_handler_120>

00101f05 <irq_handler_120>:
  101f05:	6a 00                	push   $0x0
  101f07:	60                   	pusha  
  101f08:	6a 78                	push   $0x78
  101f0a:	e8 47 13 00 00       	call   103256 <isr_120>
  101f0f:	e9 e0 10 00 00       	jmp    102ff4 <handler_exit>
  101f14:	8d b6 00 00 00 00    	lea    0x0(%esi),%esi
  101f1a:	8d bf 00 00 00 00    	lea    0x0(%edi),%edi

00101f20 <irq_121>:
  101f20:	e9 00 00 00 00       	jmp    101f25 <irq_handler_121>

00101f25 <irq_handler_121>:
  101f25:	6a 00                	push   $0x0
  101f27:	60                   	pusha  
  101f28:	6a 79                	push   $0x79
  101f2a:	e8 2c 13 00 00       	call   10325b <isr_121>
  101f2f:	e9 c0 10 00 00       	jmp    102ff4 <handler_exit>
  101f34:	8d b6 00 00 00 00    	lea    0x0(%esi),%esi
  101f3a:	8d bf 00 00 00 00    	lea    0x0(%edi),%edi

00101f40 <irq_122>:
  101f40:	e9 00 00 00 00       	jmp    101f45 <irq_handler_122>

00101f45 <irq_handler_122>:
  101f45:	6a 00                	push   $0x0
  101f47:	60                   	pusha  
  101f48:	6a 7a                	push   $0x7a
  101f4a:	e8 11 13 00 00       	call   103260 <isr_122>
  101f4f:	e9 a0 10 00 00       	jmp    102ff4 <handler_exit>
  101f54:	8d b6 00 00 00 00    	lea    0x0(%esi),%esi
  101f5a:	8d bf 00 00 00 00    	lea    0x0(%edi),%edi

00101f60 <irq_123>:
  101f60:	e9 00 00 00 00       	jmp    101f65 <irq_handler_123>

00101f65 <irq_handler_123>:
  101f65:	6a 00                	push   $0x0
  101f67:	60                   	pusha  
  101f68:	6a 7b                	push   $0x7b
  101f6a:	e8 f6 12 00 00       	call   103265 <isr_123>
  101f6f:	e9 80 10 00 00       	jmp    102ff4 <handler_exit>
  101f74:	8d b6 00 00 00 00    	lea    0x0(%esi),%esi
  101f7a:	8d bf 00 00 00 00    	lea    0x0(%edi),%edi

00101f80 <irq_124>:
  101f80:	e9 00 00 00 00       	jmp    101f85 <irq_handler_124>

00101f85 <irq_handler_124>:
  101f85:	6a 00                	push   $0x0
  101f87:	60                   	pusha  
  101f88:	6a 7c                	push   $0x7c
  101f8a:	e8 db 12 00 00       	call   10326a <isr_124>
  101f8f:	e9 60 10 00 00       	jmp    102ff4 <handler_exit>
  101f94:	8d b6 00 00 00 00    	lea    0x0(%esi),%esi
  101f9a:	8d bf 00 00 00 00    	lea    0x0(%edi),%edi

00101fa0 <irq_125>:
  101fa0:	e9 00 00 00 00       	jmp    101fa5 <irq_handler_125>

00101fa5 <irq_handler_125>:
  101fa5:	6a 00                	push   $0x0
  101fa7:	60                   	pusha  
  101fa8:	6a 7d                	push   $0x7d
  101faa:	e8 c0 12 00 00       	call   10326f <isr_125>
  101faf:	e9 40 10 00 00       	jmp    102ff4 <handler_exit>
  101fb4:	8d b6 00 00 00 00    	lea    0x0(%esi),%esi
  101fba:	8d bf 00 00 00 00    	lea    0x0(%edi),%edi

00101fc0 <irq_126>:
  101fc0:	e9 00 00 00 00       	jmp    101fc5 <irq_handler_126>

00101fc5 <irq_handler_126>:
  101fc5:	6a 00                	push   $0x0
  101fc7:	60                   	pusha  
  101fc8:	6a 7e                	push   $0x7e
  101fca:	e8 a5 12 00 00       	call   103274 <isr_126>
  101fcf:	e9 20 10 00 00       	jmp    102ff4 <handler_exit>
  101fd4:	8d b6 00 00 00 00    	lea    0x0(%esi),%esi
  101fda:	8d bf 00 00 00 00    	lea    0x0(%edi),%edi

00101fe0 <irq_127>:
  101fe0:	e9 00 00 00 00       	jmp    101fe5 <irq_handler_127>

00101fe5 <irq_handler_127>:
  101fe5:	6a 00                	push   $0x0
  101fe7:	60                   	pusha  
  101fe8:	6a 7f                	push   $0x7f
  101fea:	e8 8a 12 00 00       	call   103279 <isr_127>
  101fef:	e9 00 10 00 00       	jmp    102ff4 <handler_exit>
  101ff4:	8d b6 00 00 00 00    	lea    0x0(%esi),%esi
  101ffa:	8d bf 00 00 00 00    	lea    0x0(%edi),%edi

00102000 <irq_128>:
  102000:	e9 00 00 00 00       	jmp    102005 <irq_handler_128>

00102005 <irq_handler_128>:
  102005:	6a 00                	push   $0x0
  102007:	60                   	pusha  
  102008:	68 80 00 00 00       	push   $0x80
  10200d:	e8 6c 12 00 00       	call   10327e <isr_128>
  102012:	e9 dd 0f 00 00       	jmp    102ff4 <handler_exit>
  102017:	89 f6                	mov    %esi,%esi
  102019:	8d bc 27 00 00 00 00 	lea    0x0(%edi,%eiz,1),%edi

00102020 <irq_129>:
  102020:	e9 00 00 00 00       	jmp    102025 <irq_handler_129>

00102025 <irq_handler_129>:
  102025:	6a 00                	push   $0x0
  102027:	60                   	pusha  
  102028:	68 81 00 00 00       	push   $0x81
  10202d:	e8 51 12 00 00       	call   103283 <isr_129>
  102032:	e9 bd 0f 00 00       	jmp    102ff4 <handler_exit>
  102037:	89 f6                	mov    %esi,%esi
  102039:	8d bc 27 00 00 00 00 	lea    0x0(%edi,%eiz,1),%edi

00102040 <irq_130>:
  102040:	e9 00 00 00 00       	jmp    102045 <irq_handler_130>

00102045 <irq_handler_130>:
  102045:	6a 00                	push   $0x0
  102047:	60                   	pusha  
  102048:	68 82 00 00 00       	push   $0x82
  10204d:	e8 36 12 00 00       	call   103288 <isr_130>
  102052:	e9 9d 0f 00 00       	jmp    102ff4 <handler_exit>
  102057:	89 f6                	mov    %esi,%esi
  102059:	8d bc 27 00 00 00 00 	lea    0x0(%edi,%eiz,1),%edi

00102060 <irq_131>:
  102060:	e9 00 00 00 00       	jmp    102065 <irq_handler_131>

00102065 <irq_handler_131>:
  102065:	6a 00                	push   $0x0
  102067:	60                   	pusha  
  102068:	68 83 00 00 00       	push   $0x83
  10206d:	e8 1b 12 00 00       	call   10328d <isr_131>
  102072:	e9 7d 0f 00 00       	jmp    102ff4 <handler_exit>
  102077:	89 f6                	mov    %esi,%esi
  102079:	8d bc 27 00 00 00 00 	lea    0x0(%edi,%eiz,1),%edi

00102080 <irq_132>:
  102080:	e9 00 00 00 00       	jmp    102085 <irq_handler_132>

00102085 <irq_handler_132>:
  102085:	6a 00                	push   $0x0
  102087:	60                   	pusha  
  102088:	68 84 00 00 00       	push   $0x84
  10208d:	e8 00 12 00 00       	call   103292 <isr_132>
  102092:	e9 5d 0f 00 00       	jmp    102ff4 <handler_exit>
  102097:	89 f6                	mov    %esi,%esi
  102099:	8d bc 27 00 00 00 00 	lea    0x0(%edi,%eiz,1),%edi

001020a0 <irq_133>:
  1020a0:	e9 00 00 00 00       	jmp    1020a5 <irq_handler_133>

001020a5 <irq_handler_133>:
  1020a5:	6a 00                	push   $0x0
  1020a7:	60                   	pusha  
  1020a8:	68 85 00 00 00       	push   $0x85
  1020ad:	e8 e5 11 00 00       	call   103297 <isr_133>
  1020b2:	e9 3d 0f 00 00       	jmp    102ff4 <handler_exit>
  1020b7:	89 f6                	mov    %esi,%esi
  1020b9:	8d bc 27 00 00 00 00 	lea    0x0(%edi,%eiz,1),%edi

001020c0 <irq_134>:
  1020c0:	e9 00 00 00 00       	jmp    1020c5 <irq_handler_134>

001020c5 <irq_handler_134>:
  1020c5:	6a 00                	push   $0x0
  1020c7:	60                   	pusha  
  1020c8:	68 86 00 00 00       	push   $0x86
  1020cd:	e8 ca 11 00 00       	call   10329c <isr_134>
  1020d2:	e9 1d 0f 00 00       	jmp    102ff4 <handler_exit>
  1020d7:	89 f6                	mov    %esi,%esi
  1020d9:	8d bc 27 00 00 00 00 	lea    0x0(%edi,%eiz,1),%edi

001020e0 <irq_135>:
  1020e0:	e9 00 00 00 00       	jmp    1020e5 <irq_handler_135>

001020e5 <irq_handler_135>:
  1020e5:	6a 00                	push   $0x0
  1020e7:	60                   	pusha  
  1020e8:	68 87 00 00 00       	push   $0x87
  1020ed:	e8 af 11 00 00       	call   1032a1 <isr_135>
  1020f2:	e9 fd 0e 00 00       	jmp    102ff4 <handler_exit>
  1020f7:	89 f6                	mov    %esi,%esi
  1020f9:	8d bc 27 00 00 00 00 	lea    0x0(%edi,%eiz,1),%edi

00102100 <irq_136>:
  102100:	e9 00 00 00 00       	jmp    102105 <irq_handler_136>

00102105 <irq_handler_136>:
  102105:	6a 00                	push   $0x0
  102107:	60                   	pusha  
  102108:	68 88 00 00 00       	push   $0x88
  10210d:	e8 94 11 00 00       	call   1032a6 <isr_136>
  102112:	e9 dd 0e 00 00       	jmp    102ff4 <handler_exit>
  102117:	89 f6                	mov    %esi,%esi
  102119:	8d bc 27 00 00 00 00 	lea    0x0(%edi,%eiz,1),%edi

00102120 <irq_137>:
  102120:	e9 00 00 00 00       	jmp    102125 <irq_handler_137>

00102125 <irq_handler_137>:
  102125:	6a 00                	push   $0x0
  102127:	60                   	pusha  
  102128:	68 89 00 00 00       	push   $0x89
  10212d:	e8 79 11 00 00       	call   1032ab <isr_137>
  102132:	e9 bd 0e 00 00       	jmp    102ff4 <handler_exit>
  102137:	89 f6                	mov    %esi,%esi
  102139:	8d bc 27 00 00 00 00 	lea    0x0(%edi,%eiz,1),%edi

00102140 <irq_138>:
  102140:	e9 00 00 00 00       	jmp    102145 <irq_handler_138>

00102145 <irq_handler_138>:
  102145:	6a 00                	push   $0x0
  102147:	60                   	pusha  
  102148:	68 8a 00 00 00       	push   $0x8a
  10214d:	e8 5e 11 00 00       	call   1032b0 <isr_138>
  102152:	e9 9d 0e 00 00       	jmp    102ff4 <handler_exit>
  102157:	89 f6                	mov    %esi,%esi
  102159:	8d bc 27 00 00 00 00 	lea    0x0(%edi,%eiz,1),%edi

00102160 <irq_139>:
  102160:	e9 00 00 00 00       	jmp    102165 <irq_handler_139>

00102165 <irq_handler_139>:
  102165:	6a 00                	push   $0x0
  102167:	60                   	pusha  
  102168:	68 8b 00 00 00       	push   $0x8b
  10216d:	e8 43 11 00 00       	call   1032b5 <isr_139>
  102172:	e9 7d 0e 00 00       	jmp    102ff4 <handler_exit>
  102177:	89 f6                	mov    %esi,%esi
  102179:	8d bc 27 00 00 00 00 	lea    0x0(%edi,%eiz,1),%edi

00102180 <irq_140>:
  102180:	e9 00 00 00 00       	jmp    102185 <irq_handler_140>

00102185 <irq_handler_140>:
  102185:	6a 00                	push   $0x0
  102187:	60                   	pusha  
  102188:	68 8c 00 00 00       	push   $0x8c
  10218d:	e8 28 11 00 00       	call   1032ba <isr_140>
  102192:	e9 5d 0e 00 00       	jmp    102ff4 <handler_exit>
  102197:	89 f6                	mov    %esi,%esi
  102199:	8d bc 27 00 00 00 00 	lea    0x0(%edi,%eiz,1),%edi

001021a0 <irq_141>:
  1021a0:	e9 00 00 00 00       	jmp    1021a5 <irq_handler_141>

001021a5 <irq_handler_141>:
  1021a5:	6a 00                	push   $0x0
  1021a7:	60                   	pusha  
  1021a8:	68 8d 00 00 00       	push   $0x8d
  1021ad:	e8 0d 11 00 00       	call   1032bf <isr_141>
  1021b2:	e9 3d 0e 00 00       	jmp    102ff4 <handler_exit>
  1021b7:	89 f6                	mov    %esi,%esi
  1021b9:	8d bc 27 00 00 00 00 	lea    0x0(%edi,%eiz,1),%edi

001021c0 <irq_142>:
  1021c0:	e9 00 00 00 00       	jmp    1021c5 <irq_handler_142>

001021c5 <irq_handler_142>:
  1021c5:	6a 00                	push   $0x0
  1021c7:	60                   	pusha  
  1021c8:	68 8e 00 00 00       	push   $0x8e
  1021cd:	e8 f2 10 00 00       	call   1032c4 <isr_142>
  1021d2:	e9 1d 0e 00 00       	jmp    102ff4 <handler_exit>
  1021d7:	89 f6                	mov    %esi,%esi
  1021d9:	8d bc 27 00 00 00 00 	lea    0x0(%edi,%eiz,1),%edi

001021e0 <irq_143>:
  1021e0:	e9 00 00 00 00       	jmp    1021e5 <irq_handler_143>

001021e5 <irq_handler_143>:
  1021e5:	6a 00                	push   $0x0
  1021e7:	60                   	pusha  
  1021e8:	68 8f 00 00 00       	push   $0x8f
  1021ed:	e8 d7 10 00 00       	call   1032c9 <isr_143>
  1021f2:	e9 fd 0d 00 00       	jmp    102ff4 <handler_exit>
  1021f7:	89 f6                	mov    %esi,%esi
  1021f9:	8d bc 27 00 00 00 00 	lea    0x0(%edi,%eiz,1),%edi

00102200 <irq_144>:
  102200:	e9 00 00 00 00       	jmp    102205 <irq_handler_144>

00102205 <irq_handler_144>:
  102205:	6a 00                	push   $0x0
  102207:	60                   	pusha  
  102208:	68 90 00 00 00       	push   $0x90
  10220d:	e8 bc 10 00 00       	call   1032ce <isr_144>
  102212:	e9 dd 0d 00 00       	jmp    102ff4 <handler_exit>
  102217:	89 f6                	mov    %esi,%esi
  102219:	8d bc 27 00 00 00 00 	lea    0x0(%edi,%eiz,1),%edi

00102220 <irq_145>:
  102220:	e9 00 00 00 00       	jmp    102225 <irq_handler_145>

00102225 <irq_handler_145>:
  102225:	6a 00                	push   $0x0
  102227:	60                   	pusha  
  102228:	68 91 00 00 00       	push   $0x91
  10222d:	e8 a1 10 00 00       	call   1032d3 <isr_145>
  102232:	e9 bd 0d 00 00       	jmp    102ff4 <handler_exit>
  102237:	89 f6                	mov    %esi,%esi
  102239:	8d bc 27 00 00 00 00 	lea    0x0(%edi,%eiz,1),%edi

00102240 <irq_146>:
  102240:	e9 00 00 00 00       	jmp    102245 <irq_handler_146>

00102245 <irq_handler_146>:
  102245:	6a 00                	push   $0x0
  102247:	60                   	pusha  
  102248:	68 92 00 00 00       	push   $0x92
  10224d:	e8 86 10 00 00       	call   1032d8 <isr_146>
  102252:	e9 9d 0d 00 00       	jmp    102ff4 <handler_exit>
  102257:	89 f6                	mov    %esi,%esi
  102259:	8d bc 27 00 00 00 00 	lea    0x0(%edi,%eiz,1),%edi

00102260 <irq_147>:
  102260:	e9 00 00 00 00       	jmp    102265 <irq_handler_147>

00102265 <irq_handler_147>:
  102265:	6a 00                	push   $0x0
  102267:	60                   	pusha  
  102268:	68 93 00 00 00       	push   $0x93
  10226d:	e8 6b 10 00 00       	call   1032dd <isr_147>
  102272:	e9 7d 0d 00 00       	jmp    102ff4 <handler_exit>
  102277:	89 f6                	mov    %esi,%esi
  102279:	8d bc 27 00 00 00 00 	lea    0x0(%edi,%eiz,1),%edi

00102280 <irq_148>:
  102280:	e9 00 00 00 00       	jmp    102285 <irq_handler_148>

00102285 <irq_handler_148>:
  102285:	6a 00                	push   $0x0
  102287:	60                   	pusha  
  102288:	68 94 00 00 00       	push   $0x94
  10228d:	e8 50 10 00 00       	call   1032e2 <isr_148>
  102292:	e9 5d 0d 00 00       	jmp    102ff4 <handler_exit>
  102297:	89 f6                	mov    %esi,%esi
  102299:	8d bc 27 00 00 00 00 	lea    0x0(%edi,%eiz,1),%edi

001022a0 <irq_149>:
  1022a0:	e9 00 00 00 00       	jmp    1022a5 <irq_handler_149>

001022a5 <irq_handler_149>:
  1022a5:	6a 00                	push   $0x0
  1022a7:	60                   	pusha  
  1022a8:	68 95 00 00 00       	push   $0x95
  1022ad:	e8 35 10 00 00       	call   1032e7 <isr_149>
  1022b2:	e9 3d 0d 00 00       	jmp    102ff4 <handler_exit>
  1022b7:	89 f6                	mov    %esi,%esi
  1022b9:	8d bc 27 00 00 00 00 	lea    0x0(%edi,%eiz,1),%edi

001022c0 <irq_150>:
  1022c0:	e9 00 00 00 00       	jmp    1022c5 <irq_handler_150>

001022c5 <irq_handler_150>:
  1022c5:	6a 00                	push   $0x0
  1022c7:	60                   	pusha  
  1022c8:	68 96 00 00 00       	push   $0x96
  1022cd:	e8 1a 10 00 00       	call   1032ec <isr_150>
  1022d2:	e9 1d 0d 00 00       	jmp    102ff4 <handler_exit>
  1022d7:	89 f6                	mov    %esi,%esi
  1022d9:	8d bc 27 00 00 00 00 	lea    0x0(%edi,%eiz,1),%edi

001022e0 <irq_151>:
  1022e0:	e9 00 00 00 00       	jmp    1022e5 <irq_handler_151>

001022e5 <irq_handler_151>:
  1022e5:	6a 00                	push   $0x0
  1022e7:	60                   	pusha  
  1022e8:	68 97 00 00 00       	push   $0x97
  1022ed:	e8 ff 0f 00 00       	call   1032f1 <isr_151>
  1022f2:	e9 fd 0c 00 00       	jmp    102ff4 <handler_exit>
  1022f7:	89 f6                	mov    %esi,%esi
  1022f9:	8d bc 27 00 00 00 00 	lea    0x0(%edi,%eiz,1),%edi

00102300 <irq_152>:
  102300:	e9 00 00 00 00       	jmp    102305 <irq_handler_152>

00102305 <irq_handler_152>:
  102305:	6a 00                	push   $0x0
  102307:	60                   	pusha  
  102308:	68 98 00 00 00       	push   $0x98
  10230d:	e8 e4 0f 00 00       	call   1032f6 <isr_152>
  102312:	e9 dd 0c 00 00       	jmp    102ff4 <handler_exit>
  102317:	89 f6                	mov    %esi,%esi
  102319:	8d bc 27 00 00 00 00 	lea    0x0(%edi,%eiz,1),%edi

00102320 <irq_153>:
  102320:	e9 00 00 00 00       	jmp    102325 <irq_handler_153>

00102325 <irq_handler_153>:
  102325:	6a 00                	push   $0x0
  102327:	60                   	pusha  
  102328:	68 99 00 00 00       	push   $0x99
  10232d:	e8 c9 0f 00 00       	call   1032fb <isr_153>
  102332:	e9 bd 0c 00 00       	jmp    102ff4 <handler_exit>
  102337:	89 f6                	mov    %esi,%esi
  102339:	8d bc 27 00 00 00 00 	lea    0x0(%edi,%eiz,1),%edi

00102340 <irq_154>:
  102340:	e9 00 00 00 00       	jmp    102345 <irq_handler_154>

00102345 <irq_handler_154>:
  102345:	6a 00                	push   $0x0
  102347:	60                   	pusha  
  102348:	68 9a 00 00 00       	push   $0x9a
  10234d:	e8 ae 0f 00 00       	call   103300 <isr_154>
  102352:	e9 9d 0c 00 00       	jmp    102ff4 <handler_exit>
  102357:	89 f6                	mov    %esi,%esi
  102359:	8d bc 27 00 00 00 00 	lea    0x0(%edi,%eiz,1),%edi

00102360 <irq_155>:
  102360:	e9 00 00 00 00       	jmp    102365 <irq_handler_155>

00102365 <irq_handler_155>:
  102365:	6a 00                	push   $0x0
  102367:	60                   	pusha  
  102368:	68 9b 00 00 00       	push   $0x9b
  10236d:	e8 93 0f 00 00       	call   103305 <isr_155>
  102372:	e9 7d 0c 00 00       	jmp    102ff4 <handler_exit>
  102377:	89 f6                	mov    %esi,%esi
  102379:	8d bc 27 00 00 00 00 	lea    0x0(%edi,%eiz,1),%edi

00102380 <irq_156>:
  102380:	e9 00 00 00 00       	jmp    102385 <irq_handler_156>

00102385 <irq_handler_156>:
  102385:	6a 00                	push   $0x0
  102387:	60                   	pusha  
  102388:	68 9c 00 00 00       	push   $0x9c
  10238d:	e8 78 0f 00 00       	call   10330a <isr_156>
  102392:	e9 5d 0c 00 00       	jmp    102ff4 <handler_exit>
  102397:	89 f6                	mov    %esi,%esi
  102399:	8d bc 27 00 00 00 00 	lea    0x0(%edi,%eiz,1),%edi

001023a0 <irq_157>:
  1023a0:	e9 00 00 00 00       	jmp    1023a5 <irq_handler_157>

001023a5 <irq_handler_157>:
  1023a5:	6a 00                	push   $0x0
  1023a7:	60                   	pusha  
  1023a8:	68 9d 00 00 00       	push   $0x9d
  1023ad:	e8 5d 0f 00 00       	call   10330f <isr_157>
  1023b2:	e9 3d 0c 00 00       	jmp    102ff4 <handler_exit>
  1023b7:	89 f6                	mov    %esi,%esi
  1023b9:	8d bc 27 00 00 00 00 	lea    0x0(%edi,%eiz,1),%edi

001023c0 <irq_158>:
  1023c0:	e9 00 00 00 00       	jmp    1023c5 <irq_handler_158>

001023c5 <irq_handler_158>:
  1023c5:	6a 00                	push   $0x0
  1023c7:	60                   	pusha  
  1023c8:	68 9e 00 00 00       	push   $0x9e
  1023cd:	e8 42 0f 00 00       	call   103314 <isr_158>
  1023d2:	e9 1d 0c 00 00       	jmp    102ff4 <handler_exit>
  1023d7:	89 f6                	mov    %esi,%esi
  1023d9:	8d bc 27 00 00 00 00 	lea    0x0(%edi,%eiz,1),%edi

001023e0 <irq_159>:
  1023e0:	e9 00 00 00 00       	jmp    1023e5 <irq_handler_159>

001023e5 <irq_handler_159>:
  1023e5:	6a 00                	push   $0x0
  1023e7:	60                   	pusha  
  1023e8:	68 9f 00 00 00       	push   $0x9f
  1023ed:	e8 27 0f 00 00       	call   103319 <isr_159>
  1023f2:	e9 fd 0b 00 00       	jmp    102ff4 <handler_exit>
  1023f7:	89 f6                	mov    %esi,%esi
  1023f9:	8d bc 27 00 00 00 00 	lea    0x0(%edi,%eiz,1),%edi

00102400 <irq_160>:
  102400:	e9 00 00 00 00       	jmp    102405 <irq_handler_160>

00102405 <irq_handler_160>:
  102405:	6a 00                	push   $0x0
  102407:	60                   	pusha  
  102408:	68 a0 00 00 00       	push   $0xa0
  10240d:	e8 0c 0f 00 00       	call   10331e <isr_160>
  102412:	e9 dd 0b 00 00       	jmp    102ff4 <handler_exit>
  102417:	89 f6                	mov    %esi,%esi
  102419:	8d bc 27 00 00 00 00 	lea    0x0(%edi,%eiz,1),%edi

00102420 <irq_161>:
  102420:	e9 00 00 00 00       	jmp    102425 <irq_handler_161>

00102425 <irq_handler_161>:
  102425:	6a 00                	push   $0x0
  102427:	60                   	pusha  
  102428:	68 a1 00 00 00       	push   $0xa1
  10242d:	e8 f1 0e 00 00       	call   103323 <isr_161>
  102432:	e9 bd 0b 00 00       	jmp    102ff4 <handler_exit>
  102437:	89 f6                	mov    %esi,%esi
  102439:	8d bc 27 00 00 00 00 	lea    0x0(%edi,%eiz,1),%edi

00102440 <irq_162>:
  102440:	e9 00 00 00 00       	jmp    102445 <irq_handler_162>

00102445 <irq_handler_162>:
  102445:	6a 00                	push   $0x0
  102447:	60                   	pusha  
  102448:	68 a2 00 00 00       	push   $0xa2
  10244d:	e8 d6 0e 00 00       	call   103328 <isr_162>
  102452:	e9 9d 0b 00 00       	jmp    102ff4 <handler_exit>
  102457:	89 f6                	mov    %esi,%esi
  102459:	8d bc 27 00 00 00 00 	lea    0x0(%edi,%eiz,1),%edi

00102460 <irq_163>:
  102460:	e9 00 00 00 00       	jmp    102465 <irq_handler_163>

00102465 <irq_handler_163>:
  102465:	6a 00                	push   $0x0
  102467:	60                   	pusha  
  102468:	68 a3 00 00 00       	push   $0xa3
  10246d:	e8 bb 0e 00 00       	call   10332d <isr_163>
  102472:	e9 7d 0b 00 00       	jmp    102ff4 <handler_exit>
  102477:	89 f6                	mov    %esi,%esi
  102479:	8d bc 27 00 00 00 00 	lea    0x0(%edi,%eiz,1),%edi

00102480 <irq_164>:
  102480:	e9 00 00 00 00       	jmp    102485 <irq_handler_164>

00102485 <irq_handler_164>:
  102485:	6a 00                	push   $0x0
  102487:	60                   	pusha  
  102488:	68 a4 00 00 00       	push   $0xa4
  10248d:	e8 a0 0e 00 00       	call   103332 <isr_164>
  102492:	e9 5d 0b 00 00       	jmp    102ff4 <handler_exit>
  102497:	89 f6                	mov    %esi,%esi
  102499:	8d bc 27 00 00 00 00 	lea    0x0(%edi,%eiz,1),%edi

001024a0 <irq_165>:
  1024a0:	e9 00 00 00 00       	jmp    1024a5 <irq_handler_165>

001024a5 <irq_handler_165>:
  1024a5:	6a 00                	push   $0x0
  1024a7:	60                   	pusha  
  1024a8:	68 a5 00 00 00       	push   $0xa5
  1024ad:	e8 85 0e 00 00       	call   103337 <isr_165>
  1024b2:	e9 3d 0b 00 00       	jmp    102ff4 <handler_exit>
  1024b7:	89 f6                	mov    %esi,%esi
  1024b9:	8d bc 27 00 00 00 00 	lea    0x0(%edi,%eiz,1),%edi

001024c0 <irq_166>:
  1024c0:	e9 00 00 00 00       	jmp    1024c5 <irq_handler_166>

001024c5 <irq_handler_166>:
  1024c5:	6a 00                	push   $0x0
  1024c7:	60                   	pusha  
  1024c8:	68 a6 00 00 00       	push   $0xa6
  1024cd:	e8 6a 0e 00 00       	call   10333c <isr_166>
  1024d2:	e9 1d 0b 00 00       	jmp    102ff4 <handler_exit>
  1024d7:	89 f6                	mov    %esi,%esi
  1024d9:	8d bc 27 00 00 00 00 	lea    0x0(%edi,%eiz,1),%edi

001024e0 <irq_167>:
  1024e0:	e9 00 00 00 00       	jmp    1024e5 <irq_handler_167>

001024e5 <irq_handler_167>:
  1024e5:	6a 00                	push   $0x0
  1024e7:	60                   	pusha  
  1024e8:	68 a7 00 00 00       	push   $0xa7
  1024ed:	e8 4f 0e 00 00       	call   103341 <isr_167>
  1024f2:	e9 fd 0a 00 00       	jmp    102ff4 <handler_exit>
  1024f7:	89 f6                	mov    %esi,%esi
  1024f9:	8d bc 27 00 00 00 00 	lea    0x0(%edi,%eiz,1),%edi

00102500 <irq_168>:
  102500:	e9 00 00 00 00       	jmp    102505 <irq_handler_168>

00102505 <irq_handler_168>:
  102505:	6a 00                	push   $0x0
  102507:	60                   	pusha  
  102508:	68 a8 00 00 00       	push   $0xa8
  10250d:	e8 34 0e 00 00       	call   103346 <isr_168>
  102512:	e9 dd 0a 00 00       	jmp    102ff4 <handler_exit>
  102517:	89 f6                	mov    %esi,%esi
  102519:	8d bc 27 00 00 00 00 	lea    0x0(%edi,%eiz,1),%edi

00102520 <irq_169>:
  102520:	e9 00 00 00 00       	jmp    102525 <irq_handler_169>

00102525 <irq_handler_169>:
  102525:	6a 00                	push   $0x0
  102527:	60                   	pusha  
  102528:	68 a9 00 00 00       	push   $0xa9
  10252d:	e8 19 0e 00 00       	call   10334b <isr_169>
  102532:	e9 bd 0a 00 00       	jmp    102ff4 <handler_exit>
  102537:	89 f6                	mov    %esi,%esi
  102539:	8d bc 27 00 00 00 00 	lea    0x0(%edi,%eiz,1),%edi

00102540 <irq_170>:
  102540:	e9 00 00 00 00       	jmp    102545 <irq_handler_170>

00102545 <irq_handler_170>:
  102545:	6a 00                	push   $0x0
  102547:	60                   	pusha  
  102548:	68 aa 00 00 00       	push   $0xaa
  10254d:	e8 fe 0d 00 00       	call   103350 <isr_170>
  102552:	e9 9d 0a 00 00       	jmp    102ff4 <handler_exit>
  102557:	89 f6                	mov    %esi,%esi
  102559:	8d bc 27 00 00 00 00 	lea    0x0(%edi,%eiz,1),%edi

00102560 <irq_171>:
  102560:	e9 00 00 00 00       	jmp    102565 <irq_handler_171>

00102565 <irq_handler_171>:
  102565:	6a 00                	push   $0x0
  102567:	60                   	pusha  
  102568:	68 ab 00 00 00       	push   $0xab
  10256d:	e8 e3 0d 00 00       	call   103355 <isr_171>
  102572:	e9 7d 0a 00 00       	jmp    102ff4 <handler_exit>
  102577:	89 f6                	mov    %esi,%esi
  102579:	8d bc 27 00 00 00 00 	lea    0x0(%edi,%eiz,1),%edi

00102580 <irq_172>:
  102580:	e9 00 00 00 00       	jmp    102585 <irq_handler_172>

00102585 <irq_handler_172>:
  102585:	6a 00                	push   $0x0
  102587:	60                   	pusha  
  102588:	68 ac 00 00 00       	push   $0xac
  10258d:	e8 c8 0d 00 00       	call   10335a <isr_172>
  102592:	e9 5d 0a 00 00       	jmp    102ff4 <handler_exit>
  102597:	89 f6                	mov    %esi,%esi
  102599:	8d bc 27 00 00 00 00 	lea    0x0(%edi,%eiz,1),%edi

001025a0 <irq_173>:
  1025a0:	e9 00 00 00 00       	jmp    1025a5 <irq_handler_173>

001025a5 <irq_handler_173>:
  1025a5:	6a 00                	push   $0x0
  1025a7:	60                   	pusha  
  1025a8:	68 ad 00 00 00       	push   $0xad
  1025ad:	e8 ad 0d 00 00       	call   10335f <isr_173>
  1025b2:	e9 3d 0a 00 00       	jmp    102ff4 <handler_exit>
  1025b7:	89 f6                	mov    %esi,%esi
  1025b9:	8d bc 27 00 00 00 00 	lea    0x0(%edi,%eiz,1),%edi

001025c0 <irq_174>:
  1025c0:	e9 00 00 00 00       	jmp    1025c5 <irq_handler_174>

001025c5 <irq_handler_174>:
  1025c5:	6a 00                	push   $0x0
  1025c7:	60                   	pusha  
  1025c8:	68 ae 00 00 00       	push   $0xae
  1025cd:	e8 92 0d 00 00       	call   103364 <isr_174>
  1025d2:	e9 1d 0a 00 00       	jmp    102ff4 <handler_exit>
  1025d7:	89 f6                	mov    %esi,%esi
  1025d9:	8d bc 27 00 00 00 00 	lea    0x0(%edi,%eiz,1),%edi

001025e0 <irq_175>:
  1025e0:	e9 00 00 00 00       	jmp    1025e5 <irq_handler_175>

001025e5 <irq_handler_175>:
  1025e5:	6a 00                	push   $0x0
  1025e7:	60                   	pusha  
  1025e8:	68 af 00 00 00       	push   $0xaf
  1025ed:	e8 77 0d 00 00       	call   103369 <isr_175>
  1025f2:	e9 fd 09 00 00       	jmp    102ff4 <handler_exit>
  1025f7:	89 f6                	mov    %esi,%esi
  1025f9:	8d bc 27 00 00 00 00 	lea    0x0(%edi,%eiz,1),%edi

00102600 <irq_176>:
  102600:	e9 00 00 00 00       	jmp    102605 <irq_handler_176>

00102605 <irq_handler_176>:
  102605:	6a 00                	push   $0x0
  102607:	60                   	pusha  
  102608:	68 b0 00 00 00       	push   $0xb0
  10260d:	e8 5c 0d 00 00       	call   10336e <isr_176>
  102612:	e9 dd 09 00 00       	jmp    102ff4 <handler_exit>
  102617:	89 f6                	mov    %esi,%esi
  102619:	8d bc 27 00 00 00 00 	lea    0x0(%edi,%eiz,1),%edi

00102620 <irq_177>:
  102620:	e9 00 00 00 00       	jmp    102625 <irq_handler_177>

00102625 <irq_handler_177>:
  102625:	6a 00                	push   $0x0
  102627:	60                   	pusha  
  102628:	68 b1 00 00 00       	push   $0xb1
  10262d:	e8 41 0d 00 00       	call   103373 <isr_177>
  102632:	e9 bd 09 00 00       	jmp    102ff4 <handler_exit>
  102637:	89 f6                	mov    %esi,%esi
  102639:	8d bc 27 00 00 00 00 	lea    0x0(%edi,%eiz,1),%edi

00102640 <irq_178>:
  102640:	e9 00 00 00 00       	jmp    102645 <irq_handler_178>

00102645 <irq_handler_178>:
  102645:	6a 00                	push   $0x0
  102647:	60                   	pusha  
  102648:	68 b2 00 00 00       	push   $0xb2
  10264d:	e8 26 0d 00 00       	call   103378 <isr_178>
  102652:	e9 9d 09 00 00       	jmp    102ff4 <handler_exit>
  102657:	89 f6                	mov    %esi,%esi
  102659:	8d bc 27 00 00 00 00 	lea    0x0(%edi,%eiz,1),%edi

00102660 <irq_179>:
  102660:	e9 00 00 00 00       	jmp    102665 <irq_handler_179>

00102665 <irq_handler_179>:
  102665:	6a 00                	push   $0x0
  102667:	60                   	pusha  
  102668:	68 b3 00 00 00       	push   $0xb3
  10266d:	e8 0b 0d 00 00       	call   10337d <isr_179>
  102672:	e9 7d 09 00 00       	jmp    102ff4 <handler_exit>
  102677:	89 f6                	mov    %esi,%esi
  102679:	8d bc 27 00 00 00 00 	lea    0x0(%edi,%eiz,1),%edi

00102680 <irq_180>:
  102680:	e9 00 00 00 00       	jmp    102685 <irq_handler_180>

00102685 <irq_handler_180>:
  102685:	6a 00                	push   $0x0
  102687:	60                   	pusha  
  102688:	68 b4 00 00 00       	push   $0xb4
  10268d:	e8 f0 0c 00 00       	call   103382 <isr_180>
  102692:	e9 5d 09 00 00       	jmp    102ff4 <handler_exit>
  102697:	89 f6                	mov    %esi,%esi
  102699:	8d bc 27 00 00 00 00 	lea    0x0(%edi,%eiz,1),%edi

001026a0 <irq_181>:
  1026a0:	e9 00 00 00 00       	jmp    1026a5 <irq_handler_181>

001026a5 <irq_handler_181>:
  1026a5:	6a 00                	push   $0x0
  1026a7:	60                   	pusha  
  1026a8:	68 b5 00 00 00       	push   $0xb5
  1026ad:	e8 d5 0c 00 00       	call   103387 <isr_181>
  1026b2:	e9 3d 09 00 00       	jmp    102ff4 <handler_exit>
  1026b7:	89 f6                	mov    %esi,%esi
  1026b9:	8d bc 27 00 00 00 00 	lea    0x0(%edi,%eiz,1),%edi

001026c0 <irq_182>:
  1026c0:	e9 00 00 00 00       	jmp    1026c5 <irq_handler_182>

001026c5 <irq_handler_182>:
  1026c5:	6a 00                	push   $0x0
  1026c7:	60                   	pusha  
  1026c8:	68 b6 00 00 00       	push   $0xb6
  1026cd:	e8 ba 0c 00 00       	call   10338c <isr_182>
  1026d2:	e9 1d 09 00 00       	jmp    102ff4 <handler_exit>
  1026d7:	89 f6                	mov    %esi,%esi
  1026d9:	8d bc 27 00 00 00 00 	lea    0x0(%edi,%eiz,1),%edi

001026e0 <irq_183>:
  1026e0:	e9 00 00 00 00       	jmp    1026e5 <irq_handler_183>

001026e5 <irq_handler_183>:
  1026e5:	6a 00                	push   $0x0
  1026e7:	60                   	pusha  
  1026e8:	68 b7 00 00 00       	push   $0xb7
  1026ed:	e8 9f 0c 00 00       	call   103391 <isr_183>
  1026f2:	e9 fd 08 00 00       	jmp    102ff4 <handler_exit>
  1026f7:	89 f6                	mov    %esi,%esi
  1026f9:	8d bc 27 00 00 00 00 	lea    0x0(%edi,%eiz,1),%edi

00102700 <irq_184>:
  102700:	e9 00 00 00 00       	jmp    102705 <irq_handler_184>

00102705 <irq_handler_184>:
  102705:	6a 00                	push   $0x0
  102707:	60                   	pusha  
  102708:	68 b8 00 00 00       	push   $0xb8
  10270d:	e8 84 0c 00 00       	call   103396 <isr_184>
  102712:	e9 dd 08 00 00       	jmp    102ff4 <handler_exit>
  102717:	89 f6                	mov    %esi,%esi
  102719:	8d bc 27 00 00 00 00 	lea    0x0(%edi,%eiz,1),%edi

00102720 <irq_185>:
  102720:	e9 00 00 00 00       	jmp    102725 <irq_handler_185>

00102725 <irq_handler_185>:
  102725:	6a 00                	push   $0x0
  102727:	60                   	pusha  
  102728:	68 b9 00 00 00       	push   $0xb9
  10272d:	e8 69 0c 00 00       	call   10339b <isr_185>
  102732:	e9 bd 08 00 00       	jmp    102ff4 <handler_exit>
  102737:	89 f6                	mov    %esi,%esi
  102739:	8d bc 27 00 00 00 00 	lea    0x0(%edi,%eiz,1),%edi

00102740 <irq_186>:
  102740:	e9 00 00 00 00       	jmp    102745 <irq_handler_186>

00102745 <irq_handler_186>:
  102745:	6a 00                	push   $0x0
  102747:	60                   	pusha  
  102748:	68 ba 00 00 00       	push   $0xba
  10274d:	e8 4e 0c 00 00       	call   1033a0 <isr_186>
  102752:	e9 9d 08 00 00       	jmp    102ff4 <handler_exit>
  102757:	89 f6                	mov    %esi,%esi
  102759:	8d bc 27 00 00 00 00 	lea    0x0(%edi,%eiz,1),%edi

00102760 <irq_187>:
  102760:	e9 00 00 00 00       	jmp    102765 <irq_handler_187>

00102765 <irq_handler_187>:
  102765:	6a 00                	push   $0x0
  102767:	60                   	pusha  
  102768:	68 bb 00 00 00       	push   $0xbb
  10276d:	e8 33 0c 00 00       	call   1033a5 <isr_187>
  102772:	e9 7d 08 00 00       	jmp    102ff4 <handler_exit>
  102777:	89 f6                	mov    %esi,%esi
  102779:	8d bc 27 00 00 00 00 	lea    0x0(%edi,%eiz,1),%edi

00102780 <irq_188>:
  102780:	e9 00 00 00 00       	jmp    102785 <irq_handler_188>

00102785 <irq_handler_188>:
  102785:	6a 00                	push   $0x0
  102787:	60                   	pusha  
  102788:	68 bc 00 00 00       	push   $0xbc
  10278d:	e8 18 0c 00 00       	call   1033aa <isr_188>
  102792:	e9 5d 08 00 00       	jmp    102ff4 <handler_exit>
  102797:	89 f6                	mov    %esi,%esi
  102799:	8d bc 27 00 00 00 00 	lea    0x0(%edi,%eiz,1),%edi

001027a0 <irq_189>:
  1027a0:	e9 00 00 00 00       	jmp    1027a5 <irq_handler_189>

001027a5 <irq_handler_189>:
  1027a5:	6a 00                	push   $0x0
  1027a7:	60                   	pusha  
  1027a8:	68 bd 00 00 00       	push   $0xbd
  1027ad:	e8 fd 0b 00 00       	call   1033af <isr_189>
  1027b2:	e9 3d 08 00 00       	jmp    102ff4 <handler_exit>
  1027b7:	89 f6                	mov    %esi,%esi
  1027b9:	8d bc 27 00 00 00 00 	lea    0x0(%edi,%eiz,1),%edi

001027c0 <irq_190>:
  1027c0:	e9 00 00 00 00       	jmp    1027c5 <irq_handler_190>

001027c5 <irq_handler_190>:
  1027c5:	6a 00                	push   $0x0
  1027c7:	60                   	pusha  
  1027c8:	68 be 00 00 00       	push   $0xbe
  1027cd:	e8 e2 0b 00 00       	call   1033b4 <isr_190>
  1027d2:	e9 1d 08 00 00       	jmp    102ff4 <handler_exit>
  1027d7:	89 f6                	mov    %esi,%esi
  1027d9:	8d bc 27 00 00 00 00 	lea    0x0(%edi,%eiz,1),%edi

001027e0 <irq_191>:
  1027e0:	e9 00 00 00 00       	jmp    1027e5 <irq_handler_191>

001027e5 <irq_handler_191>:
  1027e5:	6a 00                	push   $0x0
  1027e7:	60                   	pusha  
  1027e8:	68 bf 00 00 00       	push   $0xbf
  1027ed:	e8 c7 0b 00 00       	call   1033b9 <isr_191>
  1027f2:	e9 fd 07 00 00       	jmp    102ff4 <handler_exit>
  1027f7:	89 f6                	mov    %esi,%esi
  1027f9:	8d bc 27 00 00 00 00 	lea    0x0(%edi,%eiz,1),%edi

00102800 <irq_192>:
  102800:	e9 00 00 00 00       	jmp    102805 <irq_handler_192>

00102805 <irq_handler_192>:
  102805:	6a 00                	push   $0x0
  102807:	60                   	pusha  
  102808:	68 c0 00 00 00       	push   $0xc0
  10280d:	e8 ac 0b 00 00       	call   1033be <isr_192>
  102812:	e9 dd 07 00 00       	jmp    102ff4 <handler_exit>
  102817:	89 f6                	mov    %esi,%esi
  102819:	8d bc 27 00 00 00 00 	lea    0x0(%edi,%eiz,1),%edi

00102820 <irq_193>:
  102820:	e9 00 00 00 00       	jmp    102825 <irq_handler_193>

00102825 <irq_handler_193>:
  102825:	6a 00                	push   $0x0
  102827:	60                   	pusha  
  102828:	68 c1 00 00 00       	push   $0xc1
  10282d:	e8 91 0b 00 00       	call   1033c3 <isr_193>
  102832:	e9 bd 07 00 00       	jmp    102ff4 <handler_exit>
  102837:	89 f6                	mov    %esi,%esi
  102839:	8d bc 27 00 00 00 00 	lea    0x0(%edi,%eiz,1),%edi

00102840 <irq_194>:
  102840:	e9 00 00 00 00       	jmp    102845 <irq_handler_194>

00102845 <irq_handler_194>:
  102845:	6a 00                	push   $0x0
  102847:	60                   	pusha  
  102848:	68 c2 00 00 00       	push   $0xc2
  10284d:	e8 76 0b 00 00       	call   1033c8 <isr_194>
  102852:	e9 9d 07 00 00       	jmp    102ff4 <handler_exit>
  102857:	89 f6                	mov    %esi,%esi
  102859:	8d bc 27 00 00 00 00 	lea    0x0(%edi,%eiz,1),%edi

00102860 <irq_195>:
  102860:	e9 00 00 00 00       	jmp    102865 <irq_handler_195>

00102865 <irq_handler_195>:
  102865:	6a 00                	push   $0x0
  102867:	60                   	pusha  
  102868:	68 c3 00 00 00       	push   $0xc3
  10286d:	e8 5b 0b 00 00       	call   1033cd <isr_195>
  102872:	e9 7d 07 00 00       	jmp    102ff4 <handler_exit>
  102877:	89 f6                	mov    %esi,%esi
  102879:	8d bc 27 00 00 00 00 	lea    0x0(%edi,%eiz,1),%edi

00102880 <irq_196>:
  102880:	e9 00 00 00 00       	jmp    102885 <irq_handler_196>

00102885 <irq_handler_196>:
  102885:	6a 00                	push   $0x0
  102887:	60                   	pusha  
  102888:	68 c4 00 00 00       	push   $0xc4
  10288d:	e8 40 0b 00 00       	call   1033d2 <isr_196>
  102892:	e9 5d 07 00 00       	jmp    102ff4 <handler_exit>
  102897:	89 f6                	mov    %esi,%esi
  102899:	8d bc 27 00 00 00 00 	lea    0x0(%edi,%eiz,1),%edi

001028a0 <irq_197>:
  1028a0:	e9 00 00 00 00       	jmp    1028a5 <irq_handler_197>

001028a5 <irq_handler_197>:
  1028a5:	6a 00                	push   $0x0
  1028a7:	60                   	pusha  
  1028a8:	68 c5 00 00 00       	push   $0xc5
  1028ad:	e8 25 0b 00 00       	call   1033d7 <isr_197>
  1028b2:	e9 3d 07 00 00       	jmp    102ff4 <handler_exit>
  1028b7:	89 f6                	mov    %esi,%esi
  1028b9:	8d bc 27 00 00 00 00 	lea    0x0(%edi,%eiz,1),%edi

001028c0 <irq_198>:
  1028c0:	e9 00 00 00 00       	jmp    1028c5 <irq_handler_198>

001028c5 <irq_handler_198>:
  1028c5:	6a 00                	push   $0x0
  1028c7:	60                   	pusha  
  1028c8:	68 c6 00 00 00       	push   $0xc6
  1028cd:	e8 0a 0b 00 00       	call   1033dc <isr_198>
  1028d2:	e9 1d 07 00 00       	jmp    102ff4 <handler_exit>
  1028d7:	89 f6                	mov    %esi,%esi
  1028d9:	8d bc 27 00 00 00 00 	lea    0x0(%edi,%eiz,1),%edi

001028e0 <irq_199>:
  1028e0:	e9 00 00 00 00       	jmp    1028e5 <irq_handler_199>

001028e5 <irq_handler_199>:
  1028e5:	6a 00                	push   $0x0
  1028e7:	60                   	pusha  
  1028e8:	68 c7 00 00 00       	push   $0xc7
  1028ed:	e8 ef 0a 00 00       	call   1033e1 <isr_199>
  1028f2:	e9 fd 06 00 00       	jmp    102ff4 <handler_exit>
  1028f7:	89 f6                	mov    %esi,%esi
  1028f9:	8d bc 27 00 00 00 00 	lea    0x0(%edi,%eiz,1),%edi

00102900 <irq_200>:
  102900:	e9 00 00 00 00       	jmp    102905 <irq_handler_200>

00102905 <irq_handler_200>:
  102905:	6a 00                	push   $0x0
  102907:	60                   	pusha  
  102908:	68 c8 00 00 00       	push   $0xc8
  10290d:	e8 d4 0a 00 00       	call   1033e6 <isr_200>
  102912:	e9 dd 06 00 00       	jmp    102ff4 <handler_exit>
  102917:	89 f6                	mov    %esi,%esi
  102919:	8d bc 27 00 00 00 00 	lea    0x0(%edi,%eiz,1),%edi

00102920 <irq_201>:
  102920:	e9 00 00 00 00       	jmp    102925 <irq_handler_201>

00102925 <irq_handler_201>:
  102925:	6a 00                	push   $0x0
  102927:	60                   	pusha  
  102928:	68 c9 00 00 00       	push   $0xc9
  10292d:	e8 b9 0a 00 00       	call   1033eb <isr_201>
  102932:	e9 bd 06 00 00       	jmp    102ff4 <handler_exit>
  102937:	89 f6                	mov    %esi,%esi
  102939:	8d bc 27 00 00 00 00 	lea    0x0(%edi,%eiz,1),%edi

00102940 <irq_202>:
  102940:	e9 00 00 00 00       	jmp    102945 <irq_handler_202>

00102945 <irq_handler_202>:
  102945:	6a 00                	push   $0x0
  102947:	60                   	pusha  
  102948:	68 ca 00 00 00       	push   $0xca
  10294d:	e8 9e 0a 00 00       	call   1033f0 <isr_202>
  102952:	e9 9d 06 00 00       	jmp    102ff4 <handler_exit>
  102957:	89 f6                	mov    %esi,%esi
  102959:	8d bc 27 00 00 00 00 	lea    0x0(%edi,%eiz,1),%edi

00102960 <irq_203>:
  102960:	e9 00 00 00 00       	jmp    102965 <irq_handler_203>

00102965 <irq_handler_203>:
  102965:	6a 00                	push   $0x0
  102967:	60                   	pusha  
  102968:	68 cb 00 00 00       	push   $0xcb
  10296d:	e8 83 0a 00 00       	call   1033f5 <isr_203>
  102972:	e9 7d 06 00 00       	jmp    102ff4 <handler_exit>
  102977:	89 f6                	mov    %esi,%esi
  102979:	8d bc 27 00 00 00 00 	lea    0x0(%edi,%eiz,1),%edi

00102980 <irq_204>:
  102980:	e9 00 00 00 00       	jmp    102985 <irq_handler_204>

00102985 <irq_handler_204>:
  102985:	6a 00                	push   $0x0
  102987:	60                   	pusha  
  102988:	68 cc 00 00 00       	push   $0xcc
  10298d:	e8 68 0a 00 00       	call   1033fa <isr_204>
  102992:	e9 5d 06 00 00       	jmp    102ff4 <handler_exit>
  102997:	89 f6                	mov    %esi,%esi
  102999:	8d bc 27 00 00 00 00 	lea    0x0(%edi,%eiz,1),%edi

001029a0 <irq_205>:
  1029a0:	e9 00 00 00 00       	jmp    1029a5 <irq_handler_205>

001029a5 <irq_handler_205>:
  1029a5:	6a 00                	push   $0x0
  1029a7:	60                   	pusha  
  1029a8:	68 cd 00 00 00       	push   $0xcd
  1029ad:	e8 4d 0a 00 00       	call   1033ff <isr_205>
  1029b2:	e9 3d 06 00 00       	jmp    102ff4 <handler_exit>
  1029b7:	89 f6                	mov    %esi,%esi
  1029b9:	8d bc 27 00 00 00 00 	lea    0x0(%edi,%eiz,1),%edi

001029c0 <irq_206>:
  1029c0:	e9 00 00 00 00       	jmp    1029c5 <irq_handler_206>

001029c5 <irq_handler_206>:
  1029c5:	6a 00                	push   $0x0
  1029c7:	60                   	pusha  
  1029c8:	68 ce 00 00 00       	push   $0xce
  1029cd:	e8 32 0a 00 00       	call   103404 <isr_206>
  1029d2:	e9 1d 06 00 00       	jmp    102ff4 <handler_exit>
  1029d7:	89 f6                	mov    %esi,%esi
  1029d9:	8d bc 27 00 00 00 00 	lea    0x0(%edi,%eiz,1),%edi

001029e0 <irq_207>:
  1029e0:	e9 00 00 00 00       	jmp    1029e5 <irq_handler_207>

001029e5 <irq_handler_207>:
  1029e5:	6a 00                	push   $0x0
  1029e7:	60                   	pusha  
  1029e8:	68 cf 00 00 00       	push   $0xcf
  1029ed:	e8 17 0a 00 00       	call   103409 <isr_207>
  1029f2:	e9 fd 05 00 00       	jmp    102ff4 <handler_exit>
  1029f7:	89 f6                	mov    %esi,%esi
  1029f9:	8d bc 27 00 00 00 00 	lea    0x0(%edi,%eiz,1),%edi

00102a00 <irq_208>:
  102a00:	e9 00 00 00 00       	jmp    102a05 <irq_handler_208>

00102a05 <irq_handler_208>:
  102a05:	6a 00                	push   $0x0
  102a07:	60                   	pusha  
  102a08:	68 d0 00 00 00       	push   $0xd0
  102a0d:	e8 fc 09 00 00       	call   10340e <isr_208>
  102a12:	e9 dd 05 00 00       	jmp    102ff4 <handler_exit>
  102a17:	89 f6                	mov    %esi,%esi
  102a19:	8d bc 27 00 00 00 00 	lea    0x0(%edi,%eiz,1),%edi

00102a20 <irq_209>:
  102a20:	e9 00 00 00 00       	jmp    102a25 <irq_handler_209>

00102a25 <irq_handler_209>:
  102a25:	6a 00                	push   $0x0
  102a27:	60                   	pusha  
  102a28:	68 d1 00 00 00       	push   $0xd1
  102a2d:	e8 e1 09 00 00       	call   103413 <isr_209>
  102a32:	e9 bd 05 00 00       	jmp    102ff4 <handler_exit>
  102a37:	89 f6                	mov    %esi,%esi
  102a39:	8d bc 27 00 00 00 00 	lea    0x0(%edi,%eiz,1),%edi

00102a40 <irq_210>:
  102a40:	e9 00 00 00 00       	jmp    102a45 <irq_handler_210>

00102a45 <irq_handler_210>:
  102a45:	6a 00                	push   $0x0
  102a47:	60                   	pusha  
  102a48:	68 d2 00 00 00       	push   $0xd2
  102a4d:	e8 c6 09 00 00       	call   103418 <isr_210>
  102a52:	e9 9d 05 00 00       	jmp    102ff4 <handler_exit>
  102a57:	89 f6                	mov    %esi,%esi
  102a59:	8d bc 27 00 00 00 00 	lea    0x0(%edi,%eiz,1),%edi

00102a60 <irq_211>:
  102a60:	e9 00 00 00 00       	jmp    102a65 <irq_handler_211>

00102a65 <irq_handler_211>:
  102a65:	6a 00                	push   $0x0
  102a67:	60                   	pusha  
  102a68:	68 d3 00 00 00       	push   $0xd3
  102a6d:	e8 ab 09 00 00       	call   10341d <isr_211>
  102a72:	e9 7d 05 00 00       	jmp    102ff4 <handler_exit>
  102a77:	89 f6                	mov    %esi,%esi
  102a79:	8d bc 27 00 00 00 00 	lea    0x0(%edi,%eiz,1),%edi

00102a80 <irq_212>:
  102a80:	e9 00 00 00 00       	jmp    102a85 <irq_handler_212>

00102a85 <irq_handler_212>:
  102a85:	6a 00                	push   $0x0
  102a87:	60                   	pusha  
  102a88:	68 d4 00 00 00       	push   $0xd4
  102a8d:	e8 90 09 00 00       	call   103422 <isr_212>
  102a92:	e9 5d 05 00 00       	jmp    102ff4 <handler_exit>
  102a97:	89 f6                	mov    %esi,%esi
  102a99:	8d bc 27 00 00 00 00 	lea    0x0(%edi,%eiz,1),%edi

00102aa0 <irq_213>:
  102aa0:	e9 00 00 00 00       	jmp    102aa5 <irq_handler_213>

00102aa5 <irq_handler_213>:
  102aa5:	6a 00                	push   $0x0
  102aa7:	60                   	pusha  
  102aa8:	68 d5 00 00 00       	push   $0xd5
  102aad:	e8 75 09 00 00       	call   103427 <isr_213>
  102ab2:	e9 3d 05 00 00       	jmp    102ff4 <handler_exit>
  102ab7:	89 f6                	mov    %esi,%esi
  102ab9:	8d bc 27 00 00 00 00 	lea    0x0(%edi,%eiz,1),%edi

00102ac0 <irq_214>:
  102ac0:	e9 00 00 00 00       	jmp    102ac5 <irq_handler_214>

00102ac5 <irq_handler_214>:
  102ac5:	6a 00                	push   $0x0
  102ac7:	60                   	pusha  
  102ac8:	68 d6 00 00 00       	push   $0xd6
  102acd:	e8 5a 09 00 00       	call   10342c <isr_214>
  102ad2:	e9 1d 05 00 00       	jmp    102ff4 <handler_exit>
  102ad7:	89 f6                	mov    %esi,%esi
  102ad9:	8d bc 27 00 00 00 00 	lea    0x0(%edi,%eiz,1),%edi

00102ae0 <irq_215>:
  102ae0:	e9 00 00 00 00       	jmp    102ae5 <irq_handler_215>

00102ae5 <irq_handler_215>:
  102ae5:	6a 00                	push   $0x0
  102ae7:	60                   	pusha  
  102ae8:	68 d7 00 00 00       	push   $0xd7
  102aed:	e8 3f 09 00 00       	call   103431 <isr_215>
  102af2:	e9 fd 04 00 00       	jmp    102ff4 <handler_exit>
  102af7:	89 f6                	mov    %esi,%esi
  102af9:	8d bc 27 00 00 00 00 	lea    0x0(%edi,%eiz,1),%edi

00102b00 <irq_216>:
  102b00:	e9 00 00 00 00       	jmp    102b05 <irq_handler_216>

00102b05 <irq_handler_216>:
  102b05:	6a 00                	push   $0x0
  102b07:	60                   	pusha  
  102b08:	68 d8 00 00 00       	push   $0xd8
  102b0d:	e8 24 09 00 00       	call   103436 <isr_216>
  102b12:	e9 dd 04 00 00       	jmp    102ff4 <handler_exit>
  102b17:	89 f6                	mov    %esi,%esi
  102b19:	8d bc 27 00 00 00 00 	lea    0x0(%edi,%eiz,1),%edi

00102b20 <irq_217>:
  102b20:	e9 00 00 00 00       	jmp    102b25 <irq_handler_217>

00102b25 <irq_handler_217>:
  102b25:	6a 00                	push   $0x0
  102b27:	60                   	pusha  
  102b28:	68 d9 00 00 00       	push   $0xd9
  102b2d:	e8 09 09 00 00       	call   10343b <isr_217>
  102b32:	e9 bd 04 00 00       	jmp    102ff4 <handler_exit>
  102b37:	89 f6                	mov    %esi,%esi
  102b39:	8d bc 27 00 00 00 00 	lea    0x0(%edi,%eiz,1),%edi

00102b40 <irq_218>:
  102b40:	e9 00 00 00 00       	jmp    102b45 <irq_handler_218>

00102b45 <irq_handler_218>:
  102b45:	6a 00                	push   $0x0
  102b47:	60                   	pusha  
  102b48:	68 da 00 00 00       	push   $0xda
  102b4d:	e8 ee 08 00 00       	call   103440 <isr_218>
  102b52:	e9 9d 04 00 00       	jmp    102ff4 <handler_exit>
  102b57:	89 f6                	mov    %esi,%esi
  102b59:	8d bc 27 00 00 00 00 	lea    0x0(%edi,%eiz,1),%edi

00102b60 <irq_219>:
  102b60:	e9 00 00 00 00       	jmp    102b65 <irq_handler_219>

00102b65 <irq_handler_219>:
  102b65:	6a 00                	push   $0x0
  102b67:	60                   	pusha  
  102b68:	68 db 00 00 00       	push   $0xdb
  102b6d:	e8 d3 08 00 00       	call   103445 <isr_219>
  102b72:	e9 7d 04 00 00       	jmp    102ff4 <handler_exit>
  102b77:	89 f6                	mov    %esi,%esi
  102b79:	8d bc 27 00 00 00 00 	lea    0x0(%edi,%eiz,1),%edi

00102b80 <irq_220>:
  102b80:	e9 00 00 00 00       	jmp    102b85 <irq_handler_220>

00102b85 <irq_handler_220>:
  102b85:	6a 00                	push   $0x0
  102b87:	60                   	pusha  
  102b88:	68 dc 00 00 00       	push   $0xdc
  102b8d:	e8 b8 08 00 00       	call   10344a <isr_220>
  102b92:	e9 5d 04 00 00       	jmp    102ff4 <handler_exit>
  102b97:	89 f6                	mov    %esi,%esi
  102b99:	8d bc 27 00 00 00 00 	lea    0x0(%edi,%eiz,1),%edi

00102ba0 <irq_221>:
  102ba0:	e9 00 00 00 00       	jmp    102ba5 <irq_handler_221>

00102ba5 <irq_handler_221>:
  102ba5:	6a 00                	push   $0x0
  102ba7:	60                   	pusha  
  102ba8:	68 dd 00 00 00       	push   $0xdd
  102bad:	e8 9d 08 00 00       	call   10344f <isr_221>
  102bb2:	e9 3d 04 00 00       	jmp    102ff4 <handler_exit>
  102bb7:	89 f6                	mov    %esi,%esi
  102bb9:	8d bc 27 00 00 00 00 	lea    0x0(%edi,%eiz,1),%edi

00102bc0 <irq_222>:
  102bc0:	e9 00 00 00 00       	jmp    102bc5 <irq_handler_222>

00102bc5 <irq_handler_222>:
  102bc5:	6a 00                	push   $0x0
  102bc7:	60                   	pusha  
  102bc8:	68 de 00 00 00       	push   $0xde
  102bcd:	e8 82 08 00 00       	call   103454 <isr_222>
  102bd2:	e9 1d 04 00 00       	jmp    102ff4 <handler_exit>
  102bd7:	89 f6                	mov    %esi,%esi
  102bd9:	8d bc 27 00 00 00 00 	lea    0x0(%edi,%eiz,1),%edi

00102be0 <irq_223>:
  102be0:	e9 00 00 00 00       	jmp    102be5 <irq_handler_223>

00102be5 <irq_handler_223>:
  102be5:	6a 00                	push   $0x0
  102be7:	60                   	pusha  
  102be8:	68 df 00 00 00       	push   $0xdf
  102bed:	e8 67 08 00 00       	call   103459 <isr_223>
  102bf2:	e9 fd 03 00 00       	jmp    102ff4 <handler_exit>
  102bf7:	89 f6                	mov    %esi,%esi
  102bf9:	8d bc 27 00 00 00 00 	lea    0x0(%edi,%eiz,1),%edi

00102c00 <irq_224>:
  102c00:	e9 00 00 00 00       	jmp    102c05 <irq_handler_224>

00102c05 <irq_handler_224>:
  102c05:	6a 00                	push   $0x0
  102c07:	60                   	pusha  
  102c08:	68 e0 00 00 00       	push   $0xe0
  102c0d:	e8 4c 08 00 00       	call   10345e <isr_224>
  102c12:	e9 dd 03 00 00       	jmp    102ff4 <handler_exit>
  102c17:	89 f6                	mov    %esi,%esi
  102c19:	8d bc 27 00 00 00 00 	lea    0x0(%edi,%eiz,1),%edi

00102c20 <irq_225>:
  102c20:	e9 00 00 00 00       	jmp    102c25 <irq_handler_225>

00102c25 <irq_handler_225>:
  102c25:	6a 00                	push   $0x0
  102c27:	60                   	pusha  
  102c28:	68 e1 00 00 00       	push   $0xe1
  102c2d:	e8 31 08 00 00       	call   103463 <isr_225>
  102c32:	e9 bd 03 00 00       	jmp    102ff4 <handler_exit>
  102c37:	89 f6                	mov    %esi,%esi
  102c39:	8d bc 27 00 00 00 00 	lea    0x0(%edi,%eiz,1),%edi

00102c40 <irq_226>:
  102c40:	e9 00 00 00 00       	jmp    102c45 <irq_handler_226>

00102c45 <irq_handler_226>:
  102c45:	6a 00                	push   $0x0
  102c47:	60                   	pusha  
  102c48:	68 e2 00 00 00       	push   $0xe2
  102c4d:	e8 16 08 00 00       	call   103468 <isr_226>
  102c52:	e9 9d 03 00 00       	jmp    102ff4 <handler_exit>
  102c57:	89 f6                	mov    %esi,%esi
  102c59:	8d bc 27 00 00 00 00 	lea    0x0(%edi,%eiz,1),%edi

00102c60 <irq_227>:
  102c60:	e9 00 00 00 00       	jmp    102c65 <irq_handler_227>

00102c65 <irq_handler_227>:
  102c65:	6a 00                	push   $0x0
  102c67:	60                   	pusha  
  102c68:	68 e3 00 00 00       	push   $0xe3
  102c6d:	e8 fb 07 00 00       	call   10346d <isr_227>
  102c72:	e9 7d 03 00 00       	jmp    102ff4 <handler_exit>
  102c77:	89 f6                	mov    %esi,%esi
  102c79:	8d bc 27 00 00 00 00 	lea    0x0(%edi,%eiz,1),%edi

00102c80 <irq_228>:
  102c80:	e9 00 00 00 00       	jmp    102c85 <irq_handler_228>

00102c85 <irq_handler_228>:
  102c85:	6a 00                	push   $0x0
  102c87:	60                   	pusha  
  102c88:	68 e4 00 00 00       	push   $0xe4
  102c8d:	e8 e0 07 00 00       	call   103472 <isr_228>
  102c92:	e9 5d 03 00 00       	jmp    102ff4 <handler_exit>
  102c97:	89 f6                	mov    %esi,%esi
  102c99:	8d bc 27 00 00 00 00 	lea    0x0(%edi,%eiz,1),%edi

00102ca0 <irq_229>:
  102ca0:	e9 00 00 00 00       	jmp    102ca5 <irq_handler_229>

00102ca5 <irq_handler_229>:
  102ca5:	6a 00                	push   $0x0
  102ca7:	60                   	pusha  
  102ca8:	68 e5 00 00 00       	push   $0xe5
  102cad:	e8 c5 07 00 00       	call   103477 <isr_229>
  102cb2:	e9 3d 03 00 00       	jmp    102ff4 <handler_exit>
  102cb7:	89 f6                	mov    %esi,%esi
  102cb9:	8d bc 27 00 00 00 00 	lea    0x0(%edi,%eiz,1),%edi

00102cc0 <irq_230>:
  102cc0:	e9 00 00 00 00       	jmp    102cc5 <irq_handler_230>

00102cc5 <irq_handler_230>:
  102cc5:	6a 00                	push   $0x0
  102cc7:	60                   	pusha  
  102cc8:	68 e6 00 00 00       	push   $0xe6
  102ccd:	e8 aa 07 00 00       	call   10347c <isr_230>
  102cd2:	e9 1d 03 00 00       	jmp    102ff4 <handler_exit>
  102cd7:	89 f6                	mov    %esi,%esi
  102cd9:	8d bc 27 00 00 00 00 	lea    0x0(%edi,%eiz,1),%edi

00102ce0 <irq_231>:
  102ce0:	e9 00 00 00 00       	jmp    102ce5 <irq_handler_231>

00102ce5 <irq_handler_231>:
  102ce5:	6a 00                	push   $0x0
  102ce7:	60                   	pusha  
  102ce8:	68 e7 00 00 00       	push   $0xe7
  102ced:	e8 8f 07 00 00       	call   103481 <isr_231>
  102cf2:	e9 fd 02 00 00       	jmp    102ff4 <handler_exit>
  102cf7:	89 f6                	mov    %esi,%esi
  102cf9:	8d bc 27 00 00 00 00 	lea    0x0(%edi,%eiz,1),%edi

00102d00 <irq_232>:
  102d00:	e9 00 00 00 00       	jmp    102d05 <irq_handler_232>

00102d05 <irq_handler_232>:
  102d05:	6a 00                	push   $0x0
  102d07:	60                   	pusha  
  102d08:	68 e8 00 00 00       	push   $0xe8
  102d0d:	e8 74 07 00 00       	call   103486 <isr_232>
  102d12:	e9 dd 02 00 00       	jmp    102ff4 <handler_exit>
  102d17:	89 f6                	mov    %esi,%esi
  102d19:	8d bc 27 00 00 00 00 	lea    0x0(%edi,%eiz,1),%edi

00102d20 <irq_233>:
  102d20:	e9 00 00 00 00       	jmp    102d25 <irq_handler_233>

00102d25 <irq_handler_233>:
  102d25:	6a 00                	push   $0x0
  102d27:	60                   	pusha  
  102d28:	68 e9 00 00 00       	push   $0xe9
  102d2d:	e8 59 07 00 00       	call   10348b <isr_233>
  102d32:	e9 bd 02 00 00       	jmp    102ff4 <handler_exit>
  102d37:	89 f6                	mov    %esi,%esi
  102d39:	8d bc 27 00 00 00 00 	lea    0x0(%edi,%eiz,1),%edi

00102d40 <irq_234>:
  102d40:	e9 00 00 00 00       	jmp    102d45 <irq_handler_234>

00102d45 <irq_handler_234>:
  102d45:	6a 00                	push   $0x0
  102d47:	60                   	pusha  
  102d48:	68 ea 00 00 00       	push   $0xea
  102d4d:	e8 3e 07 00 00       	call   103490 <isr_234>
  102d52:	e9 9d 02 00 00       	jmp    102ff4 <handler_exit>
  102d57:	89 f6                	mov    %esi,%esi
  102d59:	8d bc 27 00 00 00 00 	lea    0x0(%edi,%eiz,1),%edi

00102d60 <irq_235>:
  102d60:	e9 00 00 00 00       	jmp    102d65 <irq_handler_235>

00102d65 <irq_handler_235>:
  102d65:	6a 00                	push   $0x0
  102d67:	60                   	pusha  
  102d68:	68 eb 00 00 00       	push   $0xeb
  102d6d:	e8 23 07 00 00       	call   103495 <isr_235>
  102d72:	e9 7d 02 00 00       	jmp    102ff4 <handler_exit>
  102d77:	89 f6                	mov    %esi,%esi
  102d79:	8d bc 27 00 00 00 00 	lea    0x0(%edi,%eiz,1),%edi

00102d80 <irq_236>:
  102d80:	e9 00 00 00 00       	jmp    102d85 <irq_handler_236>

00102d85 <irq_handler_236>:
  102d85:	6a 00                	push   $0x0
  102d87:	60                   	pusha  
  102d88:	68 ec 00 00 00       	push   $0xec
  102d8d:	e8 08 07 00 00       	call   10349a <isr_236>
  102d92:	e9 5d 02 00 00       	jmp    102ff4 <handler_exit>
  102d97:	89 f6                	mov    %esi,%esi
  102d99:	8d bc 27 00 00 00 00 	lea    0x0(%edi,%eiz,1),%edi

00102da0 <irq_237>:
  102da0:	e9 00 00 00 00       	jmp    102da5 <irq_handler_237>

00102da5 <irq_handler_237>:
  102da5:	6a 00                	push   $0x0
  102da7:	60                   	pusha  
  102da8:	68 ed 00 00 00       	push   $0xed
  102dad:	e8 ed 06 00 00       	call   10349f <isr_237>
  102db2:	e9 3d 02 00 00       	jmp    102ff4 <handler_exit>
  102db7:	89 f6                	mov    %esi,%esi
  102db9:	8d bc 27 00 00 00 00 	lea    0x0(%edi,%eiz,1),%edi

00102dc0 <irq_238>:
  102dc0:	e9 00 00 00 00       	jmp    102dc5 <irq_handler_238>

00102dc5 <irq_handler_238>:
  102dc5:	6a 00                	push   $0x0
  102dc7:	60                   	pusha  
  102dc8:	68 ee 00 00 00       	push   $0xee
  102dcd:	e8 d2 06 00 00       	call   1034a4 <isr_238>
  102dd2:	e9 1d 02 00 00       	jmp    102ff4 <handler_exit>
  102dd7:	89 f6                	mov    %esi,%esi
  102dd9:	8d bc 27 00 00 00 00 	lea    0x0(%edi,%eiz,1),%edi

00102de0 <irq_239>:
  102de0:	e9 00 00 00 00       	jmp    102de5 <irq_handler_239>

00102de5 <irq_handler_239>:
  102de5:	6a 00                	push   $0x0
  102de7:	60                   	pusha  
  102de8:	68 ef 00 00 00       	push   $0xef
  102ded:	e8 b7 06 00 00       	call   1034a9 <isr_239>
  102df2:	e9 fd 01 00 00       	jmp    102ff4 <handler_exit>
  102df7:	89 f6                	mov    %esi,%esi
  102df9:	8d bc 27 00 00 00 00 	lea    0x0(%edi,%eiz,1),%edi

00102e00 <irq_240>:
  102e00:	e9 00 00 00 00       	jmp    102e05 <irq_handler_240>

00102e05 <irq_handler_240>:
  102e05:	6a 00                	push   $0x0
  102e07:	60                   	pusha  
  102e08:	68 f0 00 00 00       	push   $0xf0
  102e0d:	e8 9c 06 00 00       	call   1034ae <isr_240>
  102e12:	e9 dd 01 00 00       	jmp    102ff4 <handler_exit>
  102e17:	89 f6                	mov    %esi,%esi
  102e19:	8d bc 27 00 00 00 00 	lea    0x0(%edi,%eiz,1),%edi

00102e20 <irq_241>:
  102e20:	e9 00 00 00 00       	jmp    102e25 <irq_handler_241>

00102e25 <irq_handler_241>:
  102e25:	6a 00                	push   $0x0
  102e27:	60                   	pusha  
  102e28:	68 f1 00 00 00       	push   $0xf1
  102e2d:	e8 81 06 00 00       	call   1034b3 <isr_241>
  102e32:	e9 bd 01 00 00       	jmp    102ff4 <handler_exit>
  102e37:	89 f6                	mov    %esi,%esi
  102e39:	8d bc 27 00 00 00 00 	lea    0x0(%edi,%eiz,1),%edi

00102e40 <irq_242>:
  102e40:	e9 00 00 00 00       	jmp    102e45 <irq_handler_242>

00102e45 <irq_handler_242>:
  102e45:	6a 00                	push   $0x0
  102e47:	60                   	pusha  
  102e48:	68 f2 00 00 00       	push   $0xf2
  102e4d:	e8 66 06 00 00       	call   1034b8 <isr_242>
  102e52:	e9 9d 01 00 00       	jmp    102ff4 <handler_exit>
  102e57:	89 f6                	mov    %esi,%esi
  102e59:	8d bc 27 00 00 00 00 	lea    0x0(%edi,%eiz,1),%edi

00102e60 <irq_243>:
  102e60:	e9 00 00 00 00       	jmp    102e65 <irq_handler_243>

00102e65 <irq_handler_243>:
  102e65:	6a 00                	push   $0x0
  102e67:	60                   	pusha  
  102e68:	68 f3 00 00 00       	push   $0xf3
  102e6d:	e8 4b 06 00 00       	call   1034bd <isr_243>
  102e72:	e9 7d 01 00 00       	jmp    102ff4 <handler_exit>
  102e77:	89 f6                	mov    %esi,%esi
  102e79:	8d bc 27 00 00 00 00 	lea    0x0(%edi,%eiz,1),%edi

00102e80 <irq_244>:
  102e80:	e9 00 00 00 00       	jmp    102e85 <irq_handler_244>

00102e85 <irq_handler_244>:
  102e85:	6a 00                	push   $0x0
  102e87:	60                   	pusha  
  102e88:	68 f4 00 00 00       	push   $0xf4
  102e8d:	e8 30 06 00 00       	call   1034c2 <isr_244>
  102e92:	e9 5d 01 00 00       	jmp    102ff4 <handler_exit>
  102e97:	89 f6                	mov    %esi,%esi
  102e99:	8d bc 27 00 00 00 00 	lea    0x0(%edi,%eiz,1),%edi

00102ea0 <irq_245>:
  102ea0:	e9 00 00 00 00       	jmp    102ea5 <irq_handler_245>

00102ea5 <irq_handler_245>:
  102ea5:	6a 00                	push   $0x0
  102ea7:	60                   	pusha  
  102ea8:	68 f5 00 00 00       	push   $0xf5
  102ead:	e8 15 06 00 00       	call   1034c7 <isr_245>
  102eb2:	e9 3d 01 00 00       	jmp    102ff4 <handler_exit>
  102eb7:	89 f6                	mov    %esi,%esi
  102eb9:	8d bc 27 00 00 00 00 	lea    0x0(%edi,%eiz,1),%edi

00102ec0 <irq_246>:
  102ec0:	e9 00 00 00 00       	jmp    102ec5 <irq_handler_246>

00102ec5 <irq_handler_246>:
  102ec5:	6a 00                	push   $0x0
  102ec7:	60                   	pusha  
  102ec8:	68 f6 00 00 00       	push   $0xf6
  102ecd:	e8 fa 05 00 00       	call   1034cc <isr_246>
  102ed2:	e9 1d 01 00 00       	jmp    102ff4 <handler_exit>
  102ed7:	89 f6                	mov    %esi,%esi
  102ed9:	8d bc 27 00 00 00 00 	lea    0x0(%edi,%eiz,1),%edi

00102ee0 <irq_247>:
  102ee0:	e9 00 00 00 00       	jmp    102ee5 <irq_handler_247>

00102ee5 <irq_handler_247>:
  102ee5:	6a 00                	push   $0x0
  102ee7:	60                   	pusha  
  102ee8:	68 f7 00 00 00       	push   $0xf7
  102eed:	e8 df 05 00 00       	call   1034d1 <isr_247>
  102ef2:	e9 fd 00 00 00       	jmp    102ff4 <handler_exit>
  102ef7:	89 f6                	mov    %esi,%esi
  102ef9:	8d bc 27 00 00 00 00 	lea    0x0(%edi,%eiz,1),%edi

00102f00 <irq_248>:
  102f00:	e9 00 00 00 00       	jmp    102f05 <irq_handler_248>

00102f05 <irq_handler_248>:
  102f05:	6a 00                	push   $0x0
  102f07:	60                   	pusha  
  102f08:	68 f8 00 00 00       	push   $0xf8
  102f0d:	e8 c4 05 00 00       	call   1034d6 <isr_248>
  102f12:	e9 dd 00 00 00       	jmp    102ff4 <handler_exit>
  102f17:	89 f6                	mov    %esi,%esi
  102f19:	8d bc 27 00 00 00 00 	lea    0x0(%edi,%eiz,1),%edi

00102f20 <irq_249>:
  102f20:	e9 00 00 00 00       	jmp    102f25 <irq_handler_249>

00102f25 <irq_handler_249>:
  102f25:	6a 00                	push   $0x0
  102f27:	60                   	pusha  
  102f28:	68 f9 00 00 00       	push   $0xf9
  102f2d:	e8 a9 05 00 00       	call   1034db <isr_249>
  102f32:	e9 bd 00 00 00       	jmp    102ff4 <handler_exit>
  102f37:	89 f6                	mov    %esi,%esi
  102f39:	8d bc 27 00 00 00 00 	lea    0x0(%edi,%eiz,1),%edi

00102f40 <irq_250>:
  102f40:	e9 00 00 00 00       	jmp    102f45 <irq_handler_250>

00102f45 <irq_handler_250>:
  102f45:	6a 00                	push   $0x0
  102f47:	60                   	pusha  
  102f48:	68 fa 00 00 00       	push   $0xfa
  102f4d:	e8 8e 05 00 00       	call   1034e0 <isr_250>
  102f52:	e9 9d 00 00 00       	jmp    102ff4 <handler_exit>
  102f57:	89 f6                	mov    %esi,%esi
  102f59:	8d bc 27 00 00 00 00 	lea    0x0(%edi,%eiz,1),%edi

00102f60 <irq_251>:
  102f60:	e9 00 00 00 00       	jmp    102f65 <irq_handler_251>

00102f65 <irq_handler_251>:
  102f65:	6a 00                	push   $0x0
  102f67:	60                   	pusha  
  102f68:	68 fb 00 00 00       	push   $0xfb
  102f6d:	e8 73 05 00 00       	call   1034e5 <isr_251>
  102f72:	e9 7d 00 00 00       	jmp    102ff4 <handler_exit>
  102f77:	89 f6                	mov    %esi,%esi
  102f79:	8d bc 27 00 00 00 00 	lea    0x0(%edi,%eiz,1),%edi

00102f80 <irq_252>:
  102f80:	e9 00 00 00 00       	jmp    102f85 <irq_handler_252>

00102f85 <irq_handler_252>:
  102f85:	6a 00                	push   $0x0
  102f87:	60                   	pusha  
  102f88:	68 fc 00 00 00       	push   $0xfc
  102f8d:	e8 58 05 00 00       	call   1034ea <isr_252>
  102f92:	eb 60                	jmp    102ff4 <handler_exit>
  102f94:	8d b6 00 00 00 00    	lea    0x0(%esi),%esi
  102f9a:	8d bf 00 00 00 00    	lea    0x0(%edi),%edi

00102fa0 <irq_253>:
  102fa0:	e9 00 00 00 00       	jmp    102fa5 <irq_handler_253>

00102fa5 <irq_handler_253>:
  102fa5:	6a 00                	push   $0x0
  102fa7:	60                   	pusha  
  102fa8:	68 fd 00 00 00       	push   $0xfd
  102fad:	e8 3d 05 00 00       	call   1034ef <isr_253>
  102fb2:	eb 40                	jmp    102ff4 <handler_exit>
  102fb4:	8d b6 00 00 00 00    	lea    0x0(%esi),%esi
  102fba:	8d bf 00 00 00 00    	lea    0x0(%edi),%edi

00102fc0 <irq_254>:
  102fc0:	e9 00 00 00 00       	jmp    102fc5 <irq_handler_254>

00102fc5 <irq_handler_254>:
  102fc5:	6a 00                	push   $0x0
  102fc7:	60                   	pusha  
  102fc8:	68 fe 00 00 00       	push   $0xfe
  102fcd:	e8 22 05 00 00       	call   1034f4 <isr_254>
  102fd2:	eb 20                	jmp    102ff4 <handler_exit>
  102fd4:	8d b6 00 00 00 00    	lea    0x0(%esi),%esi
  102fda:	8d bf 00 00 00 00    	lea    0x0(%edi),%edi

00102fe0 <irq_255>:
  102fe0:	e9 00 00 00 00       	jmp    102fe5 <irq_handler_255>

00102fe5 <irq_handler_255>:
  102fe5:	6a 00                	push   $0x0
  102fe7:	60                   	pusha  
  102fe8:	68 ff 00 00 00       	push   $0xff
  102fed:	e8 07 05 00 00       	call   1034f9 <isr_255>
  102ff2:	eb 00                	jmp    102ff4 <handler_exit>

00102ff4 <handler_exit>:
  102ff4:	83 c4 04             	add    $0x4,%esp
  102ff7:	61                   	popa   
  102ff8:	83 c4 04             	add    $0x4,%esp
  102ffb:	cf                   	iret   

00102ffc <irq_resume>:
  102ffc:	61                   	popa   
  102ffd:	c3                   	ret    

00102ffe <isr_0>:
  102ffe:	e9 57 15 00 00       	jmp    10455a <isr_unhandled>

00103003 <isr_1>:
  103003:	e9 52 15 00 00       	jmp    10455a <isr_unhandled>

00103008 <isr_2>:
  103008:	e9 4d 15 00 00       	jmp    10455a <isr_unhandled>

0010300d <isr_3>:
  10300d:	e9 48 15 00 00       	jmp    10455a <isr_unhandled>

00103012 <isr_4>:
  103012:	e9 43 15 00 00       	jmp    10455a <isr_unhandled>

00103017 <isr_5>:
  103017:	e9 3e 15 00 00       	jmp    10455a <isr_unhandled>

0010301c <isr_6>:
  10301c:	e9 39 15 00 00       	jmp    10455a <isr_unhandled>

00103021 <isr_7>:
  103021:	e9 34 15 00 00       	jmp    10455a <isr_unhandled>

00103026 <isr_8>:
  103026:	e9 2f 15 00 00       	jmp    10455a <isr_unhandled>

0010302b <isr_9>:
  10302b:	e9 2a 15 00 00       	jmp    10455a <isr_unhandled>

00103030 <isr_10>:
  103030:	e9 25 15 00 00       	jmp    10455a <isr_unhandled>

00103035 <isr_11>:
  103035:	e9 20 15 00 00       	jmp    10455a <isr_unhandled>

0010303a <isr_12>:
  10303a:	e9 1b 15 00 00       	jmp    10455a <isr_unhandled>

0010303f <isr_13>:
  10303f:	e9 16 15 00 00       	jmp    10455a <isr_unhandled>

00103044 <isr_14>:
  103044:	e9 11 15 00 00       	jmp    10455a <isr_unhandled>

00103049 <isr_15>:
  103049:	e9 0c 15 00 00       	jmp    10455a <isr_unhandled>

0010304e <isr_16>:
  10304e:	e9 07 15 00 00       	jmp    10455a <isr_unhandled>

00103053 <isr_17>:
  103053:	e9 02 15 00 00       	jmp    10455a <isr_unhandled>

00103058 <isr_18>:
  103058:	e9 fd 14 00 00       	jmp    10455a <isr_unhandled>

0010305d <isr_19>:
  10305d:	e9 f8 14 00 00       	jmp    10455a <isr_unhandled>

00103062 <isr_20>:
  103062:	e9 f3 14 00 00       	jmp    10455a <isr_unhandled>

00103067 <isr_21>:
  103067:	e9 ee 14 00 00       	jmp    10455a <isr_unhandled>

0010306c <isr_22>:
  10306c:	e9 e9 14 00 00       	jmp    10455a <isr_unhandled>

00103071 <isr_23>:
  103071:	e9 e4 14 00 00       	jmp    10455a <isr_unhandled>

00103076 <isr_24>:
  103076:	e9 df 14 00 00       	jmp    10455a <isr_unhandled>

0010307b <isr_25>:
  10307b:	e9 da 14 00 00       	jmp    10455a <isr_unhandled>

00103080 <isr_26>:
  103080:	e9 d5 14 00 00       	jmp    10455a <isr_unhandled>

00103085 <isr_27>:
  103085:	e9 d0 14 00 00       	jmp    10455a <isr_unhandled>

0010308a <isr_28>:
  10308a:	e9 cb 14 00 00       	jmp    10455a <isr_unhandled>

0010308f <isr_29>:
  10308f:	e9 c6 14 00 00       	jmp    10455a <isr_unhandled>

00103094 <isr_30>:
  103094:	e9 c1 14 00 00       	jmp    10455a <isr_unhandled>

00103099 <isr_31>:
  103099:	e9 bc 14 00 00       	jmp    10455a <isr_unhandled>

0010309e <isr_32>:
  10309e:	e9 b7 14 00 00       	jmp    10455a <isr_unhandled>

001030a3 <isr_33>:
  1030a3:	e9 b2 14 00 00       	jmp    10455a <isr_unhandled>

001030a8 <isr_34>:
  1030a8:	e9 ad 14 00 00       	jmp    10455a <isr_unhandled>

001030ad <isr_35>:
  1030ad:	e9 a8 14 00 00       	jmp    10455a <isr_unhandled>

001030b2 <isr_36>:
  1030b2:	e9 a3 14 00 00       	jmp    10455a <isr_unhandled>

001030b7 <isr_37>:
  1030b7:	e9 9e 14 00 00       	jmp    10455a <isr_unhandled>

001030bc <isr_38>:
  1030bc:	e9 99 14 00 00       	jmp    10455a <isr_unhandled>

001030c1 <isr_39>:
  1030c1:	e9 94 14 00 00       	jmp    10455a <isr_unhandled>

001030c6 <isr_40>:
  1030c6:	e9 8f 14 00 00       	jmp    10455a <isr_unhandled>

001030cb <isr_41>:
  1030cb:	e9 8a 14 00 00       	jmp    10455a <isr_unhandled>

001030d0 <isr_42>:
  1030d0:	e9 85 14 00 00       	jmp    10455a <isr_unhandled>

001030d5 <isr_43>:
  1030d5:	e9 80 14 00 00       	jmp    10455a <isr_unhandled>

001030da <isr_44>:
  1030da:	e9 7b 14 00 00       	jmp    10455a <isr_unhandled>

001030df <isr_45>:
  1030df:	e9 76 14 00 00       	jmp    10455a <isr_unhandled>

001030e4 <isr_46>:
  1030e4:	e9 71 14 00 00       	jmp    10455a <isr_unhandled>

001030e9 <isr_47>:
  1030e9:	e9 6c 14 00 00       	jmp    10455a <isr_unhandled>

001030ee <isr_48>:
  1030ee:	e9 67 14 00 00       	jmp    10455a <isr_unhandled>

001030f3 <isr_49>:
  1030f3:	e9 62 14 00 00       	jmp    10455a <isr_unhandled>

001030f8 <isr_50>:
  1030f8:	e9 5d 14 00 00       	jmp    10455a <isr_unhandled>

001030fd <isr_51>:
  1030fd:	e9 58 14 00 00       	jmp    10455a <isr_unhandled>

00103102 <isr_52>:
  103102:	e9 53 14 00 00       	jmp    10455a <isr_unhandled>

00103107 <isr_53>:
  103107:	e9 4e 14 00 00       	jmp    10455a <isr_unhandled>

0010310c <isr_54>:
  10310c:	e9 49 14 00 00       	jmp    10455a <isr_unhandled>

00103111 <isr_55>:
  103111:	e9 44 14 00 00       	jmp    10455a <isr_unhandled>

00103116 <isr_56>:
  103116:	e9 3f 14 00 00       	jmp    10455a <isr_unhandled>

0010311b <isr_57>:
  10311b:	e9 3a 14 00 00       	jmp    10455a <isr_unhandled>

00103120 <isr_58>:
  103120:	e9 35 14 00 00       	jmp    10455a <isr_unhandled>

00103125 <isr_59>:
  103125:	e9 30 14 00 00       	jmp    10455a <isr_unhandled>

0010312a <isr_60>:
  10312a:	e9 2b 14 00 00       	jmp    10455a <isr_unhandled>

0010312f <isr_61>:
  10312f:	e9 26 14 00 00       	jmp    10455a <isr_unhandled>

00103134 <isr_62>:
  103134:	e9 21 14 00 00       	jmp    10455a <isr_unhandled>

00103139 <isr_63>:
  103139:	e9 1c 14 00 00       	jmp    10455a <isr_unhandled>

0010313e <isr_64>:
  10313e:	e9 17 14 00 00       	jmp    10455a <isr_unhandled>

00103143 <isr_65>:
  103143:	e9 12 14 00 00       	jmp    10455a <isr_unhandled>

00103148 <isr_66>:
  103148:	e9 0d 14 00 00       	jmp    10455a <isr_unhandled>

0010314d <isr_67>:
  10314d:	e9 08 14 00 00       	jmp    10455a <isr_unhandled>

00103152 <isr_68>:
  103152:	e9 03 14 00 00       	jmp    10455a <isr_unhandled>

00103157 <isr_69>:
  103157:	e9 fe 13 00 00       	jmp    10455a <isr_unhandled>

0010315c <isr_70>:
  10315c:	e9 f9 13 00 00       	jmp    10455a <isr_unhandled>

00103161 <isr_71>:
  103161:	e9 f4 13 00 00       	jmp    10455a <isr_unhandled>

00103166 <isr_72>:
  103166:	e9 ef 13 00 00       	jmp    10455a <isr_unhandled>

0010316b <isr_73>:
  10316b:	e9 ea 13 00 00       	jmp    10455a <isr_unhandled>

00103170 <isr_74>:
  103170:	e9 e5 13 00 00       	jmp    10455a <isr_unhandled>

00103175 <isr_75>:
  103175:	e9 e0 13 00 00       	jmp    10455a <isr_unhandled>

0010317a <isr_76>:
  10317a:	e9 db 13 00 00       	jmp    10455a <isr_unhandled>

0010317f <isr_77>:
  10317f:	e9 d6 13 00 00       	jmp    10455a <isr_unhandled>

00103184 <isr_78>:
  103184:	e9 d1 13 00 00       	jmp    10455a <isr_unhandled>

00103189 <isr_79>:
  103189:	e9 cc 13 00 00       	jmp    10455a <isr_unhandled>

0010318e <isr_80>:
  10318e:	e9 c7 13 00 00       	jmp    10455a <isr_unhandled>

00103193 <isr_81>:
  103193:	e9 c2 13 00 00       	jmp    10455a <isr_unhandled>

00103198 <isr_82>:
  103198:	e9 bd 13 00 00       	jmp    10455a <isr_unhandled>

0010319d <isr_83>:
  10319d:	e9 b8 13 00 00       	jmp    10455a <isr_unhandled>

001031a2 <isr_84>:
  1031a2:	e9 b3 13 00 00       	jmp    10455a <isr_unhandled>

001031a7 <isr_85>:
  1031a7:	e9 ae 13 00 00       	jmp    10455a <isr_unhandled>

001031ac <isr_86>:
  1031ac:	e9 a9 13 00 00       	jmp    10455a <isr_unhandled>

001031b1 <isr_87>:
  1031b1:	e9 a4 13 00 00       	jmp    10455a <isr_unhandled>

001031b6 <isr_88>:
  1031b6:	e9 9f 13 00 00       	jmp    10455a <isr_unhandled>

001031bb <isr_89>:
  1031bb:	e9 9a 13 00 00       	jmp    10455a <isr_unhandled>

001031c0 <isr_90>:
  1031c0:	e9 95 13 00 00       	jmp    10455a <isr_unhandled>

001031c5 <isr_91>:
  1031c5:	e9 90 13 00 00       	jmp    10455a <isr_unhandled>

001031ca <isr_92>:
  1031ca:	e9 8b 13 00 00       	jmp    10455a <isr_unhandled>

001031cf <isr_93>:
  1031cf:	e9 86 13 00 00       	jmp    10455a <isr_unhandled>

001031d4 <isr_94>:
  1031d4:	e9 81 13 00 00       	jmp    10455a <isr_unhandled>

001031d9 <isr_95>:
  1031d9:	e9 7c 13 00 00       	jmp    10455a <isr_unhandled>

001031de <isr_96>:
  1031de:	e9 77 13 00 00       	jmp    10455a <isr_unhandled>

001031e3 <isr_97>:
  1031e3:	e9 72 13 00 00       	jmp    10455a <isr_unhandled>

001031e8 <isr_98>:
  1031e8:	e9 6d 13 00 00       	jmp    10455a <isr_unhandled>

001031ed <isr_99>:
  1031ed:	e9 68 13 00 00       	jmp    10455a <isr_unhandled>

001031f2 <isr_100>:
  1031f2:	e9 63 13 00 00       	jmp    10455a <isr_unhandled>

001031f7 <isr_101>:
  1031f7:	e9 5e 13 00 00       	jmp    10455a <isr_unhandled>

001031fc <isr_102>:
  1031fc:	e9 59 13 00 00       	jmp    10455a <isr_unhandled>

00103201 <isr_103>:
  103201:	e9 54 13 00 00       	jmp    10455a <isr_unhandled>

00103206 <isr_104>:
  103206:	e9 4f 13 00 00       	jmp    10455a <isr_unhandled>

0010320b <isr_105>:
  10320b:	e9 4a 13 00 00       	jmp    10455a <isr_unhandled>

00103210 <isr_106>:
  103210:	e9 45 13 00 00       	jmp    10455a <isr_unhandled>

00103215 <isr_107>:
  103215:	e9 40 13 00 00       	jmp    10455a <isr_unhandled>

0010321a <isr_108>:
  10321a:	e9 3b 13 00 00       	jmp    10455a <isr_unhandled>

0010321f <isr_109>:
  10321f:	e9 36 13 00 00       	jmp    10455a <isr_unhandled>

00103224 <isr_110>:
  103224:	e9 31 13 00 00       	jmp    10455a <isr_unhandled>

00103229 <isr_111>:
  103229:	e9 2c 13 00 00       	jmp    10455a <isr_unhandled>

0010322e <isr_112>:
  10322e:	e9 27 13 00 00       	jmp    10455a <isr_unhandled>

00103233 <isr_113>:
  103233:	e9 22 13 00 00       	jmp    10455a <isr_unhandled>

00103238 <isr_114>:
  103238:	e9 1d 13 00 00       	jmp    10455a <isr_unhandled>

0010323d <isr_115>:
  10323d:	e9 18 13 00 00       	jmp    10455a <isr_unhandled>

00103242 <isr_116>:
  103242:	e9 13 13 00 00       	jmp    10455a <isr_unhandled>

00103247 <isr_117>:
  103247:	e9 0e 13 00 00       	jmp    10455a <isr_unhandled>

0010324c <isr_118>:
  10324c:	e9 09 13 00 00       	jmp    10455a <isr_unhandled>

00103251 <isr_119>:
  103251:	e9 04 13 00 00       	jmp    10455a <isr_unhandled>

00103256 <isr_120>:
  103256:	e9 ff 12 00 00       	jmp    10455a <isr_unhandled>

0010325b <isr_121>:
  10325b:	e9 fa 12 00 00       	jmp    10455a <isr_unhandled>

00103260 <isr_122>:
  103260:	e9 f5 12 00 00       	jmp    10455a <isr_unhandled>

00103265 <isr_123>:
  103265:	e9 f0 12 00 00       	jmp    10455a <isr_unhandled>

0010326a <isr_124>:
  10326a:	e9 eb 12 00 00       	jmp    10455a <isr_unhandled>

0010326f <isr_125>:
  10326f:	e9 e6 12 00 00       	jmp    10455a <isr_unhandled>

00103274 <isr_126>:
  103274:	e9 e1 12 00 00       	jmp    10455a <isr_unhandled>

00103279 <isr_127>:
  103279:	e9 dc 12 00 00       	jmp    10455a <isr_unhandled>

0010327e <isr_128>:
  10327e:	e9 d7 12 00 00       	jmp    10455a <isr_unhandled>

00103283 <isr_129>:
  103283:	e9 d2 12 00 00       	jmp    10455a <isr_unhandled>

00103288 <isr_130>:
  103288:	e9 cd 12 00 00       	jmp    10455a <isr_unhandled>

0010328d <isr_131>:
  10328d:	e9 c8 12 00 00       	jmp    10455a <isr_unhandled>

00103292 <isr_132>:
  103292:	e9 c3 12 00 00       	jmp    10455a <isr_unhandled>

00103297 <isr_133>:
  103297:	e9 be 12 00 00       	jmp    10455a <isr_unhandled>

0010329c <isr_134>:
  10329c:	e9 b9 12 00 00       	jmp    10455a <isr_unhandled>

001032a1 <isr_135>:
  1032a1:	e9 b4 12 00 00       	jmp    10455a <isr_unhandled>

001032a6 <isr_136>:
  1032a6:	e9 af 12 00 00       	jmp    10455a <isr_unhandled>

001032ab <isr_137>:
  1032ab:	e9 aa 12 00 00       	jmp    10455a <isr_unhandled>

001032b0 <isr_138>:
  1032b0:	e9 a5 12 00 00       	jmp    10455a <isr_unhandled>

001032b5 <isr_139>:
  1032b5:	e9 a0 12 00 00       	jmp    10455a <isr_unhandled>

001032ba <isr_140>:
  1032ba:	e9 9b 12 00 00       	jmp    10455a <isr_unhandled>

001032bf <isr_141>:
  1032bf:	e9 96 12 00 00       	jmp    10455a <isr_unhandled>

001032c4 <isr_142>:
  1032c4:	e9 91 12 00 00       	jmp    10455a <isr_unhandled>

001032c9 <isr_143>:
  1032c9:	e9 8c 12 00 00       	jmp    10455a <isr_unhandled>

001032ce <isr_144>:
  1032ce:	e9 87 12 00 00       	jmp    10455a <isr_unhandled>

001032d3 <isr_145>:
  1032d3:	e9 82 12 00 00       	jmp    10455a <isr_unhandled>

001032d8 <isr_146>:
  1032d8:	e9 7d 12 00 00       	jmp    10455a <isr_unhandled>

001032dd <isr_147>:
  1032dd:	e9 78 12 00 00       	jmp    10455a <isr_unhandled>

001032e2 <isr_148>:
  1032e2:	e9 73 12 00 00       	jmp    10455a <isr_unhandled>

001032e7 <isr_149>:
  1032e7:	e9 6e 12 00 00       	jmp    10455a <isr_unhandled>

001032ec <isr_150>:
  1032ec:	e9 69 12 00 00       	jmp    10455a <isr_unhandled>

001032f1 <isr_151>:
  1032f1:	e9 64 12 00 00       	jmp    10455a <isr_unhandled>

001032f6 <isr_152>:
  1032f6:	e9 5f 12 00 00       	jmp    10455a <isr_unhandled>

001032fb <isr_153>:
  1032fb:	e9 5a 12 00 00       	jmp    10455a <isr_unhandled>

00103300 <isr_154>:
  103300:	e9 55 12 00 00       	jmp    10455a <isr_unhandled>

00103305 <isr_155>:
  103305:	e9 50 12 00 00       	jmp    10455a <isr_unhandled>

0010330a <isr_156>:
  10330a:	e9 4b 12 00 00       	jmp    10455a <isr_unhandled>

0010330f <isr_157>:
  10330f:	e9 46 12 00 00       	jmp    10455a <isr_unhandled>

00103314 <isr_158>:
  103314:	e9 41 12 00 00       	jmp    10455a <isr_unhandled>

00103319 <isr_159>:
  103319:	e9 3c 12 00 00       	jmp    10455a <isr_unhandled>

0010331e <isr_160>:
  10331e:	e9 37 12 00 00       	jmp    10455a <isr_unhandled>

00103323 <isr_161>:
  103323:	e9 32 12 00 00       	jmp    10455a <isr_unhandled>

00103328 <isr_162>:
  103328:	e9 2d 12 00 00       	jmp    10455a <isr_unhandled>

0010332d <isr_163>:
  10332d:	e9 28 12 00 00       	jmp    10455a <isr_unhandled>

00103332 <isr_164>:
  103332:	e9 23 12 00 00       	jmp    10455a <isr_unhandled>

00103337 <isr_165>:
  103337:	e9 1e 12 00 00       	jmp    10455a <isr_unhandled>

0010333c <isr_166>:
  10333c:	e9 19 12 00 00       	jmp    10455a <isr_unhandled>

00103341 <isr_167>:
  103341:	e9 14 12 00 00       	jmp    10455a <isr_unhandled>

00103346 <isr_168>:
  103346:	e9 0f 12 00 00       	jmp    10455a <isr_unhandled>

0010334b <isr_169>:
  10334b:	e9 0a 12 00 00       	jmp    10455a <isr_unhandled>

00103350 <isr_170>:
  103350:	e9 05 12 00 00       	jmp    10455a <isr_unhandled>

00103355 <isr_171>:
  103355:	e9 00 12 00 00       	jmp    10455a <isr_unhandled>

0010335a <isr_172>:
  10335a:	e9 fb 11 00 00       	jmp    10455a <isr_unhandled>

0010335f <isr_173>:
  10335f:	e9 f6 11 00 00       	jmp    10455a <isr_unhandled>

00103364 <isr_174>:
  103364:	e9 f1 11 00 00       	jmp    10455a <isr_unhandled>

00103369 <isr_175>:
  103369:	e9 ec 11 00 00       	jmp    10455a <isr_unhandled>

0010336e <isr_176>:
  10336e:	e9 e7 11 00 00       	jmp    10455a <isr_unhandled>

00103373 <isr_177>:
  103373:	e9 e2 11 00 00       	jmp    10455a <isr_unhandled>

00103378 <isr_178>:
  103378:	e9 dd 11 00 00       	jmp    10455a <isr_unhandled>

0010337d <isr_179>:
  10337d:	e9 d8 11 00 00       	jmp    10455a <isr_unhandled>

00103382 <isr_180>:
  103382:	e9 d3 11 00 00       	jmp    10455a <isr_unhandled>

00103387 <isr_181>:
  103387:	e9 ce 11 00 00       	jmp    10455a <isr_unhandled>

0010338c <isr_182>:
  10338c:	e9 c9 11 00 00       	jmp    10455a <isr_unhandled>

00103391 <isr_183>:
  103391:	e9 c4 11 00 00       	jmp    10455a <isr_unhandled>

00103396 <isr_184>:
  103396:	e9 bf 11 00 00       	jmp    10455a <isr_unhandled>

0010339b <isr_185>:
  10339b:	e9 ba 11 00 00       	jmp    10455a <isr_unhandled>

001033a0 <isr_186>:
  1033a0:	e9 b5 11 00 00       	jmp    10455a <isr_unhandled>

001033a5 <isr_187>:
  1033a5:	e9 b0 11 00 00       	jmp    10455a <isr_unhandled>

001033aa <isr_188>:
  1033aa:	e9 ab 11 00 00       	jmp    10455a <isr_unhandled>

001033af <isr_189>:
  1033af:	e9 a6 11 00 00       	jmp    10455a <isr_unhandled>

001033b4 <isr_190>:
  1033b4:	e9 a1 11 00 00       	jmp    10455a <isr_unhandled>

001033b9 <isr_191>:
  1033b9:	e9 9c 11 00 00       	jmp    10455a <isr_unhandled>

001033be <isr_192>:
  1033be:	e9 97 11 00 00       	jmp    10455a <isr_unhandled>

001033c3 <isr_193>:
  1033c3:	e9 92 11 00 00       	jmp    10455a <isr_unhandled>

001033c8 <isr_194>:
  1033c8:	e9 8d 11 00 00       	jmp    10455a <isr_unhandled>

001033cd <isr_195>:
  1033cd:	e9 88 11 00 00       	jmp    10455a <isr_unhandled>

001033d2 <isr_196>:
  1033d2:	e9 83 11 00 00       	jmp    10455a <isr_unhandled>

001033d7 <isr_197>:
  1033d7:	e9 7e 11 00 00       	jmp    10455a <isr_unhandled>

001033dc <isr_198>:
  1033dc:	e9 79 11 00 00       	jmp    10455a <isr_unhandled>

001033e1 <isr_199>:
  1033e1:	e9 74 11 00 00       	jmp    10455a <isr_unhandled>

001033e6 <isr_200>:
  1033e6:	e9 6f 11 00 00       	jmp    10455a <isr_unhandled>

001033eb <isr_201>:
  1033eb:	e9 6a 11 00 00       	jmp    10455a <isr_unhandled>

001033f0 <isr_202>:
  1033f0:	e9 65 11 00 00       	jmp    10455a <isr_unhandled>

001033f5 <isr_203>:
  1033f5:	e9 60 11 00 00       	jmp    10455a <isr_unhandled>

001033fa <isr_204>:
  1033fa:	e9 5b 11 00 00       	jmp    10455a <isr_unhandled>

001033ff <isr_205>:
  1033ff:	e9 56 11 00 00       	jmp    10455a <isr_unhandled>

00103404 <isr_206>:
  103404:	e9 51 11 00 00       	jmp    10455a <isr_unhandled>

00103409 <isr_207>:
  103409:	e9 4c 11 00 00       	jmp    10455a <isr_unhandled>

0010340e <isr_208>:
  10340e:	e9 47 11 00 00       	jmp    10455a <isr_unhandled>

00103413 <isr_209>:
  103413:	e9 42 11 00 00       	jmp    10455a <isr_unhandled>

00103418 <isr_210>:
  103418:	e9 3d 11 00 00       	jmp    10455a <isr_unhandled>

0010341d <isr_211>:
  10341d:	e9 38 11 00 00       	jmp    10455a <isr_unhandled>

00103422 <isr_212>:
  103422:	e9 33 11 00 00       	jmp    10455a <isr_unhandled>

00103427 <isr_213>:
  103427:	e9 2e 11 00 00       	jmp    10455a <isr_unhandled>

0010342c <isr_214>:
  10342c:	e9 29 11 00 00       	jmp    10455a <isr_unhandled>

00103431 <isr_215>:
  103431:	e9 24 11 00 00       	jmp    10455a <isr_unhandled>

00103436 <isr_216>:
  103436:	e9 1f 11 00 00       	jmp    10455a <isr_unhandled>

0010343b <isr_217>:
  10343b:	e9 1a 11 00 00       	jmp    10455a <isr_unhandled>

00103440 <isr_218>:
  103440:	e9 15 11 00 00       	jmp    10455a <isr_unhandled>

00103445 <isr_219>:
  103445:	e9 10 11 00 00       	jmp    10455a <isr_unhandled>

0010344a <isr_220>:
  10344a:	e9 0b 11 00 00       	jmp    10455a <isr_unhandled>

0010344f <isr_221>:
  10344f:	e9 06 11 00 00       	jmp    10455a <isr_unhandled>

00103454 <isr_222>:
  103454:	e9 01 11 00 00       	jmp    10455a <isr_unhandled>

00103459 <isr_223>:
  103459:	e9 fc 10 00 00       	jmp    10455a <isr_unhandled>

0010345e <isr_224>:
  10345e:	e9 f7 10 00 00       	jmp    10455a <isr_unhandled>

00103463 <isr_225>:
  103463:	e9 f2 10 00 00       	jmp    10455a <isr_unhandled>

00103468 <isr_226>:
  103468:	e9 ed 10 00 00       	jmp    10455a <isr_unhandled>

0010346d <isr_227>:
  10346d:	e9 e8 10 00 00       	jmp    10455a <isr_unhandled>

00103472 <isr_228>:
  103472:	e9 e3 10 00 00       	jmp    10455a <isr_unhandled>

00103477 <isr_229>:
  103477:	e9 de 10 00 00       	jmp    10455a <isr_unhandled>

0010347c <isr_230>:
  10347c:	e9 d9 10 00 00       	jmp    10455a <isr_unhandled>

00103481 <isr_231>:
  103481:	e9 d4 10 00 00       	jmp    10455a <isr_unhandled>

00103486 <isr_232>:
  103486:	e9 cf 10 00 00       	jmp    10455a <isr_unhandled>

0010348b <isr_233>:
  10348b:	e9 ca 10 00 00       	jmp    10455a <isr_unhandled>

00103490 <isr_234>:
  103490:	e9 c5 10 00 00       	jmp    10455a <isr_unhandled>

00103495 <isr_235>:
  103495:	e9 c0 10 00 00       	jmp    10455a <isr_unhandled>

0010349a <isr_236>:
  10349a:	e9 bb 10 00 00       	jmp    10455a <isr_unhandled>

0010349f <isr_237>:
  10349f:	e9 b6 10 00 00       	jmp    10455a <isr_unhandled>

001034a4 <isr_238>:
  1034a4:	e9 b1 10 00 00       	jmp    10455a <isr_unhandled>

001034a9 <isr_239>:
  1034a9:	e9 ac 10 00 00       	jmp    10455a <isr_unhandled>

001034ae <isr_240>:
  1034ae:	e9 a7 10 00 00       	jmp    10455a <isr_unhandled>

001034b3 <isr_241>:
  1034b3:	e9 a2 10 00 00       	jmp    10455a <isr_unhandled>

001034b8 <isr_242>:
  1034b8:	e9 9d 10 00 00       	jmp    10455a <isr_unhandled>

001034bd <isr_243>:
  1034bd:	e9 98 10 00 00       	jmp    10455a <isr_unhandled>

001034c2 <isr_244>:
  1034c2:	e9 93 10 00 00       	jmp    10455a <isr_unhandled>

001034c7 <isr_245>:
  1034c7:	e9 8e 10 00 00       	jmp    10455a <isr_unhandled>

001034cc <isr_246>:
  1034cc:	e9 89 10 00 00       	jmp    10455a <isr_unhandled>

001034d1 <isr_247>:
  1034d1:	e9 84 10 00 00       	jmp    10455a <isr_unhandled>

001034d6 <isr_248>:
  1034d6:	e9 7f 10 00 00       	jmp    10455a <isr_unhandled>

001034db <isr_249>:
  1034db:	e9 7a 10 00 00       	jmp    10455a <isr_unhandled>

001034e0 <isr_250>:
  1034e0:	e9 75 10 00 00       	jmp    10455a <isr_unhandled>

001034e5 <isr_251>:
  1034e5:	e9 70 10 00 00       	jmp    10455a <isr_unhandled>

001034ea <isr_252>:
  1034ea:	e9 6b 10 00 00       	jmp    10455a <isr_unhandled>

001034ef <isr_253>:
  1034ef:	e9 66 10 00 00       	jmp    10455a <isr_unhandled>

001034f4 <isr_254>:
  1034f4:	e9 61 10 00 00       	jmp    10455a <isr_unhandled>

001034f9 <isr_255>:
  1034f9:	e9 5c 10 00 00       	jmp    10455a <isr_unhandled>

001034fe <theidt>:
  1034fe:	00 10                	add    %dl,(%eax)
  103500:	08 00                	or     %al,(%eax)
  103502:	00 8e 10 00 20 10    	add    %cl,0x10200010(%esi)
  103508:	08 00                	or     %al,(%eax)
  10350a:	00 8e 10 00 40 10    	add    %cl,0x10400010(%esi)
  103510:	08 00                	or     %al,(%eax)
  103512:	00 8e 10 00 60 10    	add    %cl,0x10600010(%esi)
  103518:	08 00                	or     %al,(%eax)
  10351a:	00 8e 10 00 80 10    	add    %cl,0x10800010(%esi)
  103520:	08 00                	or     %al,(%eax)
  103522:	00 8e 10 00 a0 10    	add    %cl,0x10a00010(%esi)
  103528:	08 00                	or     %al,(%eax)
  10352a:	00 8e 10 00 c0 10    	add    %cl,0x10c00010(%esi)
  103530:	08 00                	or     %al,(%eax)
  103532:	00 8e 10 00 e0 10    	add    %cl,0x10e00010(%esi)
  103538:	08 00                	or     %al,(%eax)
  10353a:	00 8e 10 00 00 11    	add    %cl,0x11000010(%esi)
  103540:	08 00                	or     %al,(%eax)
  103542:	00 8e 10 00 20 11    	add    %cl,0x11200010(%esi)
  103548:	08 00                	or     %al,(%eax)
  10354a:	00 8e 10 00 40 11    	add    %cl,0x11400010(%esi)
  103550:	08 00                	or     %al,(%eax)
  103552:	00 8e 10 00 60 11    	add    %cl,0x11600010(%esi)
  103558:	08 00                	or     %al,(%eax)
  10355a:	00 8e 10 00 80 11    	add    %cl,0x11800010(%esi)
  103560:	08 00                	or     %al,(%eax)
  103562:	00 8e 10 00 a0 11    	add    %cl,0x11a00010(%esi)
  103568:	08 00                	or     %al,(%eax)
  10356a:	00 8e 10 00 c0 11    	add    %cl,0x11c00010(%esi)
  103570:	08 00                	or     %al,(%eax)
  103572:	00 8e 10 00 e0 11    	add    %cl,0x11e00010(%esi)
  103578:	08 00                	or     %al,(%eax)
  10357a:	00 8e 10 00 00 12    	add    %cl,0x12000010(%esi)
  103580:	08 00                	or     %al,(%eax)
  103582:	00 8e 10 00 20 12    	add    %cl,0x12200010(%esi)
  103588:	08 00                	or     %al,(%eax)
  10358a:	00 8e 10 00 40 12    	add    %cl,0x12400010(%esi)
  103590:	08 00                	or     %al,(%eax)
  103592:	00 8e 10 00 60 12    	add    %cl,0x12600010(%esi)
  103598:	08 00                	or     %al,(%eax)
  10359a:	00 8e 10 00 80 12    	add    %cl,0x12800010(%esi)
  1035a0:	08 00                	or     %al,(%eax)
  1035a2:	00 8e 10 00 a0 12    	add    %cl,0x12a00010(%esi)
  1035a8:	08 00                	or     %al,(%eax)
  1035aa:	00 8e 10 00 c0 12    	add    %cl,0x12c00010(%esi)
  1035b0:	08 00                	or     %al,(%eax)
  1035b2:	00 8e 10 00 e0 12    	add    %cl,0x12e00010(%esi)
  1035b8:	08 00                	or     %al,(%eax)
  1035ba:	00 8e 10 00 00 13    	add    %cl,0x13000010(%esi)
  1035c0:	08 00                	or     %al,(%eax)
  1035c2:	00 8e 10 00 20 13    	add    %cl,0x13200010(%esi)
  1035c8:	08 00                	or     %al,(%eax)
  1035ca:	00 8e 10 00 40 13    	add    %cl,0x13400010(%esi)
  1035d0:	08 00                	or     %al,(%eax)
  1035d2:	00 8e 10 00 60 13    	add    %cl,0x13600010(%esi)
  1035d8:	08 00                	or     %al,(%eax)
  1035da:	00 8e 10 00 80 13    	add    %cl,0x13800010(%esi)
  1035e0:	08 00                	or     %al,(%eax)
  1035e2:	00 8e 10 00 a0 13    	add    %cl,0x13a00010(%esi)
  1035e8:	08 00                	or     %al,(%eax)
  1035ea:	00 8e 10 00 c0 13    	add    %cl,0x13c00010(%esi)
  1035f0:	08 00                	or     %al,(%eax)
  1035f2:	00 8e 10 00 e0 13    	add    %cl,0x13e00010(%esi)
  1035f8:	08 00                	or     %al,(%eax)
  1035fa:	00 8e 10 00 00 14    	add    %cl,0x14000010(%esi)
  103600:	08 00                	or     %al,(%eax)
  103602:	00 8e 10 00 20 14    	add    %cl,0x14200010(%esi)
  103608:	08 00                	or     %al,(%eax)
  10360a:	00 8e 10 00 40 14    	add    %cl,0x14400010(%esi)
  103610:	08 00                	or     %al,(%eax)
  103612:	00 8e 10 00 60 14    	add    %cl,0x14600010(%esi)
  103618:	08 00                	or     %al,(%eax)
  10361a:	00 8e 10 00 80 14    	add    %cl,0x14800010(%esi)
  103620:	08 00                	or     %al,(%eax)
  103622:	00 8e 10 00 a0 14    	add    %cl,0x14a00010(%esi)
  103628:	08 00                	or     %al,(%eax)
  10362a:	00 8e 10 00 c0 14    	add    %cl,0x14c00010(%esi)
  103630:	08 00                	or     %al,(%eax)
  103632:	00 8e 10 00 e0 14    	add    %cl,0x14e00010(%esi)
  103638:	08 00                	or     %al,(%eax)
  10363a:	00 8e 10 00 00 15    	add    %cl,0x15000010(%esi)
  103640:	08 00                	or     %al,(%eax)
  103642:	00 8e 10 00 20 15    	add    %cl,0x15200010(%esi)
  103648:	08 00                	or     %al,(%eax)
  10364a:	00 8e 10 00 40 15    	add    %cl,0x15400010(%esi)
  103650:	08 00                	or     %al,(%eax)
  103652:	00 8e 10 00 60 15    	add    %cl,0x15600010(%esi)
  103658:	08 00                	or     %al,(%eax)
  10365a:	00 8e 10 00 80 15    	add    %cl,0x15800010(%esi)
  103660:	08 00                	or     %al,(%eax)
  103662:	00 8e 10 00 a0 15    	add    %cl,0x15a00010(%esi)
  103668:	08 00                	or     %al,(%eax)
  10366a:	00 8e 10 00 c0 15    	add    %cl,0x15c00010(%esi)
  103670:	08 00                	or     %al,(%eax)
  103672:	00 8e 10 00 e0 15    	add    %cl,0x15e00010(%esi)
  103678:	08 00                	or     %al,(%eax)
  10367a:	00 8e 10 00 00 16    	add    %cl,0x16000010(%esi)
  103680:	08 00                	or     %al,(%eax)
  103682:	00 8e 10 00 20 16    	add    %cl,0x16200010(%esi)
  103688:	08 00                	or     %al,(%eax)
  10368a:	00 8e 10 00 40 16    	add    %cl,0x16400010(%esi)
  103690:	08 00                	or     %al,(%eax)
  103692:	00 8e 10 00 60 16    	add    %cl,0x16600010(%esi)
  103698:	08 00                	or     %al,(%eax)
  10369a:	00 8e 10 00 80 16    	add    %cl,0x16800010(%esi)
  1036a0:	08 00                	or     %al,(%eax)
  1036a2:	00 8e 10 00 a0 16    	add    %cl,0x16a00010(%esi)
  1036a8:	08 00                	or     %al,(%eax)
  1036aa:	00 8e 10 00 c0 16    	add    %cl,0x16c00010(%esi)
  1036b0:	08 00                	or     %al,(%eax)
  1036b2:	00 8e 10 00 e0 16    	add    %cl,0x16e00010(%esi)
  1036b8:	08 00                	or     %al,(%eax)
  1036ba:	00 8e 10 00 00 17    	add    %cl,0x17000010(%esi)
  1036c0:	08 00                	or     %al,(%eax)
  1036c2:	00 8e 10 00 20 17    	add    %cl,0x17200010(%esi)
  1036c8:	08 00                	or     %al,(%eax)
  1036ca:	00 8e 10 00 40 17    	add    %cl,0x17400010(%esi)
  1036d0:	08 00                	or     %al,(%eax)
  1036d2:	00 8e 10 00 60 17    	add    %cl,0x17600010(%esi)
  1036d8:	08 00                	or     %al,(%eax)
  1036da:	00 8e 10 00 80 17    	add    %cl,0x17800010(%esi)
  1036e0:	08 00                	or     %al,(%eax)
  1036e2:	00 8e 10 00 a0 17    	add    %cl,0x17a00010(%esi)
  1036e8:	08 00                	or     %al,(%eax)
  1036ea:	00 8e 10 00 c0 17    	add    %cl,0x17c00010(%esi)
  1036f0:	08 00                	or     %al,(%eax)
  1036f2:	00 8e 10 00 e0 17    	add    %cl,0x17e00010(%esi)
  1036f8:	08 00                	or     %al,(%eax)
  1036fa:	00 8e 10 00 00 18    	add    %cl,0x18000010(%esi)
  103700:	08 00                	or     %al,(%eax)
  103702:	00 8e 10 00 20 18    	add    %cl,0x18200010(%esi)
  103708:	08 00                	or     %al,(%eax)
  10370a:	00 8e 10 00 40 18    	add    %cl,0x18400010(%esi)
  103710:	08 00                	or     %al,(%eax)
  103712:	00 8e 10 00 60 18    	add    %cl,0x18600010(%esi)
  103718:	08 00                	or     %al,(%eax)
  10371a:	00 8e 10 00 80 18    	add    %cl,0x18800010(%esi)
  103720:	08 00                	or     %al,(%eax)
  103722:	00 8e 10 00 a0 18    	add    %cl,0x18a00010(%esi)
  103728:	08 00                	or     %al,(%eax)
  10372a:	00 8e 10 00 c0 18    	add    %cl,0x18c00010(%esi)
  103730:	08 00                	or     %al,(%eax)
  103732:	00 8e 10 00 e0 18    	add    %cl,0x18e00010(%esi)
  103738:	08 00                	or     %al,(%eax)
  10373a:	00 8e 10 00 00 19    	add    %cl,0x19000010(%esi)
  103740:	08 00                	or     %al,(%eax)
  103742:	00 8e 10 00 20 19    	add    %cl,0x19200010(%esi)
  103748:	08 00                	or     %al,(%eax)
  10374a:	00 8e 10 00 40 19    	add    %cl,0x19400010(%esi)
  103750:	08 00                	or     %al,(%eax)
  103752:	00 8e 10 00 60 19    	add    %cl,0x19600010(%esi)
  103758:	08 00                	or     %al,(%eax)
  10375a:	00 8e 10 00 80 19    	add    %cl,0x19800010(%esi)
  103760:	08 00                	or     %al,(%eax)
  103762:	00 8e 10 00 a0 19    	add    %cl,0x19a00010(%esi)
  103768:	08 00                	or     %al,(%eax)
  10376a:	00 8e 10 00 c0 19    	add    %cl,0x19c00010(%esi)
  103770:	08 00                	or     %al,(%eax)
  103772:	00 8e 10 00 e0 19    	add    %cl,0x19e00010(%esi)
  103778:	08 00                	or     %al,(%eax)
  10377a:	00 8e 10 00 00 1a    	add    %cl,0x1a000010(%esi)
  103780:	08 00                	or     %al,(%eax)
  103782:	00 8e 10 00 20 1a    	add    %cl,0x1a200010(%esi)
  103788:	08 00                	or     %al,(%eax)
  10378a:	00 8e 10 00 40 1a    	add    %cl,0x1a400010(%esi)
  103790:	08 00                	or     %al,(%eax)
  103792:	00 8e 10 00 60 1a    	add    %cl,0x1a600010(%esi)
  103798:	08 00                	or     %al,(%eax)
  10379a:	00 8e 10 00 80 1a    	add    %cl,0x1a800010(%esi)
  1037a0:	08 00                	or     %al,(%eax)
  1037a2:	00 8e 10 00 a0 1a    	add    %cl,0x1aa00010(%esi)
  1037a8:	08 00                	or     %al,(%eax)
  1037aa:	00 8e 10 00 c0 1a    	add    %cl,0x1ac00010(%esi)
  1037b0:	08 00                	or     %al,(%eax)
  1037b2:	00 8e 10 00 e0 1a    	add    %cl,0x1ae00010(%esi)
  1037b8:	08 00                	or     %al,(%eax)
  1037ba:	00 8e 10 00 00 1b    	add    %cl,0x1b000010(%esi)
  1037c0:	08 00                	or     %al,(%eax)
  1037c2:	00 8e 10 00 20 1b    	add    %cl,0x1b200010(%esi)
  1037c8:	08 00                	or     %al,(%eax)
  1037ca:	00 8e 10 00 40 1b    	add    %cl,0x1b400010(%esi)
  1037d0:	08 00                	or     %al,(%eax)
  1037d2:	00 8e 10 00 60 1b    	add    %cl,0x1b600010(%esi)
  1037d8:	08 00                	or     %al,(%eax)
  1037da:	00 8e 10 00 80 1b    	add    %cl,0x1b800010(%esi)
  1037e0:	08 00                	or     %al,(%eax)
  1037e2:	00 8e 10 00 a0 1b    	add    %cl,0x1ba00010(%esi)
  1037e8:	08 00                	or     %al,(%eax)
  1037ea:	00 8e 10 00 c0 1b    	add    %cl,0x1bc00010(%esi)
  1037f0:	08 00                	or     %al,(%eax)
  1037f2:	00 8e 10 00 e0 1b    	add    %cl,0x1be00010(%esi)
  1037f8:	08 00                	or     %al,(%eax)
  1037fa:	00 8e 10 00 00 1c    	add    %cl,0x1c000010(%esi)
  103800:	08 00                	or     %al,(%eax)
  103802:	00 8e 10 00 20 1c    	add    %cl,0x1c200010(%esi)
  103808:	08 00                	or     %al,(%eax)
  10380a:	00 8e 10 00 40 1c    	add    %cl,0x1c400010(%esi)
  103810:	08 00                	or     %al,(%eax)
  103812:	00 8e 10 00 60 1c    	add    %cl,0x1c600010(%esi)
  103818:	08 00                	or     %al,(%eax)
  10381a:	00 8e 10 00 80 1c    	add    %cl,0x1c800010(%esi)
  103820:	08 00                	or     %al,(%eax)
  103822:	00 8e 10 00 a0 1c    	add    %cl,0x1ca00010(%esi)
  103828:	08 00                	or     %al,(%eax)
  10382a:	00 8e 10 00 c0 1c    	add    %cl,0x1cc00010(%esi)
  103830:	08 00                	or     %al,(%eax)
  103832:	00 8e 10 00 e0 1c    	add    %cl,0x1ce00010(%esi)
  103838:	08 00                	or     %al,(%eax)
  10383a:	00 8e 10 00 00 1d    	add    %cl,0x1d000010(%esi)
  103840:	08 00                	or     %al,(%eax)
  103842:	00 8e 10 00 20 1d    	add    %cl,0x1d200010(%esi)
  103848:	08 00                	or     %al,(%eax)
  10384a:	00 8e 10 00 40 1d    	add    %cl,0x1d400010(%esi)
  103850:	08 00                	or     %al,(%eax)
  103852:	00 8e 10 00 60 1d    	add    %cl,0x1d600010(%esi)
  103858:	08 00                	or     %al,(%eax)
  10385a:	00 8e 10 00 80 1d    	add    %cl,0x1d800010(%esi)
  103860:	08 00                	or     %al,(%eax)
  103862:	00 8e 10 00 a0 1d    	add    %cl,0x1da00010(%esi)
  103868:	08 00                	or     %al,(%eax)
  10386a:	00 8e 10 00 c0 1d    	add    %cl,0x1dc00010(%esi)
  103870:	08 00                	or     %al,(%eax)
  103872:	00 8e 10 00 e0 1d    	add    %cl,0x1de00010(%esi)
  103878:	08 00                	or     %al,(%eax)
  10387a:	00 8e 10 00 00 1e    	add    %cl,0x1e000010(%esi)
  103880:	08 00                	or     %al,(%eax)
  103882:	00 8e 10 00 20 1e    	add    %cl,0x1e200010(%esi)
  103888:	08 00                	or     %al,(%eax)
  10388a:	00 8e 10 00 40 1e    	add    %cl,0x1e400010(%esi)
  103890:	08 00                	or     %al,(%eax)
  103892:	00 8e 10 00 60 1e    	add    %cl,0x1e600010(%esi)
  103898:	08 00                	or     %al,(%eax)
  10389a:	00 8e 10 00 80 1e    	add    %cl,0x1e800010(%esi)
  1038a0:	08 00                	or     %al,(%eax)
  1038a2:	00 8e 10 00 a0 1e    	add    %cl,0x1ea00010(%esi)
  1038a8:	08 00                	or     %al,(%eax)
  1038aa:	00 8e 10 00 c0 1e    	add    %cl,0x1ec00010(%esi)
  1038b0:	08 00                	or     %al,(%eax)
  1038b2:	00 8e 10 00 e0 1e    	add    %cl,0x1ee00010(%esi)
  1038b8:	08 00                	or     %al,(%eax)
  1038ba:	00 8e 10 00 00 1f    	add    %cl,0x1f000010(%esi)
  1038c0:	08 00                	or     %al,(%eax)
  1038c2:	00 8e 10 00 20 1f    	add    %cl,0x1f200010(%esi)
  1038c8:	08 00                	or     %al,(%eax)
  1038ca:	00 8e 10 00 40 1f    	add    %cl,0x1f400010(%esi)
  1038d0:	08 00                	or     %al,(%eax)
  1038d2:	00 8e 10 00 60 1f    	add    %cl,0x1f600010(%esi)
  1038d8:	08 00                	or     %al,(%eax)
  1038da:	00 8e 10 00 80 1f    	add    %cl,0x1f800010(%esi)
  1038e0:	08 00                	or     %al,(%eax)
  1038e2:	00 8e 10 00 a0 1f    	add    %cl,0x1fa00010(%esi)
  1038e8:	08 00                	or     %al,(%eax)
  1038ea:	00 8e 10 00 c0 1f    	add    %cl,0x1fc00010(%esi)
  1038f0:	08 00                	or     %al,(%eax)
  1038f2:	00 8e 10 00 e0 1f    	add    %cl,0x1fe00010(%esi)
  1038f8:	08 00                	or     %al,(%eax)
  1038fa:	00 8e 10 00 00 20    	add    %cl,0x20000010(%esi)
  103900:	08 00                	or     %al,(%eax)
  103902:	00 8e 10 00 20 20    	add    %cl,0x20200010(%esi)
  103908:	08 00                	or     %al,(%eax)
  10390a:	00 8e 10 00 40 20    	add    %cl,0x20400010(%esi)
  103910:	08 00                	or     %al,(%eax)
  103912:	00 8e 10 00 60 20    	add    %cl,0x20600010(%esi)
  103918:	08 00                	or     %al,(%eax)
  10391a:	00 8e 10 00 80 20    	add    %cl,0x20800010(%esi)
  103920:	08 00                	or     %al,(%eax)
  103922:	00 8e 10 00 a0 20    	add    %cl,0x20a00010(%esi)
  103928:	08 00                	or     %al,(%eax)
  10392a:	00 8e 10 00 c0 20    	add    %cl,0x20c00010(%esi)
  103930:	08 00                	or     %al,(%eax)
  103932:	00 8e 10 00 e0 20    	add    %cl,0x20e00010(%esi)
  103938:	08 00                	or     %al,(%eax)
  10393a:	00 8e 10 00 00 21    	add    %cl,0x21000010(%esi)
  103940:	08 00                	or     %al,(%eax)
  103942:	00 8e 10 00 20 21    	add    %cl,0x21200010(%esi)
  103948:	08 00                	or     %al,(%eax)
  10394a:	00 8e 10 00 40 21    	add    %cl,0x21400010(%esi)
  103950:	08 00                	or     %al,(%eax)
  103952:	00 8e 10 00 60 21    	add    %cl,0x21600010(%esi)
  103958:	08 00                	or     %al,(%eax)
  10395a:	00 8e 10 00 80 21    	add    %cl,0x21800010(%esi)
  103960:	08 00                	or     %al,(%eax)
  103962:	00 8e 10 00 a0 21    	add    %cl,0x21a00010(%esi)
  103968:	08 00                	or     %al,(%eax)
  10396a:	00 8e 10 00 c0 21    	add    %cl,0x21c00010(%esi)
  103970:	08 00                	or     %al,(%eax)
  103972:	00 8e 10 00 e0 21    	add    %cl,0x21e00010(%esi)
  103978:	08 00                	or     %al,(%eax)
  10397a:	00 8e 10 00 00 22    	add    %cl,0x22000010(%esi)
  103980:	08 00                	or     %al,(%eax)
  103982:	00 8e 10 00 20 22    	add    %cl,0x22200010(%esi)
  103988:	08 00                	or     %al,(%eax)
  10398a:	00 8e 10 00 40 22    	add    %cl,0x22400010(%esi)
  103990:	08 00                	or     %al,(%eax)
  103992:	00 8e 10 00 60 22    	add    %cl,0x22600010(%esi)
  103998:	08 00                	or     %al,(%eax)
  10399a:	00 8e 10 00 80 22    	add    %cl,0x22800010(%esi)
  1039a0:	08 00                	or     %al,(%eax)
  1039a2:	00 8e 10 00 a0 22    	add    %cl,0x22a00010(%esi)
  1039a8:	08 00                	or     %al,(%eax)
  1039aa:	00 8e 10 00 c0 22    	add    %cl,0x22c00010(%esi)
  1039b0:	08 00                	or     %al,(%eax)
  1039b2:	00 8e 10 00 e0 22    	add    %cl,0x22e00010(%esi)
  1039b8:	08 00                	or     %al,(%eax)
  1039ba:	00 8e 10 00 00 23    	add    %cl,0x23000010(%esi)
  1039c0:	08 00                	or     %al,(%eax)
  1039c2:	00 8e 10 00 20 23    	add    %cl,0x23200010(%esi)
  1039c8:	08 00                	or     %al,(%eax)
  1039ca:	00 8e 10 00 40 23    	add    %cl,0x23400010(%esi)
  1039d0:	08 00                	or     %al,(%eax)
  1039d2:	00 8e 10 00 60 23    	add    %cl,0x23600010(%esi)
  1039d8:	08 00                	or     %al,(%eax)
  1039da:	00 8e 10 00 80 23    	add    %cl,0x23800010(%esi)
  1039e0:	08 00                	or     %al,(%eax)
  1039e2:	00 8e 10 00 a0 23    	add    %cl,0x23a00010(%esi)
  1039e8:	08 00                	or     %al,(%eax)
  1039ea:	00 8e 10 00 c0 23    	add    %cl,0x23c00010(%esi)
  1039f0:	08 00                	or     %al,(%eax)
  1039f2:	00 8e 10 00 e0 23    	add    %cl,0x23e00010(%esi)
  1039f8:	08 00                	or     %al,(%eax)
  1039fa:	00 8e 10 00 00 24    	add    %cl,0x24000010(%esi)
  103a00:	08 00                	or     %al,(%eax)
  103a02:	00 8e 10 00 20 24    	add    %cl,0x24200010(%esi)
  103a08:	08 00                	or     %al,(%eax)
  103a0a:	00 8e 10 00 40 24    	add    %cl,0x24400010(%esi)
  103a10:	08 00                	or     %al,(%eax)
  103a12:	00 8e 10 00 60 24    	add    %cl,0x24600010(%esi)
  103a18:	08 00                	or     %al,(%eax)
  103a1a:	00 8e 10 00 80 24    	add    %cl,0x24800010(%esi)
  103a20:	08 00                	or     %al,(%eax)
  103a22:	00 8e 10 00 a0 24    	add    %cl,0x24a00010(%esi)
  103a28:	08 00                	or     %al,(%eax)
  103a2a:	00 8e 10 00 c0 24    	add    %cl,0x24c00010(%esi)
  103a30:	08 00                	or     %al,(%eax)
  103a32:	00 8e 10 00 e0 24    	add    %cl,0x24e00010(%esi)
  103a38:	08 00                	or     %al,(%eax)
  103a3a:	00 8e 10 00 00 25    	add    %cl,0x25000010(%esi)
  103a40:	08 00                	or     %al,(%eax)
  103a42:	00 8e 10 00 20 25    	add    %cl,0x25200010(%esi)
  103a48:	08 00                	or     %al,(%eax)
  103a4a:	00 8e 10 00 40 25    	add    %cl,0x25400010(%esi)
  103a50:	08 00                	or     %al,(%eax)
  103a52:	00 8e 10 00 60 25    	add    %cl,0x25600010(%esi)
  103a58:	08 00                	or     %al,(%eax)
  103a5a:	00 8e 10 00 80 25    	add    %cl,0x25800010(%esi)
  103a60:	08 00                	or     %al,(%eax)
  103a62:	00 8e 10 00 a0 25    	add    %cl,0x25a00010(%esi)
  103a68:	08 00                	or     %al,(%eax)
  103a6a:	00 8e 10 00 c0 25    	add    %cl,0x25c00010(%esi)
  103a70:	08 00                	or     %al,(%eax)
  103a72:	00 8e 10 00 e0 25    	add    %cl,0x25e00010(%esi)
  103a78:	08 00                	or     %al,(%eax)
  103a7a:	00 8e 10 00 00 26    	add    %cl,0x26000010(%esi)
  103a80:	08 00                	or     %al,(%eax)
  103a82:	00 8e 10 00 20 26    	add    %cl,0x26200010(%esi)
  103a88:	08 00                	or     %al,(%eax)
  103a8a:	00 8e 10 00 40 26    	add    %cl,0x26400010(%esi)
  103a90:	08 00                	or     %al,(%eax)
  103a92:	00 8e 10 00 60 26    	add    %cl,0x26600010(%esi)
  103a98:	08 00                	or     %al,(%eax)
  103a9a:	00 8e 10 00 80 26    	add    %cl,0x26800010(%esi)
  103aa0:	08 00                	or     %al,(%eax)
  103aa2:	00 8e 10 00 a0 26    	add    %cl,0x26a00010(%esi)
  103aa8:	08 00                	or     %al,(%eax)
  103aaa:	00 8e 10 00 c0 26    	add    %cl,0x26c00010(%esi)
  103ab0:	08 00                	or     %al,(%eax)
  103ab2:	00 8e 10 00 e0 26    	add    %cl,0x26e00010(%esi)
  103ab8:	08 00                	or     %al,(%eax)
  103aba:	00 8e 10 00 00 27    	add    %cl,0x27000010(%esi)
  103ac0:	08 00                	or     %al,(%eax)
  103ac2:	00 8e 10 00 20 27    	add    %cl,0x27200010(%esi)
  103ac8:	08 00                	or     %al,(%eax)
  103aca:	00 8e 10 00 40 27    	add    %cl,0x27400010(%esi)
  103ad0:	08 00                	or     %al,(%eax)
  103ad2:	00 8e 10 00 60 27    	add    %cl,0x27600010(%esi)
  103ad8:	08 00                	or     %al,(%eax)
  103ada:	00 8e 10 00 80 27    	add    %cl,0x27800010(%esi)
  103ae0:	08 00                	or     %al,(%eax)
  103ae2:	00 8e 10 00 a0 27    	add    %cl,0x27a00010(%esi)
  103ae8:	08 00                	or     %al,(%eax)
  103aea:	00 8e 10 00 c0 27    	add    %cl,0x27c00010(%esi)
  103af0:	08 00                	or     %al,(%eax)
  103af2:	00 8e 10 00 e0 27    	add    %cl,0x27e00010(%esi)
  103af8:	08 00                	or     %al,(%eax)
  103afa:	00 8e 10 00 00 28    	add    %cl,0x28000010(%esi)
  103b00:	08 00                	or     %al,(%eax)
  103b02:	00 8e 10 00 20 28    	add    %cl,0x28200010(%esi)
  103b08:	08 00                	or     %al,(%eax)
  103b0a:	00 8e 10 00 40 28    	add    %cl,0x28400010(%esi)
  103b10:	08 00                	or     %al,(%eax)
  103b12:	00 8e 10 00 60 28    	add    %cl,0x28600010(%esi)
  103b18:	08 00                	or     %al,(%eax)
  103b1a:	00 8e 10 00 80 28    	add    %cl,0x28800010(%esi)
  103b20:	08 00                	or     %al,(%eax)
  103b22:	00 8e 10 00 a0 28    	add    %cl,0x28a00010(%esi)
  103b28:	08 00                	or     %al,(%eax)
  103b2a:	00 8e 10 00 c0 28    	add    %cl,0x28c00010(%esi)
  103b30:	08 00                	or     %al,(%eax)
  103b32:	00 8e 10 00 e0 28    	add    %cl,0x28e00010(%esi)
  103b38:	08 00                	or     %al,(%eax)
  103b3a:	00 8e 10 00 00 29    	add    %cl,0x29000010(%esi)
  103b40:	08 00                	or     %al,(%eax)
  103b42:	00 8e 10 00 20 29    	add    %cl,0x29200010(%esi)
  103b48:	08 00                	or     %al,(%eax)
  103b4a:	00 8e 10 00 40 29    	add    %cl,0x29400010(%esi)
  103b50:	08 00                	or     %al,(%eax)
  103b52:	00 8e 10 00 60 29    	add    %cl,0x29600010(%esi)
  103b58:	08 00                	or     %al,(%eax)
  103b5a:	00 8e 10 00 80 29    	add    %cl,0x29800010(%esi)
  103b60:	08 00                	or     %al,(%eax)
  103b62:	00 8e 10 00 a0 29    	add    %cl,0x29a00010(%esi)
  103b68:	08 00                	or     %al,(%eax)
  103b6a:	00 8e 10 00 c0 29    	add    %cl,0x29c00010(%esi)
  103b70:	08 00                	or     %al,(%eax)
  103b72:	00 8e 10 00 e0 29    	add    %cl,0x29e00010(%esi)
  103b78:	08 00                	or     %al,(%eax)
  103b7a:	00 8e 10 00 00 2a    	add    %cl,0x2a000010(%esi)
  103b80:	08 00                	or     %al,(%eax)
  103b82:	00 8e 10 00 20 2a    	add    %cl,0x2a200010(%esi)
  103b88:	08 00                	or     %al,(%eax)
  103b8a:	00 8e 10 00 40 2a    	add    %cl,0x2a400010(%esi)
  103b90:	08 00                	or     %al,(%eax)
  103b92:	00 8e 10 00 60 2a    	add    %cl,0x2a600010(%esi)
  103b98:	08 00                	or     %al,(%eax)
  103b9a:	00 8e 10 00 80 2a    	add    %cl,0x2a800010(%esi)
  103ba0:	08 00                	or     %al,(%eax)
  103ba2:	00 8e 10 00 a0 2a    	add    %cl,0x2aa00010(%esi)
  103ba8:	08 00                	or     %al,(%eax)
  103baa:	00 8e 10 00 c0 2a    	add    %cl,0x2ac00010(%esi)
  103bb0:	08 00                	or     %al,(%eax)
  103bb2:	00 8e 10 00 e0 2a    	add    %cl,0x2ae00010(%esi)
  103bb8:	08 00                	or     %al,(%eax)
  103bba:	00 8e 10 00 00 2b    	add    %cl,0x2b000010(%esi)
  103bc0:	08 00                	or     %al,(%eax)
  103bc2:	00 8e 10 00 20 2b    	add    %cl,0x2b200010(%esi)
  103bc8:	08 00                	or     %al,(%eax)
  103bca:	00 8e 10 00 40 2b    	add    %cl,0x2b400010(%esi)
  103bd0:	08 00                	or     %al,(%eax)
  103bd2:	00 8e 10 00 60 2b    	add    %cl,0x2b600010(%esi)
  103bd8:	08 00                	or     %al,(%eax)
  103bda:	00 8e 10 00 80 2b    	add    %cl,0x2b800010(%esi)
  103be0:	08 00                	or     %al,(%eax)
  103be2:	00 8e 10 00 a0 2b    	add    %cl,0x2ba00010(%esi)
  103be8:	08 00                	or     %al,(%eax)
  103bea:	00 8e 10 00 c0 2b    	add    %cl,0x2bc00010(%esi)
  103bf0:	08 00                	or     %al,(%eax)
  103bf2:	00 8e 10 00 e0 2b    	add    %cl,0x2be00010(%esi)
  103bf8:	08 00                	or     %al,(%eax)
  103bfa:	00 8e 10 00 00 2c    	add    %cl,0x2c000010(%esi)
  103c00:	08 00                	or     %al,(%eax)
  103c02:	00 8e 10 00 20 2c    	add    %cl,0x2c200010(%esi)
  103c08:	08 00                	or     %al,(%eax)
  103c0a:	00 8e 10 00 40 2c    	add    %cl,0x2c400010(%esi)
  103c10:	08 00                	or     %al,(%eax)
  103c12:	00 8e 10 00 60 2c    	add    %cl,0x2c600010(%esi)
  103c18:	08 00                	or     %al,(%eax)
  103c1a:	00 8e 10 00 80 2c    	add    %cl,0x2c800010(%esi)
  103c20:	08 00                	or     %al,(%eax)
  103c22:	00 8e 10 00 a0 2c    	add    %cl,0x2ca00010(%esi)
  103c28:	08 00                	or     %al,(%eax)
  103c2a:	00 8e 10 00 c0 2c    	add    %cl,0x2cc00010(%esi)
  103c30:	08 00                	or     %al,(%eax)
  103c32:	00 8e 10 00 e0 2c    	add    %cl,0x2ce00010(%esi)
  103c38:	08 00                	or     %al,(%eax)
  103c3a:	00 8e 10 00 00 2d    	add    %cl,0x2d000010(%esi)
  103c40:	08 00                	or     %al,(%eax)
  103c42:	00 8e 10 00 20 2d    	add    %cl,0x2d200010(%esi)
  103c48:	08 00                	or     %al,(%eax)
  103c4a:	00 8e 10 00 40 2d    	add    %cl,0x2d400010(%esi)
  103c50:	08 00                	or     %al,(%eax)
  103c52:	00 8e 10 00 60 2d    	add    %cl,0x2d600010(%esi)
  103c58:	08 00                	or     %al,(%eax)
  103c5a:	00 8e 10 00 80 2d    	add    %cl,0x2d800010(%esi)
  103c60:	08 00                	or     %al,(%eax)
  103c62:	00 8e 10 00 a0 2d    	add    %cl,0x2da00010(%esi)
  103c68:	08 00                	or     %al,(%eax)
  103c6a:	00 8e 10 00 c0 2d    	add    %cl,0x2dc00010(%esi)
  103c70:	08 00                	or     %al,(%eax)
  103c72:	00 8e 10 00 e0 2d    	add    %cl,0x2de00010(%esi)
  103c78:	08 00                	or     %al,(%eax)
  103c7a:	00 8e 10 00 00 2e    	add    %cl,0x2e000010(%esi)
  103c80:	08 00                	or     %al,(%eax)
  103c82:	00 8e 10 00 20 2e    	add    %cl,0x2e200010(%esi)
  103c88:	08 00                	or     %al,(%eax)
  103c8a:	00 8e 10 00 40 2e    	add    %cl,0x2e400010(%esi)
  103c90:	08 00                	or     %al,(%eax)
  103c92:	00 8e 10 00 60 2e    	add    %cl,0x2e600010(%esi)
  103c98:	08 00                	or     %al,(%eax)
  103c9a:	00 8e 10 00 80 2e    	add    %cl,0x2e800010(%esi)
  103ca0:	08 00                	or     %al,(%eax)
  103ca2:	00 8e 10 00 a0 2e    	add    %cl,0x2ea00010(%esi)
  103ca8:	08 00                	or     %al,(%eax)
  103caa:	00 8e 10 00 c0 2e    	add    %cl,0x2ec00010(%esi)
  103cb0:	08 00                	or     %al,(%eax)
  103cb2:	00 8e 10 00 e0 2e    	add    %cl,0x2ee00010(%esi)
  103cb8:	08 00                	or     %al,(%eax)
  103cba:	00 8e 10 00 00 2f    	add    %cl,0x2f000010(%esi)
  103cc0:	08 00                	or     %al,(%eax)
  103cc2:	00 8e 10 00 20 2f    	add    %cl,0x2f200010(%esi)
  103cc8:	08 00                	or     %al,(%eax)
  103cca:	00 8e 10 00 40 2f    	add    %cl,0x2f400010(%esi)
  103cd0:	08 00                	or     %al,(%eax)
  103cd2:	00 8e 10 00 60 2f    	add    %cl,0x2f600010(%esi)
  103cd8:	08 00                	or     %al,(%eax)
  103cda:	00 8e 10 00 80 2f    	add    %cl,0x2f800010(%esi)
  103ce0:	08 00                	or     %al,(%eax)
  103ce2:	00 8e 10 00 a0 2f    	add    %cl,0x2fa00010(%esi)
  103ce8:	08 00                	or     %al,(%eax)
  103cea:	00 8e 10 00 c0 2f    	add    %cl,0x2fc00010(%esi)
  103cf0:	08 00                	or     %al,(%eax)
  103cf2:	00 8e 10 00 e0 2f    	add    %cl,0x2fe00010(%esi)
  103cf8:	08 00                	or     %al,(%eax)
  103cfa:	00 8e 10 00 66 90    	add    %cl,-0x6f99fff0(%esi)
  103d00:	66 90                	xchg   %ax,%ax
  103d02:	66 90                	xchg   %ax,%ax
  103d04:	66 90                	xchg   %ax,%ax
  103d06:	66 90                	xchg   %ax,%ax
  103d08:	66 90                	xchg   %ax,%ax
  103d0a:	66 90                	xchg   %ax,%ax
  103d0c:	66 90                	xchg   %ax,%ax
  103d0e:	66 90                	xchg   %ax,%ax

00103d10 <main>:
  103d10:	8d 4c 24 04          	lea    0x4(%esp),%ecx
  103d14:	83 e4 f0             	and    $0xfffffff0,%esp
  103d17:	ff 71 fc             	pushl  -0x4(%ecx)
  103d1a:	55                   	push   %ebp
  103d1b:	89 e5                	mov    %esp,%ebp
  103d1d:	51                   	push   %ecx
  103d1e:	83 ec 10             	sub    $0x10,%esp
  103d21:	68 a2 45 10 00       	push   $0x1045a2
  103d26:	e8 76 03 00 00       	call   1040a1 <tfp_printf>
  103d2b:	83 c4 10             	add    $0x10,%esp
  103d2e:	eb fe                	jmp    103d2e <main+0x1e>

00103d30 <_start>:
  103d30:	bc f2 1f 20 00       	mov    $0x201ff2,%esp
  103d35:	e8 9b 05 00 00       	call   1042d5 <arch_startup>
  103d3a:	fa                   	cli    
  103d3b:	f4                   	hlt    
  103d3c:	eb fe                	jmp    103d3c <_start+0xc>

00103d3e <_etext_common_syms>:
  103d3e:	66 90                	xchg   %ax,%ax
  103d40:	66 90                	xchg   %ax,%ax
  103d42:	66 90                	xchg   %ax,%ax
  103d44:	66 90                	xchg   %ax,%ax
  103d46:	66 90                	xchg   %ax,%ax
  103d48:	66 90                	xchg   %ax,%ax
  103d4a:	66 90                	xchg   %ax,%ax
  103d4c:	66 90                	xchg   %ax,%ax

00103d4e <_erodata_an>:
  103d4e:	66 90                	xchg   %ax,%ax
  103d50:	66 90                	xchg   %ax,%ax
  103d52:	66 90                	xchg   %ax,%ax
  103d54:	66 90                	xchg   %ax,%ax
  103d56:	66 90                	xchg   %ax,%ax
  103d58:	66 90                	xchg   %ax,%ax
  103d5a:	66 90                	xchg   %ax,%ax
  103d5c:	66 90                	xchg   %ax,%ax
  103d5e:	66 90                	xchg   %ax,%ax
  103d60:	66 90                	xchg   %ax,%ax
  103d62:	66 90                	xchg   %ax,%ax
  103d64:	66 90                	xchg   %ax,%ax
  103d66:	66 90                	xchg   %ax,%ax
  103d68:	66 90                	xchg   %ax,%ax
  103d6a:	66 90                	xchg   %ax,%ax
  103d6c:	66 90                	xchg   %ax,%ax
  103d6e:	66 90                	xchg   %ax,%ax
  103d70:	66 90                	xchg   %ax,%ax
  103d72:	66 90                	xchg   %ax,%ax
  103d74:	66 90                	xchg   %ax,%ax
  103d76:	66 90                	xchg   %ax,%ax
  103d78:	66 90                	xchg   %ax,%ax
  103d7a:	66 90                	xchg   %ax,%ax
  103d7c:	66 90                	xchg   %ax,%ax
  103d7e:	66 90                	xchg   %ax,%ax
  103d80:	66 90                	xchg   %ax,%ax
  103d82:	66 90                	xchg   %ax,%ax
  103d84:	66 90                	xchg   %ax,%ax
  103d86:	66 90                	xchg   %ax,%ax
  103d88:	66 90                	xchg   %ax,%ax
  103d8a:	66 90                	xchg   %ax,%ax
  103d8c:	66 90                	xchg   %ax,%ax
  103d8e:	66 90                	xchg   %ax,%ax
  103d90:	66 90                	xchg   %ax,%ax
  103d92:	66 90                	xchg   %ax,%ax
  103d94:	66 90                	xchg   %ax,%ax
  103d96:	66 90                	xchg   %ax,%ax
  103d98:	66 90                	xchg   %ax,%ax
  103d9a:	66 90                	xchg   %ax,%ax
  103d9c:	66 90                	xchg   %ax,%ax
  103d9e:	66 90                	xchg   %ax,%ax
  103da0:	66 90                	xchg   %ax,%ax
  103da2:	66 90                	xchg   %ax,%ax
  103da4:	66 90                	xchg   %ax,%ax
  103da6:	66 90                	xchg   %ax,%ax
  103da8:	66 90                	xchg   %ax,%ax
  103daa:	66 90                	xchg   %ax,%ax
  103dac:	66 90                	xchg   %ax,%ax
  103dae:	66 90                	xchg   %ax,%ax
  103db0:	66 90                	xchg   %ax,%ax
  103db2:	66 90                	xchg   %ax,%ax
  103db4:	66 90                	xchg   %ax,%ax
  103db6:	66 90                	xchg   %ax,%ax
  103db8:	66 90                	xchg   %ax,%ax
  103dba:	66 90                	xchg   %ax,%ax
  103dbc:	66 90                	xchg   %ax,%ax
  103dbe:	66 90                	xchg   %ax,%ax
  103dc0:	66 90                	xchg   %ax,%ax
  103dc2:	66 90                	xchg   %ax,%ax
  103dc4:	66 90                	xchg   %ax,%ax
  103dc6:	66 90                	xchg   %ax,%ax
  103dc8:	66 90                	xchg   %ax,%ax
  103dca:	66 90                	xchg   %ax,%ax
  103dcc:	66 90                	xchg   %ax,%ax
  103dce:	66 90                	xchg   %ax,%ax
  103dd0:	66 90                	xchg   %ax,%ax
  103dd2:	66 90                	xchg   %ax,%ax
  103dd4:	66 90                	xchg   %ax,%ax
  103dd6:	66 90                	xchg   %ax,%ax
  103dd8:	66 90                	xchg   %ax,%ax
  103dda:	66 90                	xchg   %ax,%ax
  103ddc:	66 90                	xchg   %ax,%ax
  103dde:	66 90                	xchg   %ax,%ax
  103de0:	66 90                	xchg   %ax,%ax
  103de2:	66 90                	xchg   %ax,%ax
  103de4:	66 90                	xchg   %ax,%ax
  103de6:	66 90                	xchg   %ax,%ax
  103de8:	66 90                	xchg   %ax,%ax
  103dea:	66 90                	xchg   %ax,%ax
  103dec:	66 90                	xchg   %ax,%ax
  103dee:	66 90                	xchg   %ax,%ax
  103df0:	66 90                	xchg   %ax,%ax
  103df2:	66 90                	xchg   %ax,%ax
  103df4:	66 90                	xchg   %ax,%ax
  103df6:	66 90                	xchg   %ax,%ax
  103df8:	66 90                	xchg   %ax,%ax
  103dfa:	66 90                	xchg   %ax,%ax
  103dfc:	66 90                	xchg   %ax,%ax
  103dfe:	66 90                	xchg   %ax,%ax
  103e00:	66 90                	xchg   %ax,%ax
  103e02:	66 90                	xchg   %ax,%ax
  103e04:	66 90                	xchg   %ax,%ax
  103e06:	66 90                	xchg   %ax,%ax
  103e08:	66 90                	xchg   %ax,%ax
  103e0a:	66 90                	xchg   %ax,%ax
  103e0c:	66 90                	xchg   %ax,%ax
  103e0e:	66 90                	xchg   %ax,%ax
  103e10:	66 90                	xchg   %ax,%ax
  103e12:	66 90                	xchg   %ax,%ax
  103e14:	66 90                	xchg   %ax,%ax
  103e16:	66 90                	xchg   %ax,%ax
  103e18:	66 90                	xchg   %ax,%ax
  103e1a:	66 90                	xchg   %ax,%ax
  103e1c:	66 90                	xchg   %ax,%ax
  103e1e:	66 90                	xchg   %ax,%ax
  103e20:	66 90                	xchg   %ax,%ax
  103e22:	66 90                	xchg   %ax,%ax
  103e24:	66 90                	xchg   %ax,%ax
  103e26:	66 90                	xchg   %ax,%ax
  103e28:	66 90                	xchg   %ax,%ax
  103e2a:	66 90                	xchg   %ax,%ax
  103e2c:	66 90                	xchg   %ax,%ax
  103e2e:	66 90                	xchg   %ax,%ax
  103e30:	66 90                	xchg   %ax,%ax
  103e32:	66 90                	xchg   %ax,%ax
  103e34:	66 90                	xchg   %ax,%ax
  103e36:	66 90                	xchg   %ax,%ax
  103e38:	66 90                	xchg   %ax,%ax
  103e3a:	66 90                	xchg   %ax,%ax
  103e3c:	66 90                	xchg   %ax,%ax
  103e3e:	66 90                	xchg   %ax,%ax
  103e40:	66 90                	xchg   %ax,%ax
  103e42:	66 90                	xchg   %ax,%ax
  103e44:	66 90                	xchg   %ax,%ax
  103e46:	66 90                	xchg   %ax,%ax
  103e48:	66 90                	xchg   %ax,%ax
  103e4a:	66 90                	xchg   %ax,%ax
  103e4c:	66 90                	xchg   %ax,%ax
  103e4e:	66 90                	xchg   %ax,%ax
  103e50:	66 90                	xchg   %ax,%ax
  103e52:	66 90                	xchg   %ax,%ax
  103e54:	66 90                	xchg   %ax,%ax
  103e56:	66 90                	xchg   %ax,%ax
  103e58:	66 90                	xchg   %ax,%ax
  103e5a:	66 90                	xchg   %ax,%ax
  103e5c:	66 90                	xchg   %ax,%ax
  103e5e:	66 90                	xchg   %ax,%ax
  103e60:	66 90                	xchg   %ax,%ax
  103e62:	66 90                	xchg   %ax,%ax
  103e64:	66 90                	xchg   %ax,%ax
  103e66:	66 90                	xchg   %ax,%ax
  103e68:	66 90                	xchg   %ax,%ax
  103e6a:	66 90                	xchg   %ax,%ax
  103e6c:	66 90                	xchg   %ax,%ax
  103e6e:	66 90                	xchg   %ax,%ax
  103e70:	66 90                	xchg   %ax,%ax
  103e72:	66 90                	xchg   %ax,%ax
  103e74:	66 90                	xchg   %ax,%ax
  103e76:	66 90                	xchg   %ax,%ax
  103e78:	66 90                	xchg   %ax,%ax
  103e7a:	66 90                	xchg   %ax,%ax
  103e7c:	66 90                	xchg   %ax,%ax
  103e7e:	66 90                	xchg   %ax,%ax
  103e80:	66 90                	xchg   %ax,%ax
  103e82:	66 90                	xchg   %ax,%ax
  103e84:	66 90                	xchg   %ax,%ax
  103e86:	66 90                	xchg   %ax,%ax
  103e88:	66 90                	xchg   %ax,%ax
  103e8a:	66 90                	xchg   %ax,%ax
  103e8c:	66 90                	xchg   %ax,%ax
  103e8e:	66 90                	xchg   %ax,%ax
  103e90:	66 90                	xchg   %ax,%ax
  103e92:	66 90                	xchg   %ax,%ax
  103e94:	66 90                	xchg   %ax,%ax
  103e96:	66 90                	xchg   %ax,%ax
  103e98:	66 90                	xchg   %ax,%ax
  103e9a:	66 90                	xchg   %ax,%ax
  103e9c:	66 90                	xchg   %ax,%ax
  103e9e:	66 90                	xchg   %ax,%ax
  103ea0:	66 90                	xchg   %ax,%ax
  103ea2:	66 90                	xchg   %ax,%ax
  103ea4:	66 90                	xchg   %ax,%ax
  103ea6:	66 90                	xchg   %ax,%ax
  103ea8:	66 90                	xchg   %ax,%ax
  103eaa:	66 90                	xchg   %ax,%ax
  103eac:	66 90                	xchg   %ax,%ax
  103eae:	66 90                	xchg   %ax,%ax
  103eb0:	66 90                	xchg   %ax,%ax
  103eb2:	66 90                	xchg   %ax,%ax
  103eb4:	66 90                	xchg   %ax,%ax
  103eb6:	66 90                	xchg   %ax,%ax
  103eb8:	66 90                	xchg   %ax,%ax
  103eba:	66 90                	xchg   %ax,%ax
  103ebc:	66 90                	xchg   %ax,%ax
  103ebe:	66 90                	xchg   %ax,%ax
  103ec0:	66 90                	xchg   %ax,%ax
  103ec2:	66 90                	xchg   %ax,%ax
  103ec4:	66 90                	xchg   %ax,%ax
  103ec6:	66 90                	xchg   %ax,%ax
  103ec8:	66 90                	xchg   %ax,%ax
  103eca:	66 90                	xchg   %ax,%ax
  103ecc:	66 90                	xchg   %ax,%ax
  103ece:	66 90                	xchg   %ax,%ax
  103ed0:	66 90                	xchg   %ax,%ax
  103ed2:	66 90                	xchg   %ax,%ax
  103ed4:	66 90                	xchg   %ax,%ax
  103ed6:	66 90                	xchg   %ax,%ax
  103ed8:	66 90                	xchg   %ax,%ax
  103eda:	66 90                	xchg   %ax,%ax
  103edc:	66 90                	xchg   %ax,%ax
  103ede:	66 90                	xchg   %ax,%ax
  103ee0:	66 90                	xchg   %ax,%ax
  103ee2:	66 90                	xchg   %ax,%ax
  103ee4:	66 90                	xchg   %ax,%ax
  103ee6:	66 90                	xchg   %ax,%ax
  103ee8:	66 90                	xchg   %ax,%ax
  103eea:	66 90                	xchg   %ax,%ax
  103eec:	66 90                	xchg   %ax,%ax
  103eee:	66 90                	xchg   %ax,%ax
  103ef0:	66 90                	xchg   %ax,%ax
  103ef2:	66 90                	xchg   %ax,%ax
  103ef4:	66 90                	xchg   %ax,%ax
  103ef6:	66 90                	xchg   %ax,%ax
  103ef8:	66 90                	xchg   %ax,%ax
  103efa:	66 90                	xchg   %ax,%ax
  103efc:	66 90                	xchg   %ax,%ax
  103efe:	66 90                	xchg   %ax,%ax
  103f00:	66 90                	xchg   %ax,%ax
  103f02:	66 90                	xchg   %ax,%ax
  103f04:	66 90                	xchg   %ax,%ax
  103f06:	66 90                	xchg   %ax,%ax
  103f08:	66 90                	xchg   %ax,%ax
  103f0a:	66 90                	xchg   %ax,%ax
  103f0c:	66 90                	xchg   %ax,%ax
  103f0e:	66 90                	xchg   %ax,%ax
  103f10:	66 90                	xchg   %ax,%ax
  103f12:	66 90                	xchg   %ax,%ax
  103f14:	66 90                	xchg   %ax,%ax
  103f16:	66 90                	xchg   %ax,%ax
  103f18:	66 90                	xchg   %ax,%ax
  103f1a:	66 90                	xchg   %ax,%ax
  103f1c:	66 90                	xchg   %ax,%ax
  103f1e:	66 90                	xchg   %ax,%ax
  103f20:	66 90                	xchg   %ax,%ax
  103f22:	66 90                	xchg   %ax,%ax
  103f24:	66 90                	xchg   %ax,%ax
  103f26:	66 90                	xchg   %ax,%ax
  103f28:	66 90                	xchg   %ax,%ax
  103f2a:	66 90                	xchg   %ax,%ax
  103f2c:	66 90                	xchg   %ax,%ax
  103f2e:	66 90                	xchg   %ax,%ax
  103f30:	66 90                	xchg   %ax,%ax
  103f32:	66 90                	xchg   %ax,%ax
  103f34:	66 90                	xchg   %ax,%ax
  103f36:	66 90                	xchg   %ax,%ax
  103f38:	66 90                	xchg   %ax,%ax
  103f3a:	66 90                	xchg   %ax,%ax
  103f3c:	66 90                	xchg   %ax,%ax
  103f3e:	66 90                	xchg   %ax,%ax
  103f40:	66 90                	xchg   %ax,%ax
  103f42:	66 90                	xchg   %ax,%ax
  103f44:	66 90                	xchg   %ax,%ax
  103f46:	66 90                	xchg   %ax,%ax
  103f48:	66 90                	xchg   %ax,%ax
  103f4a:	66 90                	xchg   %ax,%ax
  103f4c:	66 90                	xchg   %ax,%ax
  103f4e:	66 90                	xchg   %ax,%ax
  103f50:	66 90                	xchg   %ax,%ax
  103f52:	66 90                	xchg   %ax,%ax
  103f54:	66 90                	xchg   %ax,%ax
  103f56:	66 90                	xchg   %ax,%ax
  103f58:	66 90                	xchg   %ax,%ax
  103f5a:	66 90                	xchg   %ax,%ax
  103f5c:	66 90                	xchg   %ax,%ax
  103f5e:	66 90                	xchg   %ax,%ax
  103f60:	66 90                	xchg   %ax,%ax
  103f62:	66 90                	xchg   %ax,%ax
  103f64:	66 90                	xchg   %ax,%ax
  103f66:	66 90                	xchg   %ax,%ax
  103f68:	66 90                	xchg   %ax,%ax
  103f6a:	66 90                	xchg   %ax,%ax
  103f6c:	66 90                	xchg   %ax,%ax
  103f6e:	66 90                	xchg   %ax,%ax
  103f70:	66 90                	xchg   %ax,%ax
  103f72:	66 90                	xchg   %ax,%ax
  103f74:	66 90                	xchg   %ax,%ax
  103f76:	66 90                	xchg   %ax,%ax
  103f78:	66 90                	xchg   %ax,%ax
  103f7a:	66 90                	xchg   %ax,%ax
  103f7c:	66 90                	xchg   %ax,%ax
  103f7e:	66 90                	xchg   %ax,%ax
  103f80:	66 90                	xchg   %ax,%ax
  103f82:	66 90                	xchg   %ax,%ax
  103f84:	66 90                	xchg   %ax,%ax
  103f86:	66 90                	xchg   %ax,%ax
  103f88:	66 90                	xchg   %ax,%ax
  103f8a:	66 90                	xchg   %ax,%ax
  103f8c:	66 90                	xchg   %ax,%ax
  103f8e:	66 90                	xchg   %ax,%ax
  103f90:	66 90                	xchg   %ax,%ax
  103f92:	66 90                	xchg   %ax,%ax
  103f94:	66 90                	xchg   %ax,%ax
  103f96:	66 90                	xchg   %ax,%ax
  103f98:	66 90                	xchg   %ax,%ax
  103f9a:	66 90                	xchg   %ax,%ax
  103f9c:	66 90                	xchg   %ax,%ax
  103f9e:	66 90                	xchg   %ax,%ax
  103fa0:	66 90                	xchg   %ax,%ax
  103fa2:	66 90                	xchg   %ax,%ax
  103fa4:	66 90                	xchg   %ax,%ax
  103fa6:	66 90                	xchg   %ax,%ax
  103fa8:	66 90                	xchg   %ax,%ax
  103faa:	66 90                	xchg   %ax,%ax
  103fac:	66 90                	xchg   %ax,%ax
  103fae:	66 90                	xchg   %ax,%ax
  103fb0:	66 90                	xchg   %ax,%ax
  103fb2:	66 90                	xchg   %ax,%ax
  103fb4:	66 90                	xchg   %ax,%ax
  103fb6:	66 90                	xchg   %ax,%ax
  103fb8:	66 90                	xchg   %ax,%ax
  103fba:	66 90                	xchg   %ax,%ax
  103fbc:	66 90                	xchg   %ax,%ax
  103fbe:	66 90                	xchg   %ax,%ax
  103fc0:	66 90                	xchg   %ax,%ax
  103fc2:	66 90                	xchg   %ax,%ax
  103fc4:	66 90                	xchg   %ax,%ax
  103fc6:	66 90                	xchg   %ax,%ax
  103fc8:	66 90                	xchg   %ax,%ax
  103fca:	66 90                	xchg   %ax,%ax
  103fcc:	66 90                	xchg   %ax,%ax
  103fce:	66 90                	xchg   %ax,%ax
  103fd0:	66 90                	xchg   %ax,%ax
  103fd2:	66 90                	xchg   %ax,%ax
  103fd4:	66 90                	xchg   %ax,%ax
  103fd6:	66 90                	xchg   %ax,%ax
  103fd8:	66 90                	xchg   %ax,%ax
  103fda:	66 90                	xchg   %ax,%ax
  103fdc:	66 90                	xchg   %ax,%ax
  103fde:	66 90                	xchg   %ax,%ax
  103fe0:	66 90                	xchg   %ax,%ax
  103fe2:	66 90                	xchg   %ax,%ax
  103fe4:	66 90                	xchg   %ax,%ax
  103fe6:	66 90                	xchg   %ax,%ax
  103fe8:	66 90                	xchg   %ax,%ax
  103fea:	66 90                	xchg   %ax,%ax
  103fec:	66 90                	xchg   %ax,%ax
  103fee:	66 90                	xchg   %ax,%ax
  103ff0:	66 90                	xchg   %ax,%ax
  103ff2:	66 90                	xchg   %ax,%ax
  103ff4:	66 90                	xchg   %ax,%ax
  103ff6:	66 90                	xchg   %ax,%ax
  103ff8:	66 90                	xchg   %ax,%ax
  103ffa:	66 90                	xchg   %ax,%ax
  103ffc:	66 90                	xchg   %ax,%ax
  103ffe:	66 90                	xchg   %ax,%ax

00104000 <FuncTask1>:
  104000:	55                   	push   %ebp
  104001:	89 e5                	mov    %esp,%ebp
  104003:	5d                   	pop    %ebp
  104004:	c3                   	ret    

00104005 <out>:
  104005:	8b 15 3c 20 20 00    	mov    0x20203c,%edx
  10400b:	55                   	push   %ebp
  10400c:	89 e5                	mov    %esp,%ebp
  10400e:	8d 4a 01             	lea    0x1(%edx),%ecx
  104011:	88 02                	mov    %al,(%edx)
  104013:	5d                   	pop    %ebp
  104014:	89 0d 3c 20 20 00    	mov    %ecx,0x20203c
  10401a:	c3                   	ret    

0010401b <outDgt>:
  10401b:	55                   	push   %ebp
  10401c:	3c 09                	cmp    $0x9,%al
  10401e:	b2 30                	mov    $0x30,%dl
  104020:	89 e5                	mov    %esp,%ebp
  104022:	7e 0f                	jle    104033 <outDgt+0x18>
  104024:	80 3d 29 20 20 00 01 	cmpb   $0x1,0x202029
  10402b:	19 d2                	sbb    %edx,%edx
  10402d:	83 e2 20             	and    $0x20,%edx
  104030:	83 c2 37             	add    $0x37,%edx
  104033:	01 d0                	add    %edx,%eax
  104035:	0f be c0             	movsbl %al,%eax
  104038:	e8 c8 ff ff ff       	call   104005 <out>
  10403d:	c6 05 28 20 20 00 01 	movb   $0x1,0x202028
  104044:	5d                   	pop    %ebp
  104045:	c3                   	ret    

00104046 <divOut>:
  104046:	0f b7 0d 2c 20 20 00 	movzwl 0x20202c,%ecx
  10404d:	55                   	push   %ebp
  10404e:	31 d2                	xor    %edx,%edx
  104050:	89 e5                	mov    %esp,%ebp
  104052:	53                   	push   %ebx
  104053:	31 db                	xor    %ebx,%ebx
  104055:	89 0d 2c 20 20 00    	mov    %ecx,0x20202c
  10405b:	39 c8                	cmp    %ecx,%eax
  10405d:	77 07                	ja     104066 <divOut+0x20>
  10405f:	29 c1                	sub    %eax,%ecx
  104061:	42                   	inc    %edx
  104062:	b3 01                	mov    $0x1,%bl
  104064:	eb f5                	jmp    10405b <divOut+0x15>
  104066:	84 db                	test   %bl,%bl
  104068:	74 06                	je     104070 <divOut+0x2a>
  10406a:	89 0d 2c 20 20 00    	mov    %ecx,0x20202c
  104070:	80 3d 28 20 20 00 00 	cmpb   $0x0,0x202028
  104077:	75 04                	jne    10407d <divOut+0x37>
  104079:	84 d2                	test   %dl,%dl
  10407b:	74 07                	je     104084 <divOut+0x3e>
  10407d:	5b                   	pop    %ebx
  10407e:	5d                   	pop    %ebp
  10407f:	0f be c2             	movsbl %dl,%eax
  104082:	eb 97                	jmp    10401b <outDgt>
  104084:	5b                   	pop    %ebx
  104085:	5d                   	pop    %ebp
  104086:	c3                   	ret    

00104087 <putchar>:
  104087:	55                   	push   %ebp
  104088:	89 e5                	mov    %esp,%ebp
  10408a:	83 ec 10             	sub    $0x10,%esp
  10408d:	0f b6 45 08          	movzbl 0x8(%ebp),%eax
  104091:	50                   	push   %eax
  104092:	68 f8 03 00 00       	push   $0x3f8
  104097:	e8 60 04 00 00       	call   1044fc <EE_uart_write_byte>
  10409c:	83 c4 10             	add    $0x10,%esp
  10409f:	c9                   	leave  
  1040a0:	c3                   	ret    

001040a1 <tfp_printf>:
  1040a1:	55                   	push   %ebp
  1040a2:	89 e5                	mov    %esp,%ebp
  1040a4:	57                   	push   %edi
  1040a5:	56                   	push   %esi
  1040a6:	53                   	push   %ebx
  1040a7:	8d 55 0c             	lea    0xc(%ebp),%edx
  1040aa:	83 ec 1c             	sub    $0x1c,%esp
  1040ad:	8b 5d 08             	mov    0x8(%ebp),%ebx
  1040b0:	0f be 03             	movsbl (%ebx),%eax
  1040b3:	84 c0                	test   %al,%al
  1040b5:	0f 84 e9 01 00 00    	je     1042a4 <tfp_printf+0x203>
  1040bb:	3c 25                	cmp    $0x25,%al
  1040bd:	74 15                	je     1040d4 <tfp_printf+0x33>
  1040bf:	83 ec 0c             	sub    $0xc,%esp
  1040c2:	89 55 e4             	mov    %edx,-0x1c(%ebp)
  1040c5:	43                   	inc    %ebx
  1040c6:	50                   	push   %eax
  1040c7:	e8 bb ff ff ff       	call   104087 <putchar>
  1040cc:	83 c4 10             	add    $0x10,%esp
  1040cf:	8b 55 e4             	mov    -0x1c(%ebp),%edx
  1040d2:	eb dc                	jmp    1040b0 <tfp_printf+0xf>
  1040d4:	8a 43 01             	mov    0x1(%ebx),%al
  1040d7:	3c 30                	cmp    $0x30,%al
  1040d9:	74 09                	je     1040e4 <tfp_printf+0x43>
  1040db:	83 c3 02             	add    $0x2,%ebx
  1040de:	c6 45 e4 00          	movb   $0x0,-0x1c(%ebp)
  1040e2:	eb 0a                	jmp    1040ee <tfp_printf+0x4d>
  1040e4:	8a 43 02             	mov    0x2(%ebx),%al
  1040e7:	c6 45 e4 01          	movb   $0x1,-0x1c(%ebp)
  1040eb:	83 c3 03             	add    $0x3,%ebx
  1040ee:	8d 48 d0             	lea    -0x30(%eax),%ecx
  1040f1:	31 f6                	xor    %esi,%esi
  1040f3:	80 f9 09             	cmp    $0x9,%cl
  1040f6:	77 1a                	ja     104112 <tfp_printf+0x71>
  1040f8:	8d 48 d0             	lea    -0x30(%eax),%ecx
  1040fb:	80 f9 09             	cmp    $0x9,%cl
  1040fe:	77 12                	ja     104112 <tfp_printf+0x71>
  104100:	8d 04 b5 00 00 00 00 	lea    0x0(,%esi,4),%eax
  104107:	43                   	inc    %ebx
  104108:	01 c6                	add    %eax,%esi
  10410a:	8a 43 ff             	mov    -0x1(%ebx),%al
  10410d:	8d 34 71             	lea    (%ecx,%esi,2),%esi
  104110:	eb e6                	jmp    1040f8 <tfp_printf+0x57>
  104112:	3c 63                	cmp    $0x63,%al
  104114:	c7 05 3c 20 20 00 30 	movl   $0x202030,0x20203c
  10411b:	20 20 00 
  10411e:	c6 05 28 20 20 00 00 	movb   $0x0,0x202028
  104125:	0f 84 c6 00 00 00    	je     1041f1 <tfp_printf+0x150>
  10412b:	7f 19                	jg     104146 <tfp_printf+0xa5>
  10412d:	3c 25                	cmp    $0x25,%al
  10412f:	0f 84 d0 00 00 00    	je     104205 <tfp_printf+0x164>
  104135:	3c 58                	cmp    $0x58,%al
  104137:	74 77                	je     1041b0 <tfp_printf+0x10f>
  104139:	84 c0                	test   %al,%al
  10413b:	0f 84 63 01 00 00    	je     1042a4 <tfp_printf+0x203>
  104141:	e9 d6 00 00 00       	jmp    10421c <tfp_printf+0x17b>
  104146:	3c 73                	cmp    $0x73,%al
  104148:	0f 84 b0 00 00 00    	je     1041fe <tfp_printf+0x15d>
  10414e:	7f 09                	jg     104159 <tfp_printf+0xb8>
  104150:	3c 64                	cmp    $0x64,%al
  104152:	74 12                	je     104166 <tfp_printf+0xc5>
  104154:	e9 c3 00 00 00       	jmp    10421c <tfp_printf+0x17b>
  104159:	3c 75                	cmp    $0x75,%al
  10415b:	74 09                	je     104166 <tfp_printf+0xc5>
  10415d:	3c 78                	cmp    $0x78,%al
  10415f:	74 4f                	je     1041b0 <tfp_printf+0x10f>
  104161:	e9 b6 00 00 00       	jmp    10421c <tfp_printf+0x17b>
  104166:	8d 7a 04             	lea    0x4(%edx),%edi
  104169:	8b 12                	mov    (%edx),%edx
  10416b:	3c 64                	cmp    $0x64,%al
  10416d:	89 15 2c 20 20 00    	mov    %edx,0x20202c
  104173:	75 16                	jne    10418b <tfp_printf+0xea>
  104175:	85 d2                	test   %edx,%edx
  104177:	79 12                	jns    10418b <tfp_printf+0xea>
  104179:	f7 da                	neg    %edx
  10417b:	b8 2d 00 00 00       	mov    $0x2d,%eax
  104180:	89 15 2c 20 20 00    	mov    %edx,0x20202c
  104186:	e8 7a fe ff ff       	call   104005 <out>
  10418b:	b8 10 27 00 00       	mov    $0x2710,%eax
  104190:	e8 b1 fe ff ff       	call   104046 <divOut>
  104195:	b8 e8 03 00 00       	mov    $0x3e8,%eax
  10419a:	e8 a7 fe ff ff       	call   104046 <divOut>
  10419f:	b8 64 00 00 00       	mov    $0x64,%eax
  1041a4:	e8 9d fe ff ff       	call   104046 <divOut>
  1041a9:	b8 0a 00 00 00       	mov    $0xa,%eax
  1041ae:	eb 2c                	jmp    1041dc <tfp_printf+0x13b>
  1041b0:	3c 58                	cmp    $0x58,%al
  1041b2:	8b 02                	mov    (%edx),%eax
  1041b4:	8d 7a 04             	lea    0x4(%edx),%edi
  1041b7:	0f 94 05 29 20 20 00 	sete   0x202029
  1041be:	a3 2c 20 20 00       	mov    %eax,0x20202c
  1041c3:	b8 00 10 00 00       	mov    $0x1000,%eax
  1041c8:	e8 79 fe ff ff       	call   104046 <divOut>
  1041cd:	b8 00 01 00 00       	mov    $0x100,%eax
  1041d2:	e8 6f fe ff ff       	call   104046 <divOut>
  1041d7:	b8 10 00 00 00       	mov    $0x10,%eax
  1041dc:	e8 65 fe ff ff       	call   104046 <divOut>
  1041e1:	0f be 05 2c 20 20 00 	movsbl 0x20202c,%eax
  1041e8:	e8 2e fe ff ff       	call   10401b <outDgt>
  1041ed:	89 fa                	mov    %edi,%edx
  1041ef:	eb 2b                	jmp    10421c <tfp_printf+0x17b>
  1041f1:	0f be 02             	movsbl (%edx),%eax
  1041f4:	8d 7a 04             	lea    0x4(%edx),%edi
  1041f7:	e8 09 fe ff ff       	call   104005 <out>
  1041fc:	eb ef                	jmp    1041ed <tfp_printf+0x14c>
  1041fe:	8b 3a                	mov    (%edx),%edi
  104200:	83 c2 04             	add    $0x4,%edx
  104203:	eb 1c                	jmp    104221 <tfp_printf+0x180>
  104205:	b8 25 00 00 00       	mov    $0x25,%eax
  10420a:	89 55 e0             	mov    %edx,-0x20(%ebp)
  10420d:	bf 30 20 20 00       	mov    $0x202030,%edi
  104212:	e8 ee fd ff ff       	call   104005 <out>
  104217:	8b 55 e0             	mov    -0x20(%ebp),%edx
  10421a:	eb 05                	jmp    104221 <tfp_printf+0x180>
  10421c:	bf 30 20 20 00       	mov    $0x202030,%edi
  104221:	a1 3c 20 20 00       	mov    0x20203c,%eax
  104226:	89 3d 3c 20 20 00    	mov    %edi,0x20203c
  10422c:	c6 00 00             	movb   $0x0,(%eax)
  10422f:	8d 47 01             	lea    0x1(%edi),%eax
  104232:	80 78 ff 00          	cmpb   $0x0,-0x1(%eax)
  104236:	89 45 e0             	mov    %eax,-0x20(%ebp)
  104239:	75 13                	jne    10424e <tfp_printf+0x1ad>
  10423b:	80 7d e4 01          	cmpb   $0x1,-0x1c(%ebp)
  10423f:	a3 3c 20 20 00       	mov    %eax,0x20203c
  104244:	19 c0                	sbb    %eax,%eax
  104246:	83 e0 f0             	and    $0xfffffff0,%eax
  104249:	83 c0 30             	add    $0x30,%eax
  10424c:	eb 14                	jmp    104262 <tfp_printf+0x1c1>
  10424e:	89 f1                	mov    %esi,%ecx
  104250:	40                   	inc    %eax
  104251:	84 c9                	test   %cl,%cl
  104253:	7e 03                	jle    104258 <tfp_printf+0x1b7>
  104255:	4e                   	dec    %esi
  104256:	eb da                	jmp    104232 <tfp_printf+0x191>
  104258:	8b 45 e0             	mov    -0x20(%ebp),%eax
  10425b:	a3 3c 20 20 00       	mov    %eax,0x20203c
  104260:	eb 21                	jmp    104283 <tfp_printf+0x1e2>
  104262:	89 f1                	mov    %esi,%ecx
  104264:	84 c9                	test   %cl,%cl
  104266:	7e 1b                	jle    104283 <tfp_printf+0x1e2>
  104268:	83 ec 0c             	sub    $0xc,%esp
  10426b:	89 55 e0             	mov    %edx,-0x20(%ebp)
  10426e:	89 45 e4             	mov    %eax,-0x1c(%ebp)
  104271:	50                   	push   %eax
  104272:	4e                   	dec    %esi
  104273:	e8 0f fe ff ff       	call   104087 <putchar>
  104278:	83 c4 10             	add    $0x10,%esp
  10427b:	8b 55 e0             	mov    -0x20(%ebp),%edx
  10427e:	8b 45 e4             	mov    -0x1c(%ebp),%eax
  104281:	eb df                	jmp    104262 <tfp_printf+0x1c1>
  104283:	47                   	inc    %edi
  104284:	0f be 47 ff          	movsbl -0x1(%edi),%eax
  104288:	84 c0                	test   %al,%al
  10428a:	0f 84 20 fe ff ff    	je     1040b0 <tfp_printf+0xf>
  104290:	83 ec 0c             	sub    $0xc,%esp
  104293:	89 55 e4             	mov    %edx,-0x1c(%ebp)
  104296:	50                   	push   %eax
  104297:	e8 eb fd ff ff       	call   104087 <putchar>
  10429c:	83 c4 10             	add    $0x10,%esp
  10429f:	8b 55 e4             	mov    -0x1c(%ebp),%edx
  1042a2:	eb df                	jmp    104283 <tfp_printf+0x1e2>
  1042a4:	8d 65 f4             	lea    -0xc(%ebp),%esp
  1042a7:	5b                   	pop    %ebx
  1042a8:	5e                   	pop    %esi
  1042a9:	5f                   	pop    %edi
  1042aa:	5d                   	pop    %ebp
  1042ab:	c3                   	ret    

001042ac <run_constructors>:
  1042ac:	55                   	push   %ebp
  1042ad:	89 e5                	mov    %esp,%ebp
  1042af:	83 ec 18             	sub    $0x18,%esp
  1042b2:	c7 45 f4 10 3d 10 00 	movl   $0x103d10,-0xc(%ebp)
  1042b9:	8b 45 f4             	mov    -0xc(%ebp),%eax
  1042bc:	3d 10 3d 10 00       	cmp    $0x103d10,%eax
  1042c1:	74 10                	je     1042d3 <run_constructors+0x27>
  1042c3:	8b 45 f4             	mov    -0xc(%ebp),%eax
  1042c6:	ff 10                	call   *(%eax)
  1042c8:	8b 45 f4             	mov    -0xc(%ebp),%eax
  1042cb:	83 c0 04             	add    $0x4,%eax
  1042ce:	89 45 f4             	mov    %eax,-0xc(%ebp)
  1042d1:	eb e6                	jmp    1042b9 <run_constructors+0xd>
  1042d3:	c9                   	leave  
  1042d4:	c3                   	ret    

001042d5 <arch_startup>:
  1042d5:	55                   	push   %ebp
  1042d6:	89 e5                	mov    %esp,%ebp
  1042d8:	83 ec 08             	sub    $0x8,%esp
  1042db:	e8 cc ff ff ff       	call   1042ac <run_constructors>
  1042e0:	e8 05 00 00 00       	call   1042ea <EE_mcu_x86_init>
  1042e5:	e8 26 fa ff ff       	call   103d10 <main>

001042ea <EE_mcu_x86_init>:
  1042ea:	55                   	push   %ebp
  1042eb:	89 e5                	mov    %esp,%ebp
  1042ed:	83 ec 08             	sub    $0x8,%esp
  1042f0:	e8 5a 00 00 00       	call   10434f <EE_gdt_init>
  1042f5:	e8 8f 02 00 00       	call   104589 <EE_idt_init>
  1042fa:	e4 21                	in     $0x21,%al
  1042fc:	88 c1                	mov    %al,%cl
  1042fe:	e4 a1                	in     $0xa1,%al
  104300:	88 c2                	mov    %al,%dl
  104302:	b0 11                	mov    $0x11,%al
  104304:	e6 20                	out    %al,$0x20
  104306:	e6 80                	out    %al,$0x80
  104308:	e6 a0                	out    %al,$0xa0
  10430a:	e6 80                	out    %al,$0x80
  10430c:	b0 30                	mov    $0x30,%al
  10430e:	e6 21                	out    %al,$0x21
  104310:	e6 80                	out    %al,$0x80
  104312:	b0 38                	mov    $0x38,%al
  104314:	e6 a1                	out    %al,$0xa1
  104316:	e6 80                	out    %al,$0x80
  104318:	b0 04                	mov    $0x4,%al
  10431a:	e6 21                	out    %al,$0x21
  10431c:	e6 80                	out    %al,$0x80
  10431e:	b0 02                	mov    $0x2,%al
  104320:	e6 a1                	out    %al,$0xa1
  104322:	e6 80                	out    %al,$0x80
  104324:	b0 01                	mov    $0x1,%al
  104326:	e6 21                	out    %al,$0x21
  104328:	e6 80                	out    %al,$0x80
  10432a:	e6 a1                	out    %al,$0xa1
  10432c:	e6 80                	out    %al,$0x80
  10432e:	88 c8                	mov    %cl,%al
  104330:	e6 21                	out    %al,$0x21
  104332:	88 d0                	mov    %dl,%al
  104334:	e6 a1                	out    %al,$0xa1
  104336:	a1 f0 00 e0 fe       	mov    0xfee000f0,%eax
  10433b:	80 cc 01             	or     $0x1,%ah
  10433e:	a3 f0 00 e0 fe       	mov    %eax,0xfee000f0
  104343:	b0 ff                	mov    $0xff,%al
  104345:	e6 21                	out    %al,$0x21
  104347:	e6 a1                	out    %al,$0xa1
  104349:	c9                   	leave  
  10434a:	e9 1b 01 00 00       	jmp    10446a <EE_ioapic_init>

0010434f <EE_gdt_init>:
  10434f:	55                   	push   %ebp
  104350:	66 c7 05 40 20 20 00 	movw   $0x2f,0x202040
  104357:	2f 00 
  104359:	c7 05 42 20 20 00 60 	movl   $0x202060,0x202042
  104360:	20 20 00 
  104363:	66 c7 05 62 20 20 00 	movw   $0x0,0x202062
  10436a:	00 00 
  10436c:	89 e5                	mov    %esp,%ebp
  10436e:	c6 05 64 20 20 00 00 	movb   $0x0,0x202064
  104375:	c6 05 67 20 20 00 00 	movb   $0x0,0x202067
  10437c:	66 c7 05 60 20 20 00 	movw   $0x0,0x202060
  104383:	00 00 
  104385:	c6 05 66 20 20 00 00 	movb   $0x0,0x202066
  10438c:	c6 05 65 20 20 00 00 	movb   $0x0,0x202065
  104393:	66 c7 05 6a 20 20 00 	movw   $0x0,0x20206a
  10439a:	00 00 
  10439c:	c6 05 6c 20 20 00 00 	movb   $0x0,0x20206c
  1043a3:	c6 05 6f 20 20 00 00 	movb   $0x0,0x20206f
  1043aa:	66 c7 05 68 20 20 00 	movw   $0xffff,0x202068
  1043b1:	ff ff 
  1043b3:	c6 05 6e 20 20 00 cf 	movb   $0xcf,0x20206e
  1043ba:	c6 05 6d 20 20 00 9a 	movb   $0x9a,0x20206d
  1043c1:	66 c7 05 72 20 20 00 	movw   $0x0,0x202072
  1043c8:	00 00 
  1043ca:	c6 05 74 20 20 00 00 	movb   $0x0,0x202074
  1043d1:	c6 05 77 20 20 00 00 	movb   $0x0,0x202077
  1043d8:	66 c7 05 70 20 20 00 	movw   $0xffff,0x202070
  1043df:	ff ff 
  1043e1:	c6 05 76 20 20 00 cf 	movb   $0xcf,0x202076
  1043e8:	c6 05 75 20 20 00 92 	movb   $0x92,0x202075
  1043ef:	66 c7 05 7a 20 20 00 	movw   $0x0,0x20207a
  1043f6:	00 00 
  1043f8:	c6 05 7c 20 20 00 00 	movb   $0x0,0x20207c
  1043ff:	c6 05 7f 20 20 00 00 	movb   $0x0,0x20207f
  104406:	66 c7 05 78 20 20 00 	movw   $0xffff,0x202078
  10440d:	ff ff 
  10440f:	c6 05 7e 20 20 00 cf 	movb   $0xcf,0x20207e
  104416:	c6 05 7d 20 20 00 fa 	movb   $0xfa,0x20207d
  10441d:	66 c7 05 82 20 20 00 	movw   $0x0,0x202082
  104424:	00 00 
  104426:	c6 05 84 20 20 00 00 	movb   $0x0,0x202084
  10442d:	c6 05 87 20 20 00 00 	movb   $0x0,0x202087
  104434:	66 c7 05 80 20 20 00 	movw   $0xffff,0x202080
  10443b:	ff ff 
  10443d:	c6 05 86 20 20 00 cf 	movb   $0xcf,0x202086
  104444:	c6 05 85 20 20 00 f2 	movb   $0xf2,0x202085
  10444b:	0f 01 15 40 20 20 00 	lgdtl  0x202040
  104452:	b8 10 00 00 00       	mov    $0x10,%eax
  104457:	8e d8                	mov    %eax,%ds
  104459:	8e e8                	mov    %eax,%gs
  10445b:	8e c0                	mov    %eax,%es
  10445d:	8e e0                	mov    %eax,%fs
  10445f:	8e d0                	mov    %eax,%ss
  104461:	ea 68 44 10 00 08 00 	ljmp   $0x8,$0x104468
  104468:	5d                   	pop    %ebp
  104469:	c3                   	ret    

0010446a <EE_ioapic_init>:
  10446a:	55                   	push   %ebp
  10446b:	89 e5                	mov    %esp,%ebp
  10446d:	5d                   	pop    %ebp
  10446e:	c3                   	ret    

0010446f <EE_ioapic_setup_irq>:
  10446f:	55                   	push   %ebp
  104470:	89 e5                	mov    %esp,%ebp
  104472:	0f b6 45 08          	movzbl 0x8(%ebp),%eax
  104476:	0f b6 55 0c          	movzbl 0xc(%ebp),%edx
  10447a:	8d 44 00 10          	lea    0x10(%eax,%eax,1),%eax
  10447e:	25 fe 00 00 00       	and    $0xfe,%eax
  104483:	a3 00 00 c0 fe       	mov    %eax,0xfec00000
  104488:	89 15 10 00 c0 fe    	mov    %edx,0xfec00010
  10448e:	5d                   	pop    %ebp
  10448f:	c3                   	ret    

00104490 <EE_ioapic_setup_irq_extended>:
  104490:	55                   	push   %ebp
  104491:	89 e5                	mov    %esp,%ebp
  104493:	0f b6 55 0c          	movzbl 0xc(%ebp),%edx
  104497:	8b 45 10             	mov    0x10(%ebp),%eax
  10449a:	c1 e0 08             	shl    $0x8,%eax
  10449d:	09 d0                	or     %edx,%eax
  10449f:	0f b6 55 14          	movzbl 0x14(%ebp),%edx
  1044a3:	c1 e2 0d             	shl    $0xd,%edx
  1044a6:	09 d0                	or     %edx,%eax
  1044a8:	0f b6 55 08          	movzbl 0x8(%ebp),%edx
  1044ac:	8d 54 12 10          	lea    0x10(%edx,%edx,1),%edx
  1044b0:	81 e2 fe 00 00 00    	and    $0xfe,%edx
  1044b6:	89 15 00 00 c0 fe    	mov    %edx,0xfec00000
  1044bc:	a3 10 00 c0 fe       	mov    %eax,0xfec00010
  1044c1:	5d                   	pop    %ebp
  1044c2:	c3                   	ret    

001044c3 <EE_uart_init>:
  1044c3:	55                   	push   %ebp
  1044c4:	31 c0                	xor    %eax,%eax
  1044c6:	89 e5                	mov    %esp,%ebp
  1044c8:	56                   	push   %esi
  1044c9:	53                   	push   %ebx
  1044ca:	8b 4d 08             	mov    0x8(%ebp),%ecx
  1044cd:	8d 71 01             	lea    0x1(%ecx),%esi
  1044d0:	89 f2                	mov    %esi,%edx
  1044d2:	ee                   	out    %al,(%dx)
  1044d3:	8d 59 03             	lea    0x3(%ecx),%ebx
  1044d6:	b0 80                	mov    $0x80,%al
  1044d8:	89 da                	mov    %ebx,%edx
  1044da:	ee                   	out    %al,(%dx)
  1044db:	b0 03                	mov    $0x3,%al
  1044dd:	89 ca                	mov    %ecx,%edx
  1044df:	ee                   	out    %al,(%dx)
  1044e0:	31 c0                	xor    %eax,%eax
  1044e2:	89 f2                	mov    %esi,%edx
  1044e4:	ee                   	out    %al,(%dx)
  1044e5:	b0 03                	mov    $0x3,%al
  1044e7:	89 da                	mov    %ebx,%edx
  1044e9:	ee                   	out    %al,(%dx)
  1044ea:	b0 c7                	mov    $0xc7,%al
  1044ec:	8d 51 02             	lea    0x2(%ecx),%edx
  1044ef:	ee                   	out    %al,(%dx)
  1044f0:	b0 0b                	mov    $0xb,%al
  1044f2:	8d 51 04             	lea    0x4(%ecx),%edx
  1044f5:	ee                   	out    %al,(%dx)
  1044f6:	b0 01                	mov    $0x1,%al
  1044f8:	5b                   	pop    %ebx
  1044f9:	5e                   	pop    %esi
  1044fa:	5d                   	pop    %ebp
  1044fb:	c3                   	ret    

001044fc <EE_uart_write_byte>:
  1044fc:	55                   	push   %ebp
  1044fd:	89 e5                	mov    %esp,%ebp
  1044ff:	53                   	push   %ebx
  104500:	8b 4d 08             	mov    0x8(%ebp),%ecx
  104503:	8b 5d 0c             	mov    0xc(%ebp),%ebx
  104506:	8d 51 05             	lea    0x5(%ecx),%edx
  104509:	ec                   	in     (%dx),%al
  10450a:	a8 20                	test   $0x20,%al
  10450c:	74 fb                	je     104509 <EE_uart_write_byte+0xd>
  10450e:	88 d8                	mov    %bl,%al
  104510:	89 ca                	mov    %ecx,%edx
  104512:	ee                   	out    %al,(%dx)
  104513:	b0 01                	mov    $0x1,%al
  104515:	5b                   	pop    %ebx
  104516:	5d                   	pop    %ebp
  104517:	c3                   	ret    

00104518 <EE_uart_puts>:
  104518:	55                   	push   %ebp
  104519:	89 e5                	mov    %esp,%ebp
  10451b:	57                   	push   %edi
  10451c:	56                   	push   %esi
  10451d:	53                   	push   %ebx
  10451e:	8b 5d 08             	mov    0x8(%ebp),%ebx
  104521:	8b 75 0c             	mov    0xc(%ebp),%esi
  104524:	0f b7 fb             	movzwl %bx,%edi
  104527:	0f b6 06             	movzbl (%esi),%eax
  10452a:	84 c0                	test   %al,%al
  10452c:	74 0c                	je     10453a <EE_uart_puts+0x22>
  10452e:	50                   	push   %eax
  10452f:	57                   	push   %edi
  104530:	46                   	inc    %esi
  104531:	e8 c6 ff ff ff       	call   1044fc <EE_uart_write_byte>
  104536:	59                   	pop    %ecx
  104537:	58                   	pop    %eax
  104538:	eb ed                	jmp    104527 <EE_uart_puts+0xf>
  10453a:	0f b7 db             	movzwl %bx,%ebx
  10453d:	6a 0d                	push   $0xd
  10453f:	53                   	push   %ebx
  104540:	e8 b7 ff ff ff       	call   1044fc <EE_uart_write_byte>
  104545:	89 5d 08             	mov    %ebx,0x8(%ebp)
  104548:	c7 45 0c 0a 00 00 00 	movl   $0xa,0xc(%ebp)
  10454f:	58                   	pop    %eax
  104550:	5a                   	pop    %edx
  104551:	8d 65 f4             	lea    -0xc(%ebp),%esp
  104554:	5b                   	pop    %ebx
  104555:	5e                   	pop    %esi
  104556:	5f                   	pop    %edi
  104557:	5d                   	pop    %ebp
  104558:	eb a2                	jmp    1044fc <EE_uart_write_byte>

0010455a <isr_unhandled>:
  10455a:	55                   	push   %ebp
  10455b:	89 e5                	mov    %esp,%ebp
  10455d:	83 ec 10             	sub    $0x10,%esp
  104560:	c7 05 14 20 20 00 01 	movl   $0x1,0x202014
  104567:	00 00 00 
  10456a:	ff 75 08             	pushl  0x8(%ebp)
  10456d:	68 d8 45 10 00       	push   $0x1045d8
  104572:	e8 2a fb ff ff       	call   1040a1 <tfp_printf>
  104577:	ba 04 b0 ff ff       	mov    $0xffffb004,%edx
  10457c:	b8 00 20 00 00       	mov    $0x2000,%eax
  104581:	66 ef                	out    %ax,(%dx)
  104583:	83 c4 10             	add    $0x10,%esp
  104586:	90                   	nop
  104587:	eb fd                	jmp    104586 <isr_unhandled+0x2c>

00104589 <EE_idt_init>:
  104589:	55                   	push   %ebp
  10458a:	89 e5                	mov    %esp,%ebp
  10458c:	83 ec 10             	sub    $0x10,%esp
  10458f:	66 c7 45 fa ff 07    	movw   $0x7ff,-0x6(%ebp)
  104595:	c7 45 fc fe 34 10 00 	movl   $0x1034fe,-0x4(%ebp)
  10459c:	0f 01 5d fa          	lidtl  -0x6(%ebp)
  1045a0:	c9                   	leave  
  1045a1:	c3                   	ret    

001045a2 <_etext>:
  1045a2:	53                   	push   %ebx
  1045a3:	74 61                	je     104606 <_erodata+0x14>
  1045a5:	72 74                	jb     10461b <_erodata+0x29>
  1045a7:	69 6e 67 20 45 72 69 	imul   $0x69724520,0x67(%esi),%ebp
  1045ae:	6b 61 20 2d          	imul   $0x2d,0x20(%ecx),%esp
  1045b2:	20 45 6e             	and    %al,0x6e(%ebp)
  1045b5:	74 65                	je     10461c <_erodata+0x2a>
  1045b7:	72 69                	jb     104622 <_erodata+0x30>
  1045b9:	6e                   	outsb  %ds:(%esi),(%dx)
  1045ba:	67 20 65 6e          	and    %ah,0x6e(%di)
  1045be:	64 6c                	fs insb (%dx),%es:(%edi)
  1045c0:	65 73 73             	gs jae 104636 <_erodata+0x44>
  1045c3:	20 6c 6f 6f          	and    %ch,0x6f(%edi,%ebp,2)
  1045c7:	70 00                	jo     1045c9 <_etext+0x27>
  1045c9:	66 90                	xchg   %ax,%ax
  1045cb:	90                   	nop

001045cc <EE_th_dispatch_prio>:
  1045cc:	01 00                	add    %eax,(%eax)
	...

001045d0 <EE_th_ready_prio>:
  1045d0:	01 00                	add    %eax,(%eax)
	...

001045d4 <EE_hal_thread_body>:
  1045d4:	00 40 10             	add    %al,0x10(%eax)
  1045d7:	00 55 6e             	add    %dl,0x6e(%ebp)
  1045da:	68 61 6e 64 6c       	push   $0x6c646e61
  1045df:	65 64 20 45 78       	gs and %al,%fs:0x78(%ebp)
  1045e4:	63 65 70             	arpl   %sp,0x70(%ebp)
  1045e7:	74 69                	je     104652 <_erodata+0x60>
  1045e9:	6f                   	outsl  %ds:(%esi),(%dx)
  1045ea:	6e                   	outsb  %ds:(%esi),(%dx)
  1045eb:	3a 20                	cmp    (%eax),%ah
  1045ed:	23                   	.byte 0x23
  1045ee:	25                   	.byte 0x25
  1045ef:	64 0a 00             	or     %fs:(%eax),%al

Disassembly of section .data:

00200000 <_stss>:
	...

00200068 <_etss>:
	...

00201000 <_sstack>:
	...

00201ff2 <_estack>:
	...

00202000 <EE_rqfirst>:
  202000:	ff                   	(bad)  
  202001:	ff                   	(bad)  
  202002:	ff                   	(bad)  
  202003:	ff                   	(bad)  

00202004 <EE_stkfirst>:
  202004:	ff                   	(bad)  
  202005:	ff                   	(bad)  
  202006:	ff                   	(bad)  
  202007:	ff                   	(bad)  

00202008 <EE_th_next>:
  202008:	ff                   	(bad)  
  202009:	ff                   	(bad)  
  20200a:	ff                   	(bad)  
  20200b:	ff 00                	incl   (%eax)

0020200c <EE_assertions>:
	...

0020200e <result>:
	...

00202010 <EE_th_nact>:
  202010:	00 00                	add    %al,(%eax)
	...

00202014 <EE_IRQ_nesting_level>:
  202014:	00 00                	add    %al,(%eax)
	...

00202018 <EE_std_endcycle_next_tid>:
  202018:	00 00                	add    %al,(%eax)
	...

Disassembly of section .bss:

00202020 <counter>:
  202020:	00 00                	add    %al,(%eax)
	...

00202024 <EE_sys_ceiling>:
  202024:	00 00                	add    %al,(%eax)
	...

00202028 <zs>:
	...

00202029 <uc>:
  202029:	00 00                	add    %al,(%eax)
	...

0020202c <num>:
  20202c:	00 00                	add    %al,(%eax)
	...

00202030 <buf>:
	...

0020203c <bf>:
  20203c:	00 00                	add    %al,(%eax)
	...

00202040 <_gp>:
	...

00202060 <gdt>:
	...

Disassembly of section .debug_info:

00000000 <.debug_info>:
       0:	20 02                	and    %al,(%edx)
       2:	00 00                	add    %al,(%eax)
       4:	04 00                	add    $0x0,%al
       6:	00 00                	add    %al,(%eax)
       8:	00 00                	add    %al,(%eax)
       a:	04 01                	add    $0x1,%al
       c:	b0 01                	mov    $0x1,%al
       e:	00 00                	add    %al,(%eax)
      10:	0c 28                	or     $0x28,%al
      12:	02 00                	add    (%eax),%al
      14:	00 69 01             	add    %ch,0x1(%ecx)
	...
      23:	00 00                	add    %al,(%eax)
      25:	02 01                	add    (%ecx),%al
      27:	08 d1                	or     %dl,%cl
      29:	00 00                	add    %al,(%eax)
      2b:	00 03                	add    %al,(%ebx)
      2d:	a7                   	cmpsl  %es:(%edi),%ds:(%esi)
      2e:	00 00                	add    %al,(%eax)
      30:	00 02                	add    %al,(%edx)
      32:	39 3c 00             	cmp    %edi,(%eax,%eax,1)
      35:	00 00                	add    %al,(%eax)
      37:	04 2c                	add    $0x2c,%al
      39:	00 00                	add    %al,(%eax)
      3b:	00 02                	add    %al,(%edx)
      3d:	01 06                	add    %eax,(%esi)
      3f:	d3 00                	roll   %cl,(%eax)
      41:	00 00                	add    %al,(%eax)
      43:	02 02                	add    (%edx),%al
      45:	05 0f 00 00 00       	add    $0xf,%eax
      4a:	02 02                	add    (%edx),%al
      4c:	07                   	pop    %es
      4d:	56                   	push   %esi
      4e:	01 00                	add    %eax,(%eax)
      50:	00 03                	add    %al,(%ebx)
      52:	25 01 00 00 02       	and    $0x2000001,%eax
      57:	4d                   	dec    %ebp
      58:	5c                   	pop    %esp
      59:	00 00                	add    %al,(%eax)
      5b:	00 05 04 05 69 6e    	add    %al,0x6e690504
      61:	74 00                	je     63 <_scga-0xb7f9d>
      63:	04 5c                	add    $0x5c,%al
      65:	00 00                	add    %al,(%eax)
      67:	00 03                	add    %al,(%ebx)
      69:	4f                   	dec    %edi
      6a:	00 00                	add    %al,(%eax)
      6c:	00 02                	add    %al,(%edx)
      6e:	4e                   	dec    %esi
      6f:	73 00                	jae    71 <_scga-0xb7f8f>
      71:	00 00                	add    %al,(%eax)
      73:	02 04 07             	add    (%edi,%eax,1),%al
      76:	ff 00                	incl   (%eax)
      78:	00 00                	add    %al,(%eax)
      7a:	02 08                	add    (%eax),%cl
      7c:	07                   	pop    %es
      7d:	f5                   	cmc    
      7e:	00 00                	add    %al,(%eax)
      80:	00 06                	add    %al,(%esi)
      82:	04 87                	add    $0x87,%al
      84:	00 00                	add    %al,(%eax)
      86:	00 07                	add    %al,(%edi)
      88:	03 1a                	add    (%edx),%ebx
      8a:	02 00                	add    (%eax),%al
      8c:	00 02                	add    %al,(%edx)
      8e:	6d                   	insl   (%dx),%es:(%edi)
      8f:	81 00 00 00 08 88    	addl   $0x88080000,(%eax)
      95:	00 00                	add    %al,(%eax)
      97:	00 03                	add    %al,(%ebx)
      99:	07                   	pop    %es
      9a:	00 00                	add    %al,(%eax)
      9c:	00 03                	add    %al,(%ebx)
      9e:	43                   	inc    %ebx
      9f:	68 00 00 00 08       	push   $0x8000000
      a4:	98                   	cwtl   
      a5:	00 00                	add    %al,(%eax)
      a7:	00 03                	add    %al,(%ebx)
      a9:	6a 00                	push   $0x0
      ab:	00 00                	add    %al,(%eax)
      ad:	03 57 51             	add    0x51(%edi),%edx
      b0:	00 00                	add    %al,(%eax)
      b2:	00 02                	add    %al,(%edx)
      b4:	04 05                	add    $0x5,%al
      b6:	af                   	scas   %es:(%edi),%eax
      b7:	00 00                	add    %al,(%eax)
      b9:	00 09                	add    %cl,(%ecx)
      bb:	93                   	xchg   %eax,%ebx
      bc:	00 00                	add    %al,(%eax)
      be:	00 ca                	add    %cl,%dl
      c0:	00 00                	add    %al,(%eax)
      c2:	00 0a                	add    %cl,(%edx)
      c4:	cf                   	iret   
      c5:	00 00                	add    %al,(%eax)
      c7:	00 00                	add    %al,(%eax)
      c9:	00 08                	add    %cl,(%eax)
      cb:	ba 00 00 00 02       	mov    $0x2000000,%edx
      d0:	04 07                	add    $0x7,%al
      d2:	24 00                	and    $0x0,%al
      d4:	00 00                	add    %al,(%eax)
      d6:	0b 94 00 00 00 04 56 	or     0x56040000(%eax,%eax,1),%edx
      dd:	ca 00 00             	lret   $0x0
      e0:	00 02                	add    %al,(%edx)
      e2:	01 06                	add    %eax,(%esi)
      e4:	da 00                	fiaddl (%eax)
      e6:	00 00                	add    %al,(%eax)
      e8:	09 a3 00 00 00 f3    	or     %esp,-0xd000000(%ebx)
      ee:	00 00                	add    %al,(%eax)
      f0:	00 0c 00             	add    %cl,(%eax,%eax,1)
      f3:	08 e8                	or     %ch,%al
      f5:	00 00                	add    %al,(%eax)
      f7:	00 0b                	add    %cl,(%ebx)
      f9:	59                   	pop    %ecx
      fa:	00 00                	add    %al,(%eax)
      fc:	00 05 65 f3 00 00    	add    %al,0xf365
     102:	00 0b                	add    %cl,(%ebx)
     104:	57                   	push   %edi
     105:	02 00                	add    (%eax),%al
     107:	00 05 66 f3 00 00    	add    %al,0xf366
     10d:	00 09                	add    %cl,(%ecx)
     10f:	98                   	cwtl   
     110:	00 00                	add    %al,(%eax)
     112:	00 19                	add    %bl,(%ecx)
     114:	01 00                	add    %eax,(%eax)
     116:	00 0c 00             	add    %cl,(%eax,%eax,1)
     119:	0b 40 02             	or     0x2(%eax),%eax
     11c:	00 00                	add    %al,(%eax)
     11e:	05 70 0e 01 00       	add    $0x10e70,%eax
     123:	00 09                	add    %cl,(%ecx)
     125:	a8 00                	test   $0x0,%al
     127:	00 00                	add    %al,(%eax)
     129:	2f                   	das    
     12a:	01 00                	add    %eax,(%eax)
     12c:	00 0c 00             	add    %cl,(%eax,%eax,1)
     12f:	0b 6b 02             	or     0x2(%ebx),%ebp
     132:	00 00                	add    %al,(%eax)
     134:	05 71 24 01 00       	add    $0x12471,%eax
     139:	00 0b                	add    %cl,(%ebx)
     13b:	c2 00 00             	ret    $0x0
     13e:	00 05 72 98 00 00    	add    %al,0x9872
     144:	00 0b                	add    %cl,(%ebx)
     146:	19 00                	sbb    %eax,(%eax)
     148:	00 00                	add    %al,(%eax)
     14a:	05 77 a8 00 00       	add    $0xa877,%eax
     14f:	00 0b                	add    %cl,(%ebx)
     151:	4b                   	dec    %ebx
     152:	02 00                	add    (%eax),%al
     154:	00 05 7a a8 00 00    	add    %al,0xa87a
     15a:	00 0b                	add    %cl,(%ebx)
     15c:	0c 01                	or     $0x1,%al
     15e:	00 00                	add    %al,(%eax)
     160:	06                   	push   %es
     161:	43                   	inc    %ebx
     162:	a8 00                	test   $0x0,%al
     164:	00 00                	add    %al,(%eax)
     166:	0b 7f 00             	or     0x0(%edi),%edi
     169:	00 00                	add    %al,(%eax)
     16b:	07                   	pop    %es
     16c:	3f                   	aas    
     16d:	98                   	cwtl   
     16e:	00 00                	add    %al,(%eax)
     170:	00 0b                	add    %cl,(%ebx)
     172:	39 01                	cmp    %eax,(%ecx)
     174:	00 00                	add    %al,(%eax)
     176:	08 8a 98 00 00 00    	or     %cl,0x98(%edx)
     17c:	09 2c 00             	or     %ebp,(%eax,%eax,1)
     17f:	00 00                	add    %al,(%eax)
     181:	87 01                	xchg   %eax,(%ecx)
     183:	00 00                	add    %al,(%eax)
     185:	0c 00                	or     $0x0,%al
     187:	0b 71 00             	or     0x0(%ecx),%esi
     18a:	00 00                	add    %al,(%eax)
     18c:	09 97 7c 01 00 00    	or     %edx,0x17c(%edi)
     192:	0d 2d 00 00 00       	or     $0x2d,%eax
     197:	04 73                	add    $0x73,%al
     199:	00 00                	add    %al,(%eax)
     19b:	00 01                	add    %al,(%ecx)
     19d:	35 b5 01 00 00       	xor    $0x1b5,%eax
     1a2:	0e                   	push   %cs
     1a3:	e7 00                	out    %eax,$0x0
     1a5:	00 00                	add    %al,(%eax)
     1a7:	00 0e                	add    %cl,(%esi)
     1a9:	40                   	inc    %eax
     1aa:	00 00                	add    %al,(%eax)
     1ac:	00 01                	add    %al,(%ecx)
     1ae:	0e                   	push   %cs
     1af:	32 02                	xor    (%edx),%al
     1b1:	00 00                	add    %al,(%eax)
     1b3:	02 00                	add    (%eax),%al
     1b5:	0f 87 01 00 00 01    	ja     10001bc <gdt+0xdfe15c>
     1bb:	3a 05 03 0c 20 20    	cmp    0x20200c03,%al
     1c1:	00 10                	add    %dl,(%eax)
     1c3:	00 00                	add    %al,(%eax)
     1c5:	00 00                	add    %al,(%eax)
     1c7:	01 3d 37 00 00 00    	add    %edi,0x37
     1cd:	05 03 0e 20 20       	add    $0x20200e03,%eax
     1d2:	00 10                	add    %dl,(%eax)
     1d4:	df 00                	fild   (%eax)
     1d6:	00 00                	add    %al,(%eax)
     1d8:	01 40 63             	add    %eax,0x63(%eax)
     1db:	00 00                	add    %al,(%eax)
     1dd:	00 05 03 20 20 20    	add    %al,0x20202003
     1e3:	00 11                	add    %dl,(%ecx)
     1e5:	3b 00                	cmp    (%eax),%eax
     1e7:	00 00                	add    %al,(%eax)
     1e9:	01 4e 5c             	add    %ecx,0x5c(%esi)
     1ec:	00 00                	add    %al,(%eax)
     1ee:	00 10                	add    %dl,(%eax)
     1f0:	3d 10 00 20 00       	cmp    $0x200010,%eax
     1f5:	00 00                	add    %al,(%eax)
     1f7:	01 9c 07 02 00 00 12 	add    %ebx,0x12000002(%edi,%eax,1)
     1fe:	2b 3d 10 00 18 02    	sub    0x2180010,%edi
     204:	00 00                	add    %al,(%eax)
     206:	00 13                	add    %dl,(%ebx)
     208:	b8 00 00 00 01       	mov    $0x1000000,%eax
     20d:	46                   	inc    %esi
     20e:	00 40 10             	add    %al,0x10(%eax)
     211:	00 05 00 00 00 01    	add    %al,0x1000000
     217:	9c                   	pushf  
     218:	14 2e                	adc    $0x2e,%al
     21a:	01 00                	add    %eax,(%eax)
     21c:	00 2e                	add    %ch,(%esi)
     21e:	01 00                	add    %eax,(%eax)
     220:	00 0a                	add    %cl,(%edx)
     222:	49                   	dec    %ecx
     223:	00 f0                	add    %dh,%al
     225:	01 00                	add    %eax,(%eax)
     227:	00 04 00             	add    %al,(%eax,%eax,1)
     22a:	05 01 00 00 04       	add    $0x4000001,%eax
     22f:	01 b0 01 00 00 0c    	add    %esi,0xc000001(%eax)
     235:	76 02                	jbe    239 <_scga-0xb7dc7>
     237:	00 00                	add    %al,(%eax)
     239:	69 01 00 00 98 01    	imul   $0x1980000,(%ecx),%eax
     23f:	00 00                	add    %al,(%eax)
     241:	02 01                	add    (%ecx),%al
     243:	08 d1                	or     %dl,%cl
     245:	00 00                	add    %al,(%eax)
     247:	00 03                	add    %al,(%ebx)
     249:	a7                   	cmpsl  %es:(%edi),%ds:(%esi)
     24a:	00 00                	add    %al,(%eax)
     24c:	00 01                	add    %al,(%ecx)
     24e:	39 2f                	cmp    %ebp,(%edi)
     250:	00 00                	add    %al,(%eax)
     252:	00 02                	add    %al,(%edx)
     254:	01 06                	add    %eax,(%esi)
     256:	d3 00                	roll   %cl,(%eax)
     258:	00 00                	add    %al,(%eax)
     25a:	02 02                	add    (%edx),%al
     25c:	05 0f 00 00 00       	add    $0xf,%eax
     261:	02 02                	add    (%edx),%al
     263:	07                   	pop    %es
     264:	56                   	push   %esi
     265:	01 00                	add    %eax,(%eax)
     267:	00 03                	add    %al,(%ebx)
     269:	25 01 00 00 01       	and    $0x1000001,%eax
     26e:	4d                   	dec    %ebp
     26f:	4f                   	dec    %edi
     270:	00 00                	add    %al,(%eax)
     272:	00 04 04             	add    %al,(%esp,%eax,1)
     275:	05 69 6e 74 00       	add    $0x746e69,%eax
     27a:	03 4f 00             	add    0x0(%edi),%ecx
     27d:	00 00                	add    %al,(%eax)
     27f:	01 4e 61             	add    %ecx,0x61(%esi)
     282:	00 00                	add    %al,(%eax)
     284:	00 02                	add    %al,(%edx)
     286:	04 07                	add    $0x7,%al
     288:	ff 00                	incl   (%eax)
     28a:	00 00                	add    %al,(%eax)
     28c:	02 08                	add    (%eax),%cl
     28e:	07                   	pop    %es
     28f:	f5                   	cmc    
     290:	00 00                	add    %al,(%eax)
     292:	00 03                	add    %al,(%ebx)
     294:	7e 02                	jle    298 <_scga-0xb7d68>
     296:	00 00                	add    %al,(%eax)
     298:	01 67 7a             	add    %esp,0x7a(%edi)
     29b:	00 00                	add    %al,(%eax)
     29d:	00 05 04 80 00 00    	add    %al,0x8004
     2a3:	00 06                	add    %al,(%esi)
     2a5:	03 1a                	add    (%edx),%ebx
     2a7:	02 00                	add    (%eax),%al
     2a9:	00 01                	add    %al,(%ecx)
     2ab:	6d                   	insl   (%dx),%es:(%edi)
     2ac:	7a 00                	jp     2ae <_scga-0xb7d52>
     2ae:	00 00                	add    %al,(%eax)
     2b0:	07                   	pop    %es
     2b1:	81 00 00 00 03 07    	addl   $0x7030000,(%eax)
     2b7:	00 00                	add    %al,(%eax)
     2b9:	00 02                	add    %al,(%edx)
     2bb:	43                   	inc    %ebx
     2bc:	56                   	push   %esi
     2bd:	00 00                	add    %al,(%eax)
     2bf:	00 07                	add    %al,(%edi)
     2c1:	91                   	xchg   %eax,%ecx
     2c2:	00 00                	add    %al,(%eax)
     2c4:	00 03                	add    %al,(%ebx)
     2c6:	6a 00                	push   $0x0
     2c8:	00 00                	add    %al,(%eax)
     2ca:	02 57 44             	add    0x44(%edi),%dl
     2cd:	00 00                	add    %al,(%eax)
     2cf:	00 02                	add    %al,(%edx)
     2d1:	04 05                	add    $0x5,%al
     2d3:	af                   	scas   %es:(%edi),%eax
     2d4:	00 00                	add    %al,(%eax)
     2d6:	00 08                	add    %cl,(%eax)
     2d8:	8c 00                	mov    %es,(%eax)
     2da:	00 00                	add    %al,(%eax)
     2dc:	c3                   	ret    
     2dd:	00 00                	add    %al,(%eax)
     2df:	00 09                	add    %cl,(%ecx)
     2e1:	c8 00 00 00          	enter  $0x0,$0x0
     2e5:	00 00                	add    %al,(%eax)
     2e7:	07                   	pop    %es
     2e8:	b3 00                	mov    $0x0,%bl
     2ea:	00 00                	add    %al,(%eax)
     2ec:	02 04 07             	add    (%edi,%eax,1),%al
     2ef:	24 00                	and    $0x0,%al
     2f1:	00 00                	add    %al,(%eax)
     2f3:	0a 94 00 00 00 03 56 	or     0x56030000(%eax,%eax,1),%dl
     2fa:	c3                   	ret    
     2fb:	00 00                	add    %al,(%eax)
     2fd:	00 02                	add    %al,(%edx)
     2ff:	01 06                	add    %eax,(%esi)
     301:	da 00                	fiaddl (%eax)
     303:	00 00                	add    %al,(%eax)
     305:	08 9c 00 00 00 ec 00 	or     %bl,0xec0000(%eax,%eax,1)
     30c:	00 00                	add    %al,(%eax)
     30e:	0b 00                	or     (%eax),%eax
     310:	07                   	pop    %es
     311:	e1 00                	loope  313 <_scga-0xb7ced>
     313:	00 00                	add    %al,(%eax)
     315:	0a 59 00             	or     0x0(%ecx),%bl
     318:	00 00                	add    %al,(%eax)
     31a:	04 65                	add    $0x65,%al
     31c:	ec                   	in     (%dx),%al
     31d:	00 00                	add    %al,(%eax)
     31f:	00 0a                	add    %cl,(%edx)
     321:	57                   	push   %edi
     322:	02 00                	add    (%eax),%al
     324:	00 04 66             	add    %al,(%esi,%eiz,2)
     327:	ec                   	in     (%dx),%al
     328:	00 00                	add    %al,(%eax)
     32a:	00 08                	add    %cl,(%eax)
     32c:	91                   	xchg   %eax,%ecx
     32d:	00 00                	add    %al,(%eax)
     32f:	00 12                	add    %dl,(%edx)
     331:	01 00                	add    %eax,(%eax)
     333:	00 0b                	add    %cl,(%ebx)
     335:	00 0a                	add    %cl,(%edx)
     337:	40                   	inc    %eax
     338:	02 00                	add    (%eax),%al
     33a:	00 04 70             	add    %al,(%eax,%esi,2)
     33d:	07                   	pop    %es
     33e:	01 00                	add    %eax,(%eax)
     340:	00 08                	add    %cl,(%eax)
     342:	a1 00 00 00 28       	mov    0x28000000,%eax
     347:	01 00                	add    %eax,(%eax)
     349:	00 0b                	add    %cl,(%ebx)
     34b:	00 0a                	add    %cl,(%edx)
     34d:	6b 02 00             	imul   $0x0,(%edx),%eax
     350:	00 04 71             	add    %al,(%ecx,%esi,2)
     353:	1d 01 00 00 0a       	sbb    $0xa000001,%eax
     358:	c2 00 00             	ret    $0x0
     35b:	00 04 72             	add    %al,(%edx,%esi,2)
     35e:	91                   	xchg   %eax,%ecx
     35f:	00 00                	add    %al,(%eax)
     361:	00 0a                	add    %cl,(%edx)
     363:	19 00                	sbb    %eax,(%eax)
     365:	00 00                	add    %al,(%eax)
     367:	04 77                	add    $0x77,%al
     369:	a1 00 00 00 0a       	mov    0xa000000,%eax
     36e:	4b                   	dec    %ebx
     36f:	02 00                	add    (%eax),%al
     371:	00 04 7a             	add    %al,(%edx,%edi,2)
     374:	a1 00 00 00 0a       	mov    0xa000000,%eax
     379:	0c 01                	or     $0x1,%al
     37b:	00 00                	add    %al,(%eax)
     37d:	05 43 a1 00 00       	add    $0xa143,%eax
     382:	00 0a                	add    %cl,(%edx)
     384:	7f 00                	jg     386 <_scga-0xb7c7a>
     386:	00 00                	add    %al,(%eax)
     388:	06                   	push   %es
     389:	3f                   	aas    
     38a:	91                   	xchg   %eax,%ecx
     38b:	00 00                	add    %al,(%eax)
     38d:	00 0a                	add    %cl,(%edx)
     38f:	39 01                	cmp    %eax,(%ecx)
     391:	00 00                	add    %al,(%eax)
     393:	07                   	pop    %es
     394:	8a 91 00 00 00 08    	mov    0x8000000(%ecx),%dl
     39a:	24 00                	and    $0x0,%al
     39c:	00 00                	add    %al,(%eax)
     39e:	80 01 00             	addb   $0x0,(%ecx)
     3a1:	00 0b                	add    %cl,(%ebx)
     3a3:	00 0a                	add    %cl,(%edx)
     3a5:	71 00                	jno    3a7 <_scga-0xb7c59>
     3a7:	00 00                	add    %al,(%eax)
     3a9:	08 97 75 01 00 00    	or     %dl,0x175(%edi)
     3af:	0c cf                	or     $0xcf,%al
     3b1:	00 00                	add    %al,(%eax)
     3b3:	00 09                	add    %cl,(%ecx)
     3b5:	10 05 03 d4 45 10    	adc    %al,0x1045d403
     3bb:	00 0c f1             	add    %cl,(%ecx,%esi,8)
     3be:	00 00                	add    %al,(%eax)
     3c0:	00 09                	add    %cl,(%ecx)
     3c2:	16                   	push   %ss
     3c3:	05 03 d0 45 10       	add    $0x1045d003,%eax
     3c8:	00 0c fc             	add    %cl,(%esp,%edi,8)
     3cb:	00 00                	add    %al,(%eax)
     3cd:	00 09                	add    %cl,(%ecx)
     3cf:	1b 05 03 cc 45 10    	sbb    0x1045cc03,%eax
     3d5:	00 0c 28             	add    %cl,(%eax,%ebp,1)
     3d8:	01 00                	add    %eax,(%eax)
     3da:	00 09                	add    %cl,(%ecx)
     3dc:	27                   	daa    
     3dd:	05 03 08 20 20       	add    $0x20200803,%eax
     3e2:	00 0c 12             	add    %cl,(%edx,%edx,1)
     3e5:	01 00                	add    %eax,(%eax)
     3e7:	00 09                	add    %cl,(%ecx)
     3e9:	2b 05 03 10 20 20    	sub    0x20201003,%eax
     3ef:	00 0c 49             	add    %cl,(%ecx,%ecx,2)
     3f2:	01 00                	add    %eax,(%eax)
     3f4:	00 09                	add    %cl,(%ecx)
     3f6:	2d 05 03 04 20       	sub    $0x20040305,%eax
     3fb:	20 00                	and    %al,(%eax)
     3fd:	0c 3e                	or     $0x3e,%al
     3ff:	01 00                	add    %eax,(%eax)
     401:	00 09                	add    %cl,(%ecx)
     403:	30 05 03 00 20 20    	xor    %al,0x20200003
     409:	00 0c 33             	add    %cl,(%ebx,%esi,1)
     40c:	01 00                	add    %eax,(%eax)
     40e:	00 09                	add    %cl,(%ecx)
     410:	33 05 03 24 20 20    	xor    0x20202403,%eax
     416:	00 00                	add    %al,(%eax)
     418:	97                   	xchg   %eax,%edi
     419:	00 00                	add    %al,(%eax)
     41b:	00 02                	add    %al,(%edx)
     41d:	00 84 01 00 00 04 01 	add    %al,0x1040000(%ecx,%eax,1)
     424:	d8 02                	fadds  (%edx)
     426:	00 00                	add    %al,(%eax)
     428:	30 3d 10 00 3e 3d    	xor    %bh,0x3d3e0010
     42e:	10 00                	adc    %al,(%eax)
     430:	2f                   	das    
     431:	68 6f 6d 65 2f       	push   $0x2f656d6f
     436:	6b 64 77 39 32       	imul   $0x32,0x39(%edi,%esi,2),%esp
     43b:	34 32                	xor    $0x32,%al
     43d:	2f                   	das    
     43e:	45                   	inc    %ebp
     43f:	72 69                	jb     4aa <_scga-0xb7b56>
     441:	6b 61 2f 70          	imul   $0x70,0x2f(%ecx),%esp
     445:	6b 67 2f 63          	imul   $0x63,0x2f(%edi),%esp
     449:	70 75                	jo     4c0 <_scga-0xb7b40>
     44b:	2f                   	das    
     44c:	78 38                	js     486 <_scga-0xb7b7a>
     44e:	36 2f                	ss das 
     450:	73 72                	jae    4c4 <_scga-0xb7b3c>
     452:	63 2f                	arpl   %bp,(%edi)
     454:	73 74                	jae    4ca <_scga-0xb7b36>
     456:	61                   	popa   
     457:	72 74                	jb     4cd <_scga-0xb7b33>
     459:	75 70                	jne    4cb <_scga-0xb7b35>
     45b:	2e 53                	cs push %ebx
     45d:	00 2f                	add    %ch,(%edi)
     45f:	72 65                	jb     4c6 <_scga-0xb7b3a>
     461:	73 65                	jae    4c8 <_scga-0xb7b38>
     463:	61                   	popa   
     464:	72 63                	jb     4c9 <_scga-0xb7b37>
     466:	68 2f 45 72 69       	push   $0x6972452f
     46b:	6b 61 2f 65          	imul   $0x65,0x2f(%ecx),%esp
     46f:	78 61                	js     4d2 <_scga-0xb7b2e>
     471:	6d                   	insl   (%dx),%es:(%edi)
     472:	70 6c                	jo     4e0 <_scga-0xb7b20>
     474:	65 73 2f             	gs jae 4a6 <_scga-0xb7b5a>
     477:	78 38                	js     4b1 <_scga-0xb7b4f>
     479:	36 2f                	ss das 
     47b:	70 6f                	jo     4ec <_scga-0xb7b14>
     47d:	72 74                	jb     4f3 <_scga-0xb7b0d>
     47f:	69 6e 67 5f 65 78 61 	imul   $0x6178655f,0x67(%esi),%ebp
     486:	6d                   	insl   (%dx),%es:(%edi)
     487:	70 6c                	jo     4f5 <_scga-0xb7b0b>
     489:	65 73 2f             	gs jae 4bb <_scga-0xb7b45>
     48c:	6d                   	insl   (%dx),%es:(%edi)
     48d:	6f                   	outsl  %ds:(%esi),(%dx)
     48e:	6e                   	outsb  %ds:(%esi),(%dx)
     48f:	6f                   	outsl  %ds:(%esi),(%dx)
     490:	73 74                	jae    506 <_scga-0xb7afa>
     492:	61                   	popa   
     493:	63 6b 2f             	arpl   %bp,0x2f(%ebx)
     496:	45                   	inc    %ebp
     497:	45                   	inc    %ebp
     498:	74 65                	je     4ff <_scga-0xb7b01>
     49a:	73 74                	jae    510 <_scga-0xb7af0>
     49c:	30 30                	xor    %dh,(%eax)
     49e:	2f                   	das    
     49f:	44                   	inc    %esp
     4a0:	65 62 75 67          	bound  %esi,%gs:0x67(%ebp)
     4a4:	00 47 4e             	add    %al,0x4e(%edi)
     4a7:	55                   	push   %ebp
     4a8:	20 41 53             	and    %al,0x53(%ecx)
     4ab:	20 32                	and    %dh,(%edx)
     4ad:	2e 32 36             	xor    %cs:(%esi),%dh
     4b0:	00 01                	add    %al,(%ecx)
     4b2:	80 26 04             	andb   $0x4,(%esi)
     4b5:	00 00                	add    %al,(%eax)
     4b7:	04 00                	add    $0x0,%al
     4b9:	98                   	cwtl   
     4ba:	01 00                	add    %eax,(%eax)
     4bc:	00 04 01             	add    %al,(%ecx,%eax,1)
     4bf:	b0 01                	mov    $0x1,%al
     4c1:	00 00                	add    %al,(%eax)
     4c3:	0c 8f                	or     $0x8f,%al
     4c5:	02 00                	add    (%eax),%al
     4c7:	00 05 40 10 00 a7    	add    %al,0xa7001040
     4cd:	02 00                	add    (%eax),%al
     4cf:	00 39                	add    %bh,(%ecx)
     4d1:	03 00                	add    (%eax),%eax
     4d3:	00 02                	add    %al,(%edx)
     4d5:	f8                   	clc    
     4d6:	02 00                	add    (%eax),%al
     4d8:	00 02                	add    %al,(%edx)
     4da:	28 2c 00             	sub    %ch,(%eax,%eax,1)
     4dd:	00 00                	add    %al,(%eax)
     4df:	03 04 e6             	add    (%esi,%eiz,8),%eax
     4e2:	02 00                	add    (%eax),%al
     4e4:	00 36                	add    %dh,(%esi)
     4e6:	00 00                	add    %al,(%eax)
     4e8:	00 04 01             	add    %al,(%ecx,%eax,1)
     4eb:	06                   	push   %es
     4ec:	da 00                	fiaddl (%eax)
     4ee:	00 00                	add    %al,(%eax)
     4f0:	02 ff                	add    %bh,%bh
     4f2:	02 00                	add    (%eax),%al
     4f4:	00 02                	add    %al,(%edx)
     4f6:	63 21                	arpl   %sp,(%ecx)
     4f8:	00 00                	add    %al,(%eax)
     4fa:	00 04 01             	add    %al,(%ecx,%eax,1)
     4fd:	08 d1                	or     %dl,%cl
     4ff:	00 00                	add    %al,(%eax)
     501:	00 02                	add    %al,(%edx)
     503:	a7                   	cmpsl  %es:(%edi),%ds:(%esi)
     504:	00 00                	add    %al,(%eax)
     506:	00 03                	add    %al,(%ebx)
     508:	39 5a 00             	cmp    %ebx,0x0(%edx)
     50b:	00 00                	add    %al,(%eax)
     50d:	04 01                	add    $0x1,%al
     50f:	06                   	push   %es
     510:	d3 00                	roll   %cl,(%eax)
     512:	00 00                	add    %al,(%eax)
     514:	04 02                	add    $0x2,%al
     516:	05 0f 00 00 00       	add    $0xf,%eax
     51b:	04 02                	add    $0x2,%al
     51d:	07                   	pop    %es
     51e:	56                   	push   %esi
     51f:	01 00                	add    %eax,(%eax)
     521:	00 02                	add    %al,(%edx)
     523:	25 01 00 00 03       	and    $0x3000001,%eax
     528:	4d                   	dec    %ebp
     529:	7a 00                	jp     52b <_scga-0xb7ad5>
     52b:	00 00                	add    %al,(%eax)
     52d:	05 04 05 69 6e       	add    $0x6e690504,%eax
     532:	74 00                	je     534 <_scga-0xb7acc>
     534:	02 4f 00             	add    0x0(%edi),%cl
     537:	00 00                	add    %al,(%eax)
     539:	03 4e 8c             	add    -0x74(%esi),%ecx
     53c:	00 00                	add    %al,(%eax)
     53e:	00 04 04             	add    %al,(%esp,%eax,1)
     541:	07                   	pop    %es
     542:	ff 00                	incl   (%eax)
     544:	00 00                	add    %al,(%eax)
     546:	04 08                	add    $0x8,%al
     548:	07                   	pop    %es
     549:	f5                   	cmc    
     54a:	00 00                	add    %al,(%eax)
     54c:	00 06                	add    %al,(%esi)
     54e:	04 a0                	add    $0xa0,%al
     550:	00 00                	add    %al,(%eax)
     552:	00 07                	add    %al,(%edi)
     554:	02 1a                	add    (%edx),%bl
     556:	02 00                	add    (%eax),%al
     558:	00 03                	add    %al,(%ebx)
     55a:	6d                   	insl   (%dx),%es:(%edi)
     55b:	9a 00 00 00 08 a1 00 	lcall  $0xa1,$0x8000000
     562:	00 00                	add    %al,(%eax)
     564:	02 07                	add    (%edi),%al
     566:	00 00                	add    %al,(%eax)
     568:	00 04 43             	add    %al,(%ebx,%eax,2)
     56b:	81 00 00 00 08 b1    	addl   $0xb1080000,(%eax)
     571:	00 00                	add    %al,(%eax)
     573:	00 02                	add    %al,(%edx)
     575:	6a 00                	push   $0x0
     577:	00 00                	add    %al,(%eax)
     579:	04 57                	add    $0x57,%al
     57b:	6f                   	outsl  %ds:(%esi),(%dx)
     57c:	00 00                	add    %al,(%eax)
     57e:	00 04 04             	add    %al,(%esp,%eax,1)
     581:	05 af 00 00 00       	add    $0xaf,%eax
     586:	09 ac 00 00 00 e3 00 	or     %ebp,0xe30000(%eax,%eax,1)
     58d:	00 00                	add    %al,(%eax)
     58f:	0a e8                	or     %al,%ch
     591:	00 00                	add    %al,(%eax)
     593:	00 00                	add    %al,(%eax)
     595:	00 08                	add    %cl,(%eax)
     597:	d3 00                	roll   %cl,(%eax)
     599:	00 00                	add    %al,(%eax)
     59b:	04 04                	add    $0x4,%al
     59d:	07                   	pop    %es
     59e:	24 00                	and    $0x0,%al
     5a0:	00 00                	add    %al,(%eax)
     5a2:	0b 94 00 00 00 05 56 	or     0x56050000(%eax,%eax,1),%edx
     5a9:	e3 00                	jecxz  5ab <_scga-0xb7a55>
     5ab:	00 00                	add    %al,(%eax)
     5ad:	09 bc 00 00 00 05 01 	or     %edi,0x1050000(%eax,%eax,1)
     5b4:	00 00                	add    %al,(%eax)
     5b6:	0c 00                	or     $0x0,%al
     5b8:	08 fa                	or     %bh,%dl
     5ba:	00 00                	add    %al,(%eax)
     5bc:	00 0b                	add    %cl,(%ebx)
     5be:	59                   	pop    %ecx
     5bf:	00 00                	add    %al,(%eax)
     5c1:	00 06                	add    %al,(%esi)
     5c3:	65 05 01 00 00 0b    	gs add $0xb000001,%eax
     5c9:	57                   	push   %edi
     5ca:	02 00                	add    (%eax),%al
     5cc:	00 06                	add    %al,(%esi)
     5ce:	66 05 01 00          	add    $0x1,%ax
     5d2:	00 09                	add    %cl,(%ecx)
     5d4:	b1 00                	mov    $0x0,%cl
     5d6:	00 00                	add    %al,(%eax)
     5d8:	2b 01                	sub    (%ecx),%eax
     5da:	00 00                	add    %al,(%eax)
     5dc:	0c 00                	or     $0x0,%al
     5de:	0b 40 02             	or     0x2(%eax),%eax
     5e1:	00 00                	add    %al,(%eax)
     5e3:	06                   	push   %es
     5e4:	70 20                	jo     606 <_scga-0xb79fa>
     5e6:	01 00                	add    %eax,(%eax)
     5e8:	00 09                	add    %cl,(%ecx)
     5ea:	c1 00 00             	roll   $0x0,(%eax)
     5ed:	00 41 01             	add    %al,0x1(%ecx)
     5f0:	00 00                	add    %al,(%eax)
     5f2:	0c 00                	or     $0x0,%al
     5f4:	0b 6b 02             	or     0x2(%ebx),%ebp
     5f7:	00 00                	add    %al,(%eax)
     5f9:	06                   	push   %es
     5fa:	71 36                	jno    632 <_scga-0xb79ce>
     5fc:	01 00                	add    %eax,(%eax)
     5fe:	00 0b                	add    %cl,(%ebx)
     600:	c2 00 00             	ret    $0x0
     603:	00 06                	add    %al,(%esi)
     605:	72 b1                	jb     5b8 <_scga-0xb7a48>
     607:	00 00                	add    %al,(%eax)
     609:	00 0b                	add    %cl,(%ebx)
     60b:	19 00                	sbb    %eax,(%eax)
     60d:	00 00                	add    %al,(%eax)
     60f:	06                   	push   %es
     610:	77 c1                	ja     5d3 <_scga-0xb7a2d>
     612:	00 00                	add    %al,(%eax)
     614:	00 0b                	add    %cl,(%ebx)
     616:	4b                   	dec    %ebx
     617:	02 00                	add    (%eax),%al
     619:	00 06                	add    %al,(%esi)
     61b:	7a c1                	jp     5de <_scga-0xb7a22>
     61d:	00 00                	add    %al,(%eax)
     61f:	00 0b                	add    %cl,(%ebx)
     621:	0c 01                	or     $0x1,%al
     623:	00 00                	add    %al,(%eax)
     625:	07                   	pop    %es
     626:	43                   	inc    %ebx
     627:	c1 00 00             	roll   $0x0,(%eax)
     62a:	00 0b                	add    %cl,(%ebx)
     62c:	7f 00                	jg     62e <_scga-0xb79d2>
     62e:	00 00                	add    %al,(%eax)
     630:	08 3f                	or     %bh,(%edi)
     632:	b1 00                	mov    $0x0,%cl
     634:	00 00                	add    %al,(%eax)
     636:	0b 39                	or     (%ecx),%edi
     638:	01 00                	add    %eax,(%eax)
     63a:	00 09                	add    %cl,(%ecx)
     63c:	8a b1 00 00 00 09    	mov    0x9000000(%ecx),%dh
     642:	4f                   	dec    %edi
     643:	00 00                	add    %al,(%eax)
     645:	00 99 01 00 00 0c    	add    %bl,0xc000001(%ecx)
     64b:	00 0b                	add    %cl,(%ebx)
     64d:	71 00                	jno    64f <_scga-0xb79b1>
     64f:	00 00                	add    %al,(%eax)
     651:	0a 97 8e 01 00 00    	or     0x18e(%edi),%dl
     657:	0d 62 66 00 01       	or     $0x1006662,%eax
     65c:	1f                   	pop    %ds
     65d:	b4 01                	mov    $0x1,%ah
     65f:	00 00                	add    %al,(%eax)
     661:	05 03 3c 20 20       	add    $0x20203c03,%eax
     666:	00 06                	add    %al,(%esi)
     668:	04 36                	add    $0x36,%al
     66a:	00 00                	add    %al,(%eax)
     66c:	00 09                	add    %cl,(%ecx)
     66e:	36 00 00             	add    %al,%ss:(%eax)
     671:	00 ca                	add    %cl,%dl
     673:	01 00                	add    %eax,(%eax)
     675:	00 0a                	add    %cl,(%edx)
     677:	e8 00 00 00 0b       	call   b00067c <gdt+0xadfe61c>
     67c:	00 0d 62 75 66 00    	add    %cl,0x667562
     682:	01 20                	add    %esp,(%eax)
     684:	ba 01 00 00 05       	mov    $0x5000001,%edx
     689:	03 30                	add    (%eax),%esi
     68b:	20 20                	and    %ah,(%eax)
     68d:	00 0d 6e 75 6d 00    	add    %cl,0x6d756e
     693:	01 21                	add    %esp,(%ecx)
     695:	8c 00                	mov    %es,(%eax)
     697:	00 00                	add    %al,(%eax)
     699:	05 03 2c 20 20       	add    $0x20202c03,%eax
     69e:	00 0d 75 63 00 01    	add    %cl,0x1006375
     6a4:	22 36                	and    (%esi),%dh
     6a6:	00 00                	add    %al,(%eax)
     6a8:	00 05 03 29 20 20    	add    %al,0x20202903
     6ae:	00 0d 7a 73 00 01    	add    %cl,0x100737a
     6b4:	23 36                	and    (%esi),%esi
     6b6:	00 00                	add    %al,(%eax)
     6b8:	00 05 03 28 20 20    	add    %al,0x20202803
     6be:	00 0e                	add    %cl,(%esi)
     6c0:	2e 01 00             	add    %eax,%cs:(%eax)
     6c3:	00 01                	add    %al,(%ecx)
     6c5:	39 a1 40 10 00 0b    	cmp    %esp,0xb001040(%ecx)
     6cb:	02 00                	add    (%eax),%al
     6cd:	00 01                	add    %al,(%ecx)
     6cf:	9c                   	pushf  
     6d0:	60                   	pusha  
     6d1:	03 00                	add    (%eax),%eax
     6d3:	00 0f                	add    %cl,(%edi)
     6d5:	66 6d                	insw   (%dx),%es:(%edi)
     6d7:	74 00                	je     6d9 <_scga-0xb7927>
     6d9:	01 39                	add    %edi,(%ecx)
     6db:	b4 01                	mov    $0x1,%ah
     6dd:	00 00                	add    %al,(%eax)
     6df:	00 00                	add    %al,(%eax)
     6e1:	00 00                	add    %al,(%eax)
     6e3:	10 11                	adc    %dl,(%ecx)
     6e5:	76 61                	jbe    748 <_scga-0xb78b8>
     6e7:	00 01                	add    %al,(%ecx)
     6e9:	3a 3d 00 00 00 74    	cmp    0x74000000,%bh
     6ef:	00 00                	add    %al,(%eax)
     6f1:	00 11                	add    %dl,(%ecx)
     6f3:	63 68 00             	arpl   %bp,0x0(%eax)
     6f6:	01 3b                	add    %edi,(%ebx)
     6f8:	36 00 00             	add    %al,%ss:(%eax)
     6fb:	00 0f                	add    %cl,(%edi)
     6fd:	01 00                	add    %eax,(%eax)
     6ff:	00 11                	add    %dl,(%ecx)
     701:	70 00                	jo     703 <_scga-0xb78fd>
     703:	01 3c b4             	add    %edi,(%esp,%esi,4)
     706:	01 00                	add    %eax,(%eax)
     708:	00 7b 01             	add    %bh,0x1(%ebx)
     70b:	00 00                	add    %al,(%eax)
     70d:	12 c6                	adc    %dh,%al
     70f:	02 00                	add    (%eax),%al
     711:	00 01                	add    %al,(%ecx)
     713:	87 a4 42 10 00 13 d4 	xchg   %esp,-0x2becfff0(%edx,%eax,2)
     71a:	40                   	inc    %eax
     71b:	10 00                	adc    %al,(%eax)
     71d:	d0 01                	rolb   (%ecx)
     71f:	00 00                	add    %al,(%eax)
     721:	56                   	push   %esi
     722:	03 00                	add    (%eax),%eax
     724:	00 11                	add    %dl,(%ecx)
     726:	6c                   	insb   (%dx),%es:(%edi)
     727:	7a 00                	jp     729 <_scga-0xb78d7>
     729:	01 45 36             	add    %eax,0x36(%ebp)
     72c:	00 00                	add    %al,(%eax)
     72e:	00 ae 01 00 00 11    	add    %ch,0x11000001(%esi)
     734:	77 00                	ja     736 <_scga-0xb78ca>
     736:	01 46 36             	add    %eax,0x36(%esi)
     739:	00 00                	add    %al,(%eax)
     73b:	00 da                	add    %bl,%dl
     73d:	01 00                	add    %eax,(%eax)
     73f:	00 14 8b             	add    %dl,(%ebx,%ecx,4)
     742:	41                   	inc    %ecx
     743:	10 00                	adc    %al,(%eax)
     745:	d2 03                	rolb   %cl,(%ebx)
     747:	00 00                	add    %al,(%eax)
     749:	a1 02 00 00 15       	mov    0x15000002,%eax
     74e:	01 50 02             	add    %edx,0x2(%eax)
     751:	70 00                	jo     753 <_scga-0xb78ad>
     753:	00 14 95 41 10 00 60 	add    %dl,0x60001041(,%edx,4)
     75a:	03 00                	add    (%eax),%eax
     75c:	00 b6 02 00 00 15    	add    %dh,0x15000002(%esi)
     762:	01 50 03             	add    %edx,0x3(%eax)
     765:	0a 10                	or     (%eax),%dl
     767:	27                   	daa    
     768:	00 14 9f             	add    %dl,(%edi,%ebx,4)
     76b:	41                   	inc    %ecx
     76c:	10 00                	adc    %al,(%eax)
     76e:	60                   	pusha  
     76f:	03 00                	add    (%eax),%eax
     771:	00 cb                	add    %cl,%bl
     773:	02 00                	add    (%eax),%al
     775:	00 15 01 50 03 0a    	add    %dl,0xa035001
     77b:	e8 03 00 14 a9       	call   a9140783 <gdt+0xa8f3e723>
     780:	41                   	inc    %ecx
     781:	10 00                	adc    %al,(%eax)
     783:	60                   	pusha  
     784:	03 00                	add    (%eax),%eax
     786:	00 df                	add    %bl,%bh
     788:	02 00                	add    (%eax),%al
     78a:	00 15 01 50 02 08    	add    %dl,0x8025001
     790:	64 00 14 cd 41 10 00 	add    %dl,%fs:0x60001041(,%ecx,8)
     797:	60 
     798:	03 00                	add    (%eax),%eax
     79a:	00 f4                	add    %dh,%ah
     79c:	02 00                	add    (%eax),%al
     79e:	00 15 01 50 03 0a    	add    %dl,0xa035001
     7a4:	00 10                	add    %dl,(%eax)
     7a6:	00 14 d7             	add    %dl,(%edi,%edx,8)
     7a9:	41                   	inc    %ecx
     7aa:	10 00                	adc    %al,(%eax)
     7ac:	60                   	pusha  
     7ad:	03 00                	add    (%eax),%eax
     7af:	00 09                	add    %cl,(%ecx)
     7b1:	03 00                	add    (%eax),%eax
     7b3:	00 15 01 50 03 0a    	add    %dl,0xa035001
     7b9:	00 01                	add    %al,(%ecx)
     7bb:	00 16                	add    %dl,(%esi)
     7bd:	e1 41                	loope  800 <_scga-0xb7800>
     7bf:	10 00                	adc    %al,(%eax)
     7c1:	60                   	pusha  
     7c2:	03 00                	add    (%eax),%eax
     7c4:	00 16                	add    %dl,(%esi)
     7c6:	ed                   	in     (%dx),%eax
     7c7:	41                   	inc    %ecx
     7c8:	10 00                	adc    %al,(%eax)
     7ca:	9d                   	popf   
     7cb:	03 00                	add    (%eax),%eax
     7cd:	00 14 fc             	add    %dl,(%esp,%edi,8)
     7d0:	41                   	inc    %ecx
     7d1:	10 00                	adc    %al,(%eax)
     7d3:	d2 03                	rolb   %cl,(%ebx)
     7d5:	00 00                	add    %al,(%eax)
     7d7:	2f                   	das    
     7d8:	03 00                	add    (%eax),%eax
     7da:	00 15 01 50 02 70    	add    %dl,0x70025001
     7e0:	00 00                	add    %al,(%eax)
     7e2:	14 17                	adc    $0x17,%al
     7e4:	42                   	inc    %edx
     7e5:	10 00                	adc    %al,(%eax)
     7e7:	d2 03                	rolb   %cl,(%ebx)
     7e9:	00 00                	add    %al,(%eax)
     7eb:	43                   	inc    %ebx
     7ec:	03 00                	add    (%eax),%eax
     7ee:	00 15 01 50 02 70    	add    %dl,0x70025001
     7f4:	00 00                	add    %al,(%eax)
     7f6:	16                   	push   %ss
     7f7:	78 42                	js     83b <_scga-0xb77c5>
     7f9:	10 00                	adc    %al,(%eax)
     7fb:	f3 03 00             	repz add (%eax),%eax
     7fe:	00 16                	add    %dl,(%esi)
     800:	9c                   	pushf  
     801:	42                   	inc    %edx
     802:	10 00                	adc    %al,(%eax)
     804:	f3 03 00             	repz add (%eax),%eax
     807:	00 00                	add    %al,(%eax)
     809:	16                   	push   %ss
     80a:	cc                   	int3   
     80b:	40                   	inc    %eax
     80c:	10 00                	adc    %al,(%eax)
     80e:	f3 03 00             	repz add (%eax),%eax
     811:	00 00                	add    %al,(%eax)
     813:	17                   	pop    %ss
     814:	cc                   	int3   
     815:	02 00                	add    (%eax),%al
     817:	00 01                	add    %al,(%ecx)
     819:	2e 46                	cs inc %esi
     81b:	40                   	inc    %eax
     81c:	10 00                	adc    %al,(%eax)
     81e:	41                   	inc    %ecx
     81f:	00 00                	add    %al,(%eax)
     821:	00 01                	add    %al,(%ecx)
     823:	9c                   	pushf  
     824:	9d                   	popf   
     825:	03 00                	add    (%eax),%eax
     827:	00 0f                	add    %cl,(%edi)
     829:	64 69 76 00 01 2e 8c 	imul   $0x8c2e01,%fs:0x0(%esi),%esi
     830:	00 
     831:	00 00                	add    %al,(%eax)
     833:	3f                   	aas    
     834:	02 00                	add    (%eax),%al
     836:	00 11                	add    %dl,(%ecx)
     838:	64 67 74 00          	fs addr16 je 83c <_scga-0xb77c4>
     83c:	01 2f                	add    %ebp,(%edi)
     83e:	48                   	dec    %eax
     83f:	00 00                	add    %al,(%eax)
     841:	00 6b 02             	add    %ch,0x2(%ebx)
     844:	00 00                	add    %al,(%eax)
     846:	18 84 40 10 00 9d 03 	sbb    %al,0x39d0010(%eax,%eax,2)
     84d:	00 00                	add    %al,(%eax)
     84f:	00 17                	add    %dl,(%edi)
     851:	bf 02 00 00 01       	mov    $0x1000002,%edi
     856:	29 1b                	sub    %ebx,(%ebx)
     858:	40                   	inc    %eax
     859:	10 00                	adc    %al,(%eax)
     85b:	2b 00                	sub    (%eax),%eax
     85d:	00 00                	add    %al,(%eax)
     85f:	01 9c d2 03 00 00 0f 	add    %ebx,0xf000003(%edx,%edx,8)
     866:	64 67 74 00          	fs addr16 je 86a <_scga-0xb7796>
     86a:	01 29                	add    %ebp,(%ecx)
     86c:	36 00 00             	add    %al,%ss:(%eax)
     86f:	00 95 02 00 00 19    	add    %dl,0x19000002(%ebp)
     875:	3d 40 10 00 d2       	cmp    $0xd2001040,%eax
     87a:	03 00                	add    (%eax),%eax
     87c:	00 15 01 50 02 70    	add    %dl,0x70025001
     882:	00 00                	add    %al,(%eax)
     884:	00 1a                	add    %bl,(%edx)
     886:	6f                   	outsl  %ds:(%esi),(%dx)
     887:	75 74                	jne    8fd <_scga-0xb7703>
     889:	00 01                	add    %al,(%ecx)
     88b:	25 05 40 10 00       	and    $0x104005,%eax
     890:	16                   	push   %ss
     891:	00 00                	add    %al,(%eax)
     893:	00 01                	add    %al,(%ecx)
     895:	9c                   	pushf  
     896:	f3 03 00             	repz add (%eax),%eax
     899:	00 1b                	add    %bl,(%ebx)
     89b:	63 00                	arpl   %ax,(%eax)
     89d:	01 25 36 00 00 00    	add    %esp,0x36
     8a3:	01 50 00             	add    %edx,0x0(%eax)
     8a6:	0e                   	push   %cs
     8a7:	87 02                	xchg   %eax,(%edx)
     8a9:	00 00                	add    %al,(%eax)
     8ab:	01 1a                	add    %ebx,(%edx)
     8ad:	87 40 10             	xchg   %eax,0x10(%eax)
     8b0:	00 1a                	add    %bl,(%edx)
     8b2:	00 00                	add    %al,(%eax)
     8b4:	00 01                	add    %al,(%ecx)
     8b6:	9c                   	pushf  
     8b7:	1e                   	push   %ds
     8b8:	04 00                	add    $0x0,%al
     8ba:	00 1b                	add    %bl,(%ebx)
     8bc:	63 00                	arpl   %ax,(%eax)
     8be:	01 1a                	add    %ebx,(%edx)
     8c0:	36 00 00             	add    %al,%ss:(%eax)
     8c3:	00 02                	add    %al,(%edx)
     8c5:	91                   	xchg   %eax,%ecx
     8c6:	00 16                	add    %dl,(%esi)
     8c8:	9c                   	pushf  
     8c9:	40                   	inc    %eax
     8ca:	10 00                	adc    %al,(%eax)
     8cc:	1e                   	push   %ds
     8cd:	04 00                	add    $0x0,%al
     8cf:	00 00                	add    %al,(%eax)
     8d1:	1c d3                	sbb    $0xd3,%al
     8d3:	02 00                	add    (%eax),%al
     8d5:	00 d3                	add    %dl,%bl
     8d7:	02 00                	add    (%eax),%al
     8d9:	00 0b                	add    %cl,(%ebx)
     8db:	52                   	push   %edx
     8dc:	00 24 02             	add    %ah,(%edx,%eax,1)
     8df:	00 00                	add    %al,(%eax)
     8e1:	04 00                	add    $0x0,%al
     8e3:	08 03                	or     %al,(%ebx)
     8e5:	00 00                	add    %al,(%eax)
     8e7:	04 01                	add    $0x1,%al
     8e9:	b0 01                	mov    $0x1,%al
     8eb:	00 00                	add    %al,(%eax)
     8ed:	0c 07                	or     $0x7,%al
     8ef:	03 00                	add    (%eax),%eax
     8f1:	00 ac 42 10 00 3e 00 	add    %ch,0x3e0010(%edx,%eax,2)
     8f8:	00 00                	add    %al,(%eax)
     8fa:	b5 05                	mov    $0x5,%ch
     8fc:	00 00                	add    %al,(%eax)
     8fe:	02 03                	add    (%ebx),%al
     900:	48                   	dec    %eax
     901:	03 00                	add    (%eax),%eax
     903:	00 01                	add    %al,(%ecx)
     905:	04 2d                	add    $0x2d,%al
     907:	00 00                	add    %al,(%eax)
     909:	00 04 04             	add    %al,(%esp,%eax,1)
     90c:	21 00                	and    %eax,(%eax)
     90e:	00 00                	add    %al,(%eax)
     910:	03 56 03             	add    0x3(%esi),%edx
     913:	00 00                	add    %al,(%eax)
     915:	01 06                	add    %eax,(%esi)
     917:	2d 00 00 00 05       	sub    $0x5000000,%eax
     91c:	01 08                	add    %ecx,(%eax)
     91e:	d1 00                	roll   (%eax)
     920:	00 00                	add    %al,(%eax)
     922:	06                   	push   %es
     923:	a7                   	cmpsl  %es:(%edi),%ds:(%esi)
     924:	00 00                	add    %al,(%eax)
     926:	00 02                	add    %al,(%edx)
     928:	39 50 00             	cmp    %edx,0x0(%eax)
     92b:	00 00                	add    %al,(%eax)
     92d:	05 01 06 d3 00       	add    $0xd30601,%eax
     932:	00 00                	add    %al,(%eax)
     934:	05 02 05 0f 00       	add    $0xf0502,%eax
     939:	00 00                	add    %al,(%eax)
     93b:	05 02 07 56 01       	add    $0x1560702,%eax
     940:	00 00                	add    %al,(%eax)
     942:	06                   	push   %es
     943:	25 01 00 00 02       	and    $0x2000001,%eax
     948:	4d                   	dec    %ebp
     949:	70 00                	jo     94b <_scga-0xb76b5>
     94b:	00 00                	add    %al,(%eax)
     94d:	07                   	pop    %es
     94e:	04 05                	add    $0x5,%al
     950:	69 6e 74 00 06 4f 00 	imul   $0x4f0600,0x74(%esi),%ebp
     957:	00 00                	add    %al,(%eax)
     959:	02 4e 82             	add    -0x7e(%esi),%cl
     95c:	00 00                	add    %al,(%eax)
     95e:	00 05 04 07 ff 00    	add    %al,0xff0704
     964:	00 00                	add    %al,(%eax)
     966:	05 08 07 f5 00       	add    $0xf50708,%eax
     96b:	00 00                	add    %al,(%eax)
     96d:	06                   	push   %es
     96e:	1a 02                	sbb    (%edx),%al
     970:	00 00                	add    %al,(%eax)
     972:	02 6d 2d             	add    0x2d(%ebp),%ch
     975:	00 00                	add    %al,(%eax)
     977:	00 08                	add    %cl,(%eax)
     979:	90                   	nop
     97a:	00 00                	add    %al,(%eax)
     97c:	00 06                	add    %al,(%esi)
     97e:	07                   	pop    %es
     97f:	00 00                	add    %al,(%eax)
     981:	00 03                	add    %al,(%ebx)
     983:	43                   	inc    %ebx
     984:	77 00                	ja     986 <_scga-0xb767a>
     986:	00 00                	add    %al,(%eax)
     988:	08 a0 00 00 00 06    	or     %ah,0x6000000(%eax)
     98e:	6a 00                	push   $0x0
     990:	00 00                	add    %al,(%eax)
     992:	03 57 65             	add    0x65(%edi),%edx
     995:	00 00                	add    %al,(%eax)
     997:	00 05 04 05 af 00    	add    %al,0xaf0504
     99d:	00 00                	add    %al,(%eax)
     99f:	09 9b 00 00 00 d2    	or     %ebx,-0x2e000000(%ebx)
     9a5:	00 00                	add    %al,(%eax)
     9a7:	00 0a                	add    %cl,(%edx)
     9a9:	d7                   	xlat   %ds:(%ebx)
     9aa:	00 00                	add    %al,(%eax)
     9ac:	00 00                	add    %al,(%eax)
     9ae:	00 08                	add    %cl,(%eax)
     9b0:	c2 00 00             	ret    $0x0
     9b3:	00 05 04 07 24 00    	add    %al,0x240704
     9b9:	00 00                	add    %al,(%eax)
     9bb:	03 94 00 00 00 04 56 	add    0x56040000(%eax,%eax,1),%edx
     9c2:	d2 00                	rolb   %cl,(%eax)
     9c4:	00 00                	add    %al,(%eax)
     9c6:	09 ab 00 00 00 f4    	or     %ebp,-0xc000000(%ebx)
     9cc:	00 00                	add    %al,(%eax)
     9ce:	00 0b                	add    %cl,(%ebx)
     9d0:	00 08                	add    %cl,(%eax)
     9d2:	e9 00 00 00 03       	jmp    30009d7 <gdt+0x2dfe977>
     9d7:	59                   	pop    %ecx
     9d8:	00 00                	add    %al,(%eax)
     9da:	00 05 65 f4 00 00    	add    %al,0xf465
     9e0:	00 03                	add    %al,(%ebx)
     9e2:	57                   	push   %edi
     9e3:	02 00                	add    (%eax),%al
     9e5:	00 05 66 f4 00 00    	add    %al,0xf466
     9eb:	00 09                	add    %cl,(%ecx)
     9ed:	a0 00 00 00 1a       	mov    0x1a000000,%al
     9f2:	01 00                	add    %eax,(%eax)
     9f4:	00 0b                	add    %cl,(%ebx)
     9f6:	00 03                	add    %al,(%ebx)
     9f8:	40                   	inc    %eax
     9f9:	02 00                	add    (%eax),%al
     9fb:	00 05 70 0f 01 00    	add    %al,0x10f70
     a01:	00 09                	add    %cl,(%ecx)
     a03:	b0 00                	mov    $0x0,%al
     a05:	00 00                	add    %al,(%eax)
     a07:	30 01                	xor    %al,(%ecx)
     a09:	00 00                	add    %al,(%eax)
     a0b:	0b 00                	or     (%eax),%eax
     a0d:	03 6b 02             	add    0x2(%ebx),%ebp
     a10:	00 00                	add    %al,(%eax)
     a12:	05 71 25 01 00       	add    $0x12571,%eax
     a17:	00 03                	add    %al,(%ebx)
     a19:	c2 00 00             	ret    $0x0
     a1c:	00 05 72 a0 00 00    	add    %al,0xa072
     a22:	00 03                	add    %al,(%ebx)
     a24:	19 00                	sbb    %eax,(%eax)
     a26:	00 00                	add    %al,(%eax)
     a28:	05 77 b0 00 00       	add    $0xb077,%eax
     a2d:	00 03                	add    %al,(%ebx)
     a2f:	4b                   	dec    %ebx
     a30:	02 00                	add    (%eax),%al
     a32:	00 05 7a b0 00 00    	add    %al,0xb07a
     a38:	00 03                	add    %al,(%ebx)
     a3a:	0c 01                	or     $0x1,%al
     a3c:	00 00                	add    %al,(%eax)
     a3e:	06                   	push   %es
     a3f:	43                   	inc    %ebx
     a40:	b0 00                	mov    $0x0,%al
     a42:	00 00                	add    %al,(%eax)
     a44:	03 7f 00             	add    0x0(%edi),%edi
     a47:	00 00                	add    %al,(%eax)
     a49:	07                   	pop    %es
     a4a:	3f                   	aas    
     a4b:	a0 00 00 00 03       	mov    0x3000000,%al
     a50:	39 01                	cmp    %eax,(%ecx)
     a52:	00 00                	add    %al,(%eax)
     a54:	08 8a a0 00 00 00    	or     %cl,0xa0(%edx)
     a5a:	09 45 00             	or     %eax,0x0(%ebp)
     a5d:	00 00                	add    %al,(%eax)
     a5f:	88 01                	mov    %al,(%ecx)
     a61:	00 00                	add    %al,(%eax)
     a63:	0b 00                	or     (%eax),%eax
     a65:	03 71 00             	add    0x0(%ecx),%esi
     a68:	00 00                	add    %al,(%eax)
     a6a:	09 97 7d 01 00 00    	or     %edx,0x17d(%edi)
     a70:	05 01 06 da 00       	add    $0xda0601,%eax
     a75:	00 00                	add    %al,(%eax)
     a77:	0c 62                	or     $0x62,%al
     a79:	03 00                	add    (%eax),%eax
     a7b:	00 01                	add    %al,(%ecx)
     a7d:	19 d5                	sbb    %edx,%ebp
     a7f:	42                   	inc    %edx
     a80:	10 00                	adc    %al,(%eax)
     a82:	15 00 00 00 01       	adc    $0x1000000,%eax
     a87:	9c                   	pushf  
     a88:	cb                   	lret   
     a89:	01 00                	add    %eax,(%eax)
     a8b:	00 0d e0 42 10 00    	add    %cl,0x1042e0
     a91:	cb                   	lret   
     a92:	01 00                	add    %eax,(%eax)
     a94:	00 0d e5 42 10 00    	add    %cl,0x1042e5
     a9a:	11 02                	adc    %eax,(%edx)
     a9c:	00 00                	add    %al,(%eax)
     a9e:	0d ea 42 10 00       	or     $0x1042ea,%eax
     aa3:	1c 02                	sbb    $0x2,%al
     aa5:	00 00                	add    %al,(%eax)
     aa7:	00 0e                	add    %cl,(%esi)
     aa9:	6f                   	outsl  %ds:(%esi),(%dx)
     aaa:	03 00                	add    (%eax),%eax
     aac:	00 01                	add    %al,(%ecx)
     aae:	08 ac 42 10 00 29 00 	or     %ch,0x290010(%edx,%eax,2)
     ab5:	00 00                	add    %al,(%eax)
     ab7:	01 9c f9 01 00 00 0f 	add    %ebx,0xf000001(%ecx,%edi,8)
     abe:	b2 42                	mov    $0x42,%dl
     ac0:	10 00                	adc    %al,(%eax)
     ac2:	21 00                	and    %eax,(%eax)
     ac4:	00 00                	add    %al,(%eax)
     ac6:	10 9f 05 00 00 01    	adc    %bl,0x1000005(%edi)
     acc:	0d 06 02 00 00       	or     $0x206,%eax
     ad1:	02 91 6c 00 00 11    	add    0x1100006c(%ecx),%dl
     ad7:	00 02                	add    %al,(%edx)
     ad9:	00 00                	add    %al,(%eax)
     adb:	12 00                	adc    (%eax),%al
     add:	04 04                	add    $0x4,%al
     adf:	0b 02                	or     (%edx),%eax
     ae1:	00 00                	add    %al,(%eax)
     ae3:	13 00                	adc    (%eax),%eax
     ae5:	02 00                	add    (%eax),%al
     ae7:	00 04 04             	add    %al,(%esp,%eax,1)
     aea:	f9                   	stc    
     aeb:	01 00                	add    %eax,(%eax)
     aed:	00 14 38             	add    %dl,(%eax,%edi,1)
     af0:	03 00                	add    (%eax),%eax
     af2:	00 38                	add    %bh,(%eax)
     af4:	03 00                	add    (%eax),%eax
     af6:	00 0a                	add    %cl,(%edx)
     af8:	41                   	inc    %ecx
     af9:	14 3b                	adc    $0x3b,%al
     afb:	00 00                	add    %al,(%eax)
     afd:	00 3b                	add    %bh,(%ebx)
     aff:	00 00                	add    %al,(%eax)
     b01:	00 01                	add    %al,(%ecx)
     b03:	13 00                	adc    (%eax),%eax
     b05:	e3 06                	jecxz  b0d <_scga-0xb74f3>
     b07:	00 00                	add    %al,(%eax)
     b09:	04 00                	add    $0x0,%al
     b0b:	f5                   	cmc    
     b0c:	03 00                	add    (%eax),%eax
     b0e:	00 04 01             	add    %al,(%ecx,%eax,1)
     b11:	b0 01                	mov    $0x1,%al
     b13:	00 00                	add    %al,(%eax)
     b15:	0c ae                	or     $0xae,%al
     b17:	04 00                	add    $0x0,%al
     b19:	00 ea                	add    %ch,%dl
     b1b:	42                   	inc    %edx
     b1c:	10 00                	adc    %al,(%eax)
     b1e:	65 00 00             	add    %al,%gs:(%eax)
     b21:	00 74 07 00          	add    %dh,0x0(%edi,%eax,1)
     b25:	00 02                	add    %al,(%edx)
     b27:	01 08                	add    %ecx,(%eax)
     b29:	d1 00                	roll   (%eax)
     b2b:	00 00                	add    %al,(%eax)
     b2d:	03 80 03 00 00 04    	add    0x4000003(%eax),%eax
     b33:	38 21                	cmp    %ah,(%ecx)
     b35:	00 00                	add    %al,(%eax)
     b37:	00 03                	add    %al,(%ebx)
     b39:	a7                   	cmpsl  %es:(%edi),%ds:(%esi)
     b3a:	00 00                	add    %al,(%eax)
     b3c:	00 04 39             	add    %al,(%ecx,%edi,1)
     b3f:	3e 00 00             	add    %al,%ds:(%eax)
     b42:	00 02                	add    %al,(%edx)
     b44:	01 06                	add    %eax,(%esi)
     b46:	d3 00                	roll   %cl,(%eax)
     b48:	00 00                	add    %al,(%eax)
     b4a:	02 02                	add    (%edx),%al
     b4c:	05 0f 00 00 00       	add    $0xf,%eax
     b51:	02 02                	add    (%edx),%al
     b53:	07                   	pop    %es
     b54:	56                   	push   %esi
     b55:	01 00                	add    %eax,(%eax)
     b57:	00 03                	add    %al,(%ebx)
     b59:	25 01 00 00 04       	and    $0x4000001,%eax
     b5e:	4d                   	dec    %ebp
     b5f:	5e                   	pop    %esi
     b60:	00 00                	add    %al,(%eax)
     b62:	00 04 04             	add    %al,(%esp,%eax,1)
     b65:	05 69 6e 74 00       	add    $0x746e69,%eax
     b6a:	03 4f 00             	add    0x0(%edi),%ecx
     b6d:	00 00                	add    %al,(%eax)
     b6f:	04 4e                	add    $0x4e,%al
     b71:	70 00                	jo     b73 <_scga-0xb748d>
     b73:	00 00                	add    %al,(%eax)
     b75:	02 04 07             	add    (%edi,%eax,1),%al
     b78:	ff 00                	incl   (%eax)
     b7a:	00 00                	add    %al,(%eax)
     b7c:	02 08                	add    (%eax),%cl
     b7e:	07                   	pop    %es
     b7f:	f5                   	cmc    
     b80:	00 00                	add    %al,(%eax)
     b82:	00 05 04 84 00 00    	add    %al,0x8404
     b88:	00 06                	add    %al,(%esi)
     b8a:	03 1a                	add    (%edx),%ebx
     b8c:	02 00                	add    (%eax),%al
     b8e:	00 04 6d 7e 00 00 00 	add    %al,0x7e(,%ebp,2)
     b95:	07                   	pop    %es
     b96:	85 00                	test   %eax,(%eax)
     b98:	00 00                	add    %al,(%eax)
     b9a:	03 07                	add    (%edi),%eax
     b9c:	00 00                	add    %al,(%eax)
     b9e:	00 05 43 65 00 00    	add    %al,0x6543
     ba4:	00 07                	add    %al,(%edi)
     ba6:	95                   	xchg   %eax,%ebp
     ba7:	00 00                	add    %al,(%eax)
     ba9:	00 03                	add    %al,(%ebx)
     bab:	6a 00                	push   $0x0
     bad:	00 00                	add    %al,(%eax)
     baf:	05 57 53 00 00       	add    $0x5357,%eax
     bb4:	00 02                	add    %al,(%edx)
     bb6:	04 05                	add    $0x5,%al
     bb8:	af                   	scas   %es:(%edi),%eax
     bb9:	00 00                	add    %al,(%eax)
     bbb:	00 08                	add    %cl,(%eax)
     bbd:	90                   	nop
     bbe:	00 00                	add    %al,(%eax)
     bc0:	00 c7                	add    %al,%bh
     bc2:	00 00                	add    %al,(%eax)
     bc4:	00 09                	add    %cl,(%ecx)
     bc6:	cc                   	int3   
     bc7:	00 00                	add    %al,(%eax)
     bc9:	00 00                	add    %al,(%eax)
     bcb:	00 07                	add    %al,(%edi)
     bcd:	b7 00                	mov    $0x0,%bh
     bcf:	00 00                	add    %al,(%eax)
     bd1:	02 04 07             	add    (%edi,%eax,1),%al
     bd4:	24 00                	and    $0x0,%al
     bd6:	00 00                	add    %al,(%eax)
     bd8:	0a 94 00 00 00 06 56 	or     0x56060000(%eax,%eax,1),%dl
     bdf:	c7 00 00 00 08 a0    	movl   $0xa0080000,(%eax)
     be5:	00 00                	add    %al,(%eax)
     be7:	00 e9                	add    %ch,%cl
     be9:	00 00                	add    %al,(%eax)
     beb:	00 0b                	add    %cl,(%ebx)
     bed:	00 07                	add    %al,(%edi)
     bef:	de 00                	fiadd  (%eax)
     bf1:	00 00                	add    %al,(%eax)
     bf3:	0a 59 00             	or     0x0(%ecx),%bl
     bf6:	00 00                	add    %al,(%eax)
     bf8:	07                   	pop    %es
     bf9:	65 e9 00 00 00 0a    	gs jmp a000bff <gdt+0x9dfeb9f>
     bff:	57                   	push   %edi
     c00:	02 00                	add    (%eax),%al
     c02:	00 07                	add    %al,(%edi)
     c04:	66 e9 00 00          	jmpw   c08 <_scga-0xb73f8>
     c08:	00 08                	add    %cl,(%eax)
     c0a:	95                   	xchg   %eax,%ebp
     c0b:	00 00                	add    %al,(%eax)
     c0d:	00 0f                	add    %cl,(%edi)
     c0f:	01 00                	add    %eax,(%eax)
     c11:	00 0b                	add    %cl,(%ebx)
     c13:	00 0a                	add    %cl,(%edx)
     c15:	40                   	inc    %eax
     c16:	02 00                	add    (%eax),%al
     c18:	00 07                	add    %al,(%edi)
     c1a:	70 04                	jo     c20 <_scga-0xb73e0>
     c1c:	01 00                	add    %eax,(%eax)
     c1e:	00 08                	add    %cl,(%eax)
     c20:	a5                   	movsl  %ds:(%esi),%es:(%edi)
     c21:	00 00                	add    %al,(%eax)
     c23:	00 25 01 00 00 0b    	add    %ah,0xb000001
     c29:	00 0a                	add    %cl,(%edx)
     c2b:	6b 02 00             	imul   $0x0,(%edx),%eax
     c2e:	00 07                	add    %al,(%edi)
     c30:	71 1a                	jno    c4c <_scga-0xb73b4>
     c32:	01 00                	add    %eax,(%eax)
     c34:	00 0a                	add    %cl,(%edx)
     c36:	c2 00 00             	ret    $0x0
     c39:	00 07                	add    %al,(%edi)
     c3b:	72 95                	jb     bd2 <_scga-0xb742e>
     c3d:	00 00                	add    %al,(%eax)
     c3f:	00 0a                	add    %cl,(%edx)
     c41:	19 00                	sbb    %eax,(%eax)
     c43:	00 00                	add    %al,(%eax)
     c45:	07                   	pop    %es
     c46:	77 a5                	ja     bed <_scga-0xb7413>
     c48:	00 00                	add    %al,(%eax)
     c4a:	00 0a                	add    %cl,(%edx)
     c4c:	4b                   	dec    %ebx
     c4d:	02 00                	add    (%eax),%al
     c4f:	00 07                	add    %al,(%edi)
     c51:	7a a5                	jp     bf8 <_scga-0xb7408>
     c53:	00 00                	add    %al,(%eax)
     c55:	00 0a                	add    %cl,(%edx)
     c57:	0c 01                	or     $0x1,%al
     c59:	00 00                	add    %al,(%eax)
     c5b:	08 43 a5             	or     %al,-0x5b(%ebx)
     c5e:	00 00                	add    %al,(%eax)
     c60:	00 0a                	add    %cl,(%edx)
     c62:	7f 00                	jg     c64 <_scga-0xb739c>
     c64:	00 00                	add    %al,(%eax)
     c66:	09 3f                	or     %edi,(%edi)
     c68:	95                   	xchg   %eax,%ebp
     c69:	00 00                	add    %al,(%eax)
     c6b:	00 0c 04             	add    %cl,(%esp,%eax,1)
     c6e:	70 00                	jo     c70 <_scga-0xb7390>
     c70:	00 00                	add    %al,(%eax)
     c72:	0c 35                	or     $0x35,%al
     c74:	a4                   	movsb  %ds:(%esi),%es:(%edi)
     c75:	01 00                	add    %eax,(%eax)
     c77:	00 0d 89 03 00 00    	add    %cl,0x389
     c7d:	20 0d 72 04 00 00    	and    %cl,0x472
     c83:	a0 0d ae 03 00       	mov    0x3ae0d,%al
     c88:	00 20                	add    %ah,(%eax)
     c8a:	0d f3 03 00 00       	or     $0x3f3,%eax
     c8f:	21 0d bb 03 00 00    	and    %ecx,0x3bb
     c95:	a0 0d 43 04 00       	mov    0x4430d,%al
     c9a:	00 a1 0d a6 04 00    	add    %ah,0x4a60d(%ecx)
     ca0:	00 20                	add    %ah,(%eax)
     ca2:	0d 89 04 00 00       	or     $0x489,%eax
     ca7:	30 00                	xor    %al,(%eax)
     ca9:	0e                   	push   %cs
     caa:	77 04                	ja     cb0 <_scga-0xb7350>
     cac:	00 00                	add    %al,(%eax)
     cae:	04 70                	add    $0x70,%al
     cb0:	00 00                	add    %al,(%eax)
     cb2:	00 03                	add    %al,(%ebx)
     cb4:	37                   	aaa    
     cb5:	0e                   	push   %cs
     cb6:	02 00                	add    (%eax),%al
     cb8:	00 0f                	add    %cl,(%edi)
     cba:	3e 04 00             	ds add $0x0,%al
     cbd:	00 00                	add    %al,(%eax)
     cbf:	00 e0                	add    %ah,%al
     cc1:	fe                   	(bad)  
     cc2:	10 49 44             	adc    %cl,0x44(%ecx)
     cc5:	00 20                	add    %ah,(%eax)
     cc7:	00 e0                	add    %ah,%al
     cc9:	fe 0f                	decb   (%edi)
     ccb:	9a 04 00 00 f0 00 e0 	lcall  $0xe000,$0xf0000004
     cd2:	fe                   	(bad)  
     cd3:	10 54 50 52          	adc    %dl,0x52(%eax,%edx,2)
     cd7:	00 80 00 e0 fe 10    	add    %al,0x10fee000(%eax)
     cdd:	50                   	push   %eax
     cde:	50                   	push   %eax
     cdf:	52                   	push   %edx
     ce0:	00 a0 00 e0 fe 10    	add    %ah,0x10fee000(%eax)
     ce6:	45                   	inc    %ebp
     ce7:	4f                   	dec    %edi
     ce8:	49                   	dec    %ecx
     ce9:	00 b0 00 e0 fe 10    	add    %dh,0x10fee000(%eax)
     cef:	49                   	dec    %ecx
     cf0:	52                   	push   %edx
     cf1:	52                   	push   %edx
     cf2:	00 00                	add    %al,(%eax)
     cf4:	02 e0                	add    %al,%ah
     cf6:	fe 0f                	decb   (%edi)
     cf8:	9f                   	lahf   
     cf9:	04 00                	add    $0x0,%al
     cfb:	00 00                	add    %al,(%eax)
     cfd:	01 e0                	add    %esp,%eax
     cff:	fe 0f                	decb   (%edi)
     d01:	04 04                	add    $0x4,%al
     d03:	00 00                	add    %al,(%eax)
     d05:	00 03                	add    %al,(%ebx)
     d07:	e0 fe                	loopne d07 <_scga-0xb72f9>
     d09:	0f fd 03             	paddw  (%ebx),%mm0
     d0c:	00 00                	add    %al,(%eax)
     d0e:	10 03                	adc    %al,(%ebx)
     d10:	e0 fe                	loopne d10 <_scga-0xb72f0>
     d12:	00 0a                	add    %cl,(%edx)
     d14:	39 01                	cmp    %eax,(%ecx)
     d16:	00 00                	add    %al,(%eax)
     d18:	0a 8a 95 00 00 00    	or     0x95(%edx),%cl
     d1e:	08 33                	or     %dh,(%ebx)
     d20:	00 00                	add    %al,(%eax)
     d22:	00 24 02             	add    %ah,(%edx,%eax,1)
     d25:	00 00                	add    %al,(%eax)
     d27:	0b 00                	or     (%eax),%eax
     d29:	0a 71 00             	or     0x0(%ecx),%dh
     d2c:	00 00                	add    %al,(%eax)
     d2e:	0b 97 19 02 00 00    	or     0x219(%edi),%edx
     d34:	02 01                	add    (%ecx),%al
     d36:	06                   	push   %es
     d37:	da 00                	fiaddl (%eax)
     d39:	00 00                	add    %al,(%eax)
     d3b:	11 38                	adc    %edi,(%eax)
     d3d:	03 00                	add    (%eax),%eax
     d3f:	00 01                	add    %al,(%ecx)
     d41:	04 ea                	add    $0xea,%al
     d43:	42                   	inc    %edx
     d44:	10 00                	adc    %al,(%eax)
     d46:	65 00 00             	add    %al,%gs:(%eax)
     d49:	00 01                	add    %al,(%ecx)
     d4b:	9c                   	pushf  
     d4c:	cb                   	lret   
     d4d:	05 00 00 12 32       	add    $0x32120000,%eax
     d52:	06                   	push   %es
     d53:	00 00                	add    %al,(%eax)
     d55:	fa                   	cli    
     d56:	42                   	inc    %edx
     d57:	10 00                	adc    %al,(%eax)
     d59:	3c 00                	cmp    $0x0,%al
     d5b:	00 00                	add    %al,(%eax)
     d5d:	01 09                	add    %ecx,(%ecx)
     d5f:	dd 04 00             	fldl   (%eax,%eax,1)
     d62:	00 13                	add    %dl,(%ebx)
     d64:	3a 06                	cmp    (%esi),%al
     d66:	00 00                	add    %al,(%eax)
     d68:	fa                   	cli    
     d69:	42                   	inc    %edx
     d6a:	10 00                	adc    %al,(%eax)
     d6c:	3c 00                	cmp    $0x0,%al
     d6e:	00 00                	add    %al,(%eax)
     d70:	0c 70                	or     $0x70,%al
     d72:	14 51                	adc    $0x51,%al
     d74:	06                   	push   %es
     d75:	00 00                	add    %al,(%eax)
     d77:	b6 02                	mov    $0x2,%dh
     d79:	00 00                	add    %al,(%eax)
     d7b:	14 46                	adc    $0x46,%al
     d7d:	06                   	push   %es
     d7e:	00 00                	add    %al,(%eax)
     d80:	cb                   	lret   
     d81:	02 00                	add    (%eax),%al
     d83:	00 15 fa 42 10 00    	add    %dl,0x1042fa
     d89:	3c 00                	cmp    $0x0,%al
     d8b:	00 00                	add    %al,(%eax)
     d8d:	16                   	push   %ss
     d8e:	5c                   	pop    %esp
     d8f:	06                   	push   %es
     d90:	00 00                	add    %al,(%eax)
     d92:	16                   	push   %ss
     d93:	67 06                	addr16 push %es
     d95:	00 00                	add    %al,(%eax)
     d97:	12 7b 06             	adc    0x6(%ebx),%bh
     d9a:	00 00                	add    %al,(%eax)
     d9c:	fa                   	cli    
     d9d:	42                   	inc    %edx
     d9e:	10 00                	adc    %al,(%eax)
     da0:	04 00                	add    $0x0,%al
     da2:	00 00                	add    %al,(%eax)
     da4:	0c 4b                	or     $0x4b,%al
     da6:	be 02 00 00 14       	mov    $0x14000002,%esi
     dab:	8b 06                	mov    (%esi),%eax
     dad:	00 00                	add    %al,(%eax)
     daf:	e0 02                	loopne db3 <_scga-0xb724d>
     db1:	00 00                	add    %al,(%eax)
     db3:	15 fa 42 10 00       	adc    $0x1042fa,%eax
     db8:	04 00                	add    $0x0,%al
     dba:	00 00                	add    %al,(%eax)
     dbc:	16                   	push   %ss
     dbd:	96                   	xchg   %eax,%esi
     dbe:	06                   	push   %es
     dbf:	00 00                	add    %al,(%eax)
     dc1:	00 00                	add    %al,(%eax)
     dc3:	12 7b 06             	adc    0x6(%ebx),%bh
     dc6:	00 00                	add    %al,(%eax)
     dc8:	fe 42 10             	incb   0x10(%edx)
     dcb:	00 04 00             	add    %al,(%eax,%eax,1)
     dce:	00 00                	add    %al,(%eax)
     dd0:	0c 4c                	or     $0x4c,%al
     dd2:	ea 02 00 00 14 8b 06 	ljmp   $0x68b,$0x14000002
     dd9:	00 00                	add    %al,(%eax)
     ddb:	f5                   	cmc    
     ddc:	02 00                	add    (%eax),%al
     dde:	00 15 fe 42 10 00    	add    %dl,0x1042fe
     de4:	04 00                	add    $0x0,%al
     de6:	00 00                	add    %al,(%eax)
     de8:	16                   	push   %ss
     de9:	96                   	xchg   %eax,%esi
     dea:	06                   	push   %es
     deb:	00 00                	add    %al,(%eax)
     ded:	00 00                	add    %al,(%eax)
     def:	12 a2 06 00 00 02    	adc    0x2000006(%edx),%ah
     df5:	43                   	inc    %ebx
     df6:	10 00                	adc    %al,(%eax)
     df8:	04 00                	add    $0x0,%al
     dfa:	00 00                	add    %al,(%eax)
     dfc:	0c 4f                	or     $0x4f,%al
     dfe:	10 03                	adc    %al,(%ebx)
     e00:	00 00                	add    %al,(%eax)
     e02:	14 b9                	adc    $0xb9,%al
     e04:	06                   	push   %es
     e05:	00 00                	add    %al,(%eax)
     e07:	0a 03                	or     (%ebx),%al
     e09:	00 00                	add    %al,(%eax)
     e0b:	14 ae                	adc    $0xae,%al
     e0d:	06                   	push   %es
     e0e:	00 00                	add    %al,(%eax)
     e10:	1e                   	push   %ds
     e11:	03 00                	add    (%eax),%eax
     e13:	00 00                	add    %al,(%eax)
     e15:	17                   	pop    %ss
     e16:	73 06                	jae    e1e <_scga-0xb71e2>
     e18:	00 00                	add    %al,(%eax)
     e1a:	06                   	push   %es
     e1b:	43                   	inc    %ebx
     e1c:	10 00                	adc    %al,(%eax)
     e1e:	02 00                	add    (%eax),%al
     e20:	00 00                	add    %al,(%eax)
     e22:	0c 50                	or     $0x50,%al
     e24:	12 a2 06 00 00 08    	adc    0x8000006(%edx),%ah
     e2a:	43                   	inc    %ebx
     e2b:	10 00                	adc    %al,(%eax)
     e2d:	02 00                	add    (%eax),%al
     e2f:	00 00                	add    %al,(%eax)
     e31:	0c 51                	or     $0x51,%al
     e33:	45                   	inc    %ebp
     e34:	03 00                	add    (%eax),%eax
     e36:	00 14 b9             	add    %dl,(%ecx,%edi,4)
     e39:	06                   	push   %es
     e3a:	00 00                	add    %al,(%eax)
     e3c:	33 03                	xor    (%ebx),%eax
     e3e:	00 00                	add    %al,(%eax)
     e40:	14 ae                	adc    $0xae,%al
     e42:	06                   	push   %es
     e43:	00 00                	add    %al,(%eax)
     e45:	47                   	inc    %edi
     e46:	03 00                	add    (%eax),%eax
     e48:	00 00                	add    %al,(%eax)
     e4a:	17                   	pop    %ss
     e4b:	73 06                	jae    e53 <_scga-0xb71ad>
     e4d:	00 00                	add    %al,(%eax)
     e4f:	0a 43 10             	or     0x10(%ebx),%al
     e52:	00 02                	add    %al,(%edx)
     e54:	00 00                	add    %al,(%eax)
     e56:	00 0c 52             	add    %cl,(%edx,%edx,2)
     e59:	12 a2 06 00 00 0c    	adc    0xc000006(%edx),%ah
     e5f:	43                   	inc    %ebx
     e60:	10 00                	adc    %al,(%eax)
     e62:	04 00                	add    $0x0,%al
     e64:	00 00                	add    %al,(%eax)
     e66:	0c 55                	or     $0x55,%al
     e68:	7a 03                	jp     e6d <_scga-0xb7193>
     e6a:	00 00                	add    %al,(%eax)
     e6c:	14 b9                	adc    $0xb9,%al
     e6e:	06                   	push   %es
     e6f:	00 00                	add    %al,(%eax)
     e71:	5c                   	pop    %esp
     e72:	03 00                	add    (%eax),%eax
     e74:	00 14 ae             	add    %dl,(%esi,%ebp,4)
     e77:	06                   	push   %es
     e78:	00 00                	add    %al,(%eax)
     e7a:	71 03                	jno    e7f <_scga-0xb7181>
     e7c:	00 00                	add    %al,(%eax)
     e7e:	00 17                	add    %dl,(%edi)
     e80:	73 06                	jae    e88 <_scga-0xb7178>
     e82:	00 00                	add    %al,(%eax)
     e84:	10 43 10             	adc    %al,0x10(%ebx)
     e87:	00 02                	add    %al,(%edx)
     e89:	00 00                	add    %al,(%eax)
     e8b:	00 0c 56             	add    %cl,(%esi,%edx,2)
     e8e:	12 a2 06 00 00 12    	adc    0x12000006(%edx),%ah
     e94:	43                   	inc    %ebx
     e95:	10 00                	adc    %al,(%eax)
     e97:	04 00                	add    $0x0,%al
     e99:	00 00                	add    %al,(%eax)
     e9b:	0c 57                	or     $0x57,%al
     e9d:	af                   	scas   %es:(%edi),%eax
     e9e:	03 00                	add    (%eax),%eax
     ea0:	00 14 b9             	add    %dl,(%ecx,%edi,4)
     ea3:	06                   	push   %es
     ea4:	00 00                	add    %al,(%eax)
     ea6:	86 03                	xchg   %al,(%ebx)
     ea8:	00 00                	add    %al,(%eax)
     eaa:	14 ae                	adc    $0xae,%al
     eac:	06                   	push   %es
     ead:	00 00                	add    %al,(%eax)
     eaf:	9b                   	fwait
     eb0:	03 00                	add    (%eax),%eax
     eb2:	00 00                	add    %al,(%eax)
     eb4:	17                   	pop    %ss
     eb5:	73 06                	jae    ebd <_scga-0xb7143>
     eb7:	00 00                	add    %al,(%eax)
     eb9:	16                   	push   %ss
     eba:	43                   	inc    %ebx
     ebb:	10 00                	adc    %al,(%eax)
     ebd:	02 00                	add    (%eax),%al
     ebf:	00 00                	add    %al,(%eax)
     ec1:	0c 58                	or     $0x58,%al
     ec3:	12 a2 06 00 00 18    	adc    0x18000006(%edx),%ah
     ec9:	43                   	inc    %ebx
     eca:	10 00                	adc    %al,(%eax)
     ecc:	04 00                	add    $0x0,%al
     ece:	00 00                	add    %al,(%eax)
     ed0:	0c 5b                	or     $0x5b,%al
     ed2:	e4 03                	in     $0x3,%al
     ed4:	00 00                	add    %al,(%eax)
     ed6:	14 b9                	adc    $0xb9,%al
     ed8:	06                   	push   %es
     ed9:	00 00                	add    %al,(%eax)
     edb:	b0 03                	mov    $0x3,%al
     edd:	00 00                	add    %al,(%eax)
     edf:	14 ae                	adc    $0xae,%al
     ee1:	06                   	push   %es
     ee2:	00 00                	add    %al,(%eax)
     ee4:	c4 03                	les    (%ebx),%eax
     ee6:	00 00                	add    %al,(%eax)
     ee8:	00 17                	add    %dl,(%edi)
     eea:	73 06                	jae    ef2 <_scga-0xb710e>
     eec:	00 00                	add    %al,(%eax)
     eee:	1c 43                	sbb    $0x43,%al
     ef0:	10 00                	adc    %al,(%eax)
     ef2:	02 00                	add    (%eax),%al
     ef4:	00 00                	add    %al,(%eax)
     ef6:	0c 5c                	or     $0x5c,%al
     ef8:	12 a2 06 00 00 1e    	adc    0x1e000006(%edx),%ah
     efe:	43                   	inc    %ebx
     eff:	10 00                	adc    %al,(%eax)
     f01:	04 00                	add    $0x0,%al
     f03:	00 00                	add    %al,(%eax)
     f05:	0c 5e                	or     $0x5e,%al
     f07:	19 04 00             	sbb    %eax,(%eax,%eax,1)
     f0a:	00 14 b9             	add    %dl,(%ecx,%edi,4)
     f0d:	06                   	push   %es
     f0e:	00 00                	add    %al,(%eax)
     f10:	d9 03                	flds   (%ebx)
     f12:	00 00                	add    %al,(%eax)
     f14:	14 ae                	adc    $0xae,%al
     f16:	06                   	push   %es
     f17:	00 00                	add    %al,(%eax)
     f19:	ed                   	in     (%dx),%eax
     f1a:	03 00                	add    (%eax),%eax
     f1c:	00 00                	add    %al,(%eax)
     f1e:	17                   	pop    %ss
     f1f:	73 06                	jae    f27 <_scga-0xb70d9>
     f21:	00 00                	add    %al,(%eax)
     f23:	22 43 10             	and    0x10(%ebx),%al
     f26:	00 02                	add    %al,(%edx)
     f28:	00 00                	add    %al,(%eax)
     f2a:	00 0c 5f             	add    %cl,(%edi,%ebx,2)
     f2d:	12 a2 06 00 00 24    	adc    0x24000006(%edx),%ah
     f33:	43                   	inc    %ebx
     f34:	10 00                	adc    %al,(%eax)
     f36:	04 00                	add    $0x0,%al
     f38:	00 00                	add    %al,(%eax)
     f3a:	0c 62                	or     $0x62,%al
     f3c:	4e                   	dec    %esi
     f3d:	04 00                	add    $0x0,%al
     f3f:	00 14 b9             	add    %dl,(%ecx,%edi,4)
     f42:	06                   	push   %es
     f43:	00 00                	add    %al,(%eax)
     f45:	02 04 00             	add    (%eax,%eax,1),%al
     f48:	00 14 ae             	add    %dl,(%esi,%ebp,4)
     f4b:	06                   	push   %es
     f4c:	00 00                	add    %al,(%eax)
     f4e:	16                   	push   %ss
     f4f:	04 00                	add    $0x0,%al
     f51:	00 00                	add    %al,(%eax)
     f53:	17                   	pop    %ss
     f54:	73 06                	jae    f5c <_scga-0xb70a4>
     f56:	00 00                	add    %al,(%eax)
     f58:	28 43 10             	sub    %al,0x10(%ebx)
     f5b:	00 02                	add    %al,(%edx)
     f5d:	00 00                	add    %al,(%eax)
     f5f:	00 0c 63             	add    %cl,(%ebx,%eiz,2)
     f62:	12 a2 06 00 00 2a    	adc    0x2a000006(%edx),%ah
     f68:	43                   	inc    %ebx
     f69:	10 00                	adc    %al,(%eax)
     f6b:	02 00                	add    (%eax),%al
     f6d:	00 00                	add    %al,(%eax)
     f6f:	0c 64                	or     $0x64,%al
     f71:	83 04 00 00          	addl   $0x0,(%eax,%eax,1)
     f75:	14 b9                	adc    $0xb9,%al
     f77:	06                   	push   %es
     f78:	00 00                	add    %al,(%eax)
     f7a:	2b 04 00             	sub    (%eax,%eax,1),%eax
     f7d:	00 14 ae             	add    %dl,(%esi,%ebp,4)
     f80:	06                   	push   %es
     f81:	00 00                	add    %al,(%eax)
     f83:	3f                   	aas    
     f84:	04 00                	add    $0x0,%al
     f86:	00 00                	add    %al,(%eax)
     f88:	17                   	pop    %ss
     f89:	73 06                	jae    f91 <_scga-0xb706f>
     f8b:	00 00                	add    %al,(%eax)
     f8d:	2c 43                	sub    $0x43,%al
     f8f:	10 00                	adc    %al,(%eax)
     f91:	02 00                	add    (%eax),%al
     f93:	00 00                	add    %al,(%eax)
     f95:	0c 65                	or     $0x65,%al
     f97:	12 a2 06 00 00 2e    	adc    0x2e000006(%edx),%ah
     f9d:	43                   	inc    %ebx
     f9e:	10 00                	adc    %al,(%eax)
     fa0:	04 00                	add    $0x0,%al
     fa2:	00 00                	add    %al,(%eax)
     fa4:	0c 68                	or     $0x68,%al
     fa6:	b8 04 00 00 14       	mov    $0x14000004,%eax
     fab:	b9 06 00 00 54       	mov    $0x54000006,%ecx
     fb0:	04 00                	add    $0x0,%al
     fb2:	00 14 ae             	add    %dl,(%esi,%ebp,4)
     fb5:	06                   	push   %es
     fb6:	00 00                	add    %al,(%eax)
     fb8:	67 04 00             	addr16 add $0x0,%al
     fbb:	00 00                	add    %al,(%eax)
     fbd:	13 a2 06 00 00 32    	adc    0x32000006(%edx),%esp
     fc3:	43                   	inc    %ebx
     fc4:	10 00                	adc    %al,(%eax)
     fc6:	04 00                	add    $0x0,%al
     fc8:	00 00                	add    %al,(%eax)
     fca:	0c 69                	or     $0x69,%al
     fcc:	14 b9                	adc    $0xb9,%al
     fce:	06                   	push   %es
     fcf:	00 00                	add    %al,(%eax)
     fd1:	7c 04                	jl     fd7 <_scga-0xb7029>
     fd3:	00 00                	add    %al,(%eax)
     fd5:	14 ae                	adc    $0xae,%al
     fd7:	06                   	push   %es
     fd8:	00 00                	add    %al,(%eax)
     fda:	8f 04 00             	popl   (%eax,%eax,1)
     fdd:	00 00                	add    %al,(%eax)
     fdf:	00 00                	add    %al,(%eax)
     fe1:	00 12                	add    %dl,(%edx)
     fe3:	cb                   	lret   
     fe4:	05 00 00 36 43       	add    $0x43360000,%eax
     fe9:	10 00                	adc    %al,(%eax)
     feb:	13 00                	adc    (%eax),%eax
     fed:	00 00                	add    %al,(%eax)
     fef:	01 0b                	add    %ecx,(%ebx)
     ff1:	af                   	scas   %es:(%edi),%eax
     ff2:	05 00 00 12 d3       	add    $0xd3120000,%eax
     ff7:	05 00 00 36 43       	add    $0x43360000,%eax
     ffc:	10 00                	adc    %al,(%eax)
     ffe:	0d 00 00 00 03       	or     $0x3000000,%eax
    1003:	84 56 05             	test   %dl,0x5(%esi)
    1006:	00 00                	add    %al,(%eax)
    1008:	15 36 43 10 00       	adc    $0x104336,%eax
    100d:	0d 00 00 00 18       	or     $0x18000000,%eax
    1012:	df 05 00 00 a4 04    	fild   0x4a40000
    1018:	00 00                	add    %al,(%eax)
    101a:	12 eb                	adc    %bl,%ch
    101c:	05 00 00 36 43       	add    $0x43360000,%eax
    1021:	10 00                	adc    %al,(%eax)
    1023:	05 00 00 00 03       	add    $0x3000000,%eax
    1028:	4f                   	dec    %edi
    1029:	32 05 00 00 14 fb    	xor    0xfb140000,%al
    102f:	05 00 00 b7 04       	add    $0x4b70000,%eax
    1034:	00 00                	add    %al,(%eax)
    1036:	00 13                	add    %dl,(%ebx)
    1038:	07                   	pop    %es
    1039:	06                   	push   %es
    103a:	00 00                	add    %al,(%eax)
    103c:	3e 43                	ds inc %ebx
    103e:	10 00                	adc    %al,(%eax)
    1040:	05 00 00 00 03       	add    $0x3000000,%eax
    1045:	51                   	push   %ecx
    1046:	14 1e                	adc    $0x1e,%al
    1048:	06                   	push   %es
    1049:	00 00                	add    %al,(%eax)
    104b:	a4                   	movsb  %ds:(%esi),%es:(%edi)
    104c:	04 00                	add    $0x0,%al
    104e:	00 14 13             	add    %dl,(%ebx,%edx,1)
    1051:	06                   	push   %es
    1052:	00 00                	add    %al,(%eax)
    1054:	cf                   	iret   
    1055:	04 00                	add    $0x0,%al
    1057:	00 00                	add    %al,(%eax)
    1059:	00 00                	add    %al,(%eax)
    105b:	13 2a                	adc    (%edx),%ebp
    105d:	06                   	push   %es
    105e:	00 00                	add    %al,(%eax)
    1060:	43                   	inc    %ebx
    1061:	43                   	inc    %ebx
    1062:	10 00                	adc    %al,(%eax)
    1064:	06                   	push   %es
    1065:	00 00                	add    %al,(%eax)
    1067:	00 03                	add    %al,(%ebx)
    1069:	86 12                	xchg   %dl,(%edx)
    106b:	a2 06 00 00 43       	mov    %al,0x43000006
    1070:	43                   	inc    %ebx
    1071:	10 00                	adc    %al,(%eax)
    1073:	04 00                	add    $0x0,%al
    1075:	00 00                	add    %al,(%eax)
    1077:	0c 76                	or     $0x76,%al
    1079:	8b 05 00 00 14 b9    	mov    0xb9140000,%eax
    107f:	06                   	push   %es
    1080:	00 00                	add    %al,(%eax)
    1082:	e7 04                	out    %eax,$0x4
    1084:	00 00                	add    %al,(%eax)
    1086:	14 ae                	adc    $0xae,%al
    1088:	06                   	push   %es
    1089:	00 00                	add    %al,(%eax)
    108b:	fc                   	cld    
    108c:	04 00                	add    $0x0,%al
    108e:	00 00                	add    %al,(%eax)
    1090:	13 a2 06 00 00 47    	adc    0x47000006(%edx),%esp
    1096:	43                   	inc    %ebx
    1097:	10 00                	adc    %al,(%eax)
    1099:	02 00                	add    (%eax),%al
    109b:	00 00                	add    %al,(%eax)
    109d:	0c 77                	or     $0x77,%al
    109f:	14 b9                	adc    $0xb9,%al
    10a1:	06                   	push   %es
    10a2:	00 00                	add    %al,(%eax)
    10a4:	11 05 00 00 14 ae    	adc    %eax,0xae140000
    10aa:	06                   	push   %es
    10ab:	00 00                	add    %al,(%eax)
    10ad:	26 05 00 00 00 00    	es add $0x0,%eax
    10b3:	00 19                	add    %bl,(%ecx)
    10b5:	f5                   	cmc    
    10b6:	42                   	inc    %edx
    10b7:	10 00                	adc    %al,(%eax)
    10b9:	c5 06                	lds    (%esi),%eax
    10bb:	00 00                	add    %al,(%eax)
    10bd:	19 fa                	sbb    %edi,%edx
    10bf:	42                   	inc    %edx
    10c0:	10 00                	adc    %al,(%eax)
    10c2:	d0 06                	rolb   (%esi)
    10c4:	00 00                	add    %al,(%eax)
    10c6:	1a 4f 43             	sbb    0x43(%edi),%cl
    10c9:	10 00                	adc    %al,(%eax)
    10cb:	db 06                	fildl  (%esi)
    10cd:	00 00                	add    %al,(%eax)
    10cf:	00 1b                	add    %bl,(%ebx)
    10d1:	4d                   	dec    %ebp
    10d2:	04 00                	add    $0x0,%al
    10d4:	00 03                	add    %al,(%ebx)
    10d6:	83 03 1c             	addl   $0x1c,(%ebx)
    10d9:	2e 04 00             	cs add $0x0,%al
    10dc:	00 03                	add    %al,(%ebx)
    10de:	4e                   	dec    %esi
    10df:	03 eb                	add    %ebx,%ebp
    10e1:	05 00 00 1d 76       	add    $0x761d0000,%eax
    10e6:	61                   	popa   
    10e7:	6c                   	insb   (%dx),%es:(%edi)
    10e8:	00 03                	add    %al,(%ebx)
    10ea:	4f                   	dec    %edi
    10eb:	65 00 00             	add    %al,%gs:(%eax)
    10ee:	00 00                	add    %al,(%eax)
    10f0:	1e                   	push   %ds
    10f1:	e4 03                	in     $0x3,%al
    10f3:	00 00                	add    %al,(%eax)
    10f5:	03 49 65             	add    0x65(%ecx),%ecx
    10f8:	00 00                	add    %al,(%eax)
    10fa:	00 03                	add    %al,(%ebx)
    10fc:	07                   	pop    %es
    10fd:	06                   	push   %es
    10fe:	00 00                	add    %al,(%eax)
    1100:	1f                   	pop    %ds
    1101:	72 65                	jb     1168 <_scga-0xb6e98>
    1103:	67 00 03             	add    %al,(%bp,%di)
    1106:	49                   	dec    %ecx
    1107:	65 00 00             	add    %al,%gs:(%eax)
    110a:	00 00                	add    %al,(%eax)
    110c:	1c 9e                	sbb    $0x9e,%al
    110e:	03 00                	add    (%eax),%eax
    1110:	00 03                	add    %al,(%ebx)
    1112:	45                   	inc    %ebp
    1113:	03 2a                	add    (%edx),%ebp
    1115:	06                   	push   %es
    1116:	00 00                	add    %al,(%eax)
    1118:	1f                   	pop    %ds
    1119:	72 65                	jb     1180 <_scga-0xb6e80>
    111b:	67 00 03             	add    %al,(%bp,%di)
    111e:	45                   	inc    %ebp
    111f:	65 00 00             	add    %al,%gs:(%eax)
    1122:	00 1f                	add    %bl,(%edi)
    1124:	76 61                	jbe    1187 <_scga-0xb6e79>
    1126:	6c                   	insb   (%dx),%es:(%edi)
    1127:	00 03                	add    %al,(%ebx)
    1129:	45                   	inc    %ebp
    112a:	65 00 00             	add    %al,%gs:(%eax)
    112d:	00 00                	add    %al,(%eax)
    112f:	1b 1f                	sbb    (%edi),%ebx
    1131:	04 00                	add    $0x0,%al
    1133:	00 0c 75 03 1b 13 04 	add    %cl,0x4131b03(,%esi,2)
    113a:	00 00                	add    %al,(%eax)
    113c:	0c 6e                	or     $0x6e,%al
    113e:	03 1c c8             	add    (%eax,%ecx,8),%ebx
    1141:	03 00                	add    (%eax),%eax
    1143:	00 0c 49             	add    %cl,(%ecx,%ecx,2)
    1146:	03 73 06             	add    0x6(%ebx),%esi
    1149:	00 00                	add    %al,(%eax)
    114b:	20 8e 03 00 00 0c    	and    %cl,0xc000003(%esi)
    1151:	49                   	dec    %ecx
    1152:	28 00                	sub    %al,(%eax)
    1154:	00 00                	add    %al,(%eax)
    1156:	20 96 03 00 00 0c    	and    %dl,0xc000003(%esi)
    115c:	49                   	dec    %ecx
    115d:	28 00                	sub    %al,(%eax)
    115f:	00 00                	add    %al,(%eax)
    1161:	21 6c 04 00          	and    %ebp,0x0(%esp,%eax,1)
    1165:	00 0c 4b             	add    %cl,(%ebx,%ecx,2)
    1168:	28 00                	sub    %al,(%eax)
    116a:	00 00                	add    %al,(%eax)
    116c:	21 94 04 00 00 0c 4c 	and    %edx,0x4c0c0000(%esp,%eax,1)
    1173:	28 00                	sub    %al,(%eax)
    1175:	00 00                	add    %al,(%eax)
    1177:	00 1b                	add    %bl,(%ebx)
    1179:	0b 04 00             	or     (%eax,%eax,1),%eax
    117c:	00 02                	add    %al,(%edx)
    117e:	47                   	inc    %edi
    117f:	03 22                	add    (%edx),%esp
    1181:	69 6e 62 00 02 3f 21 	imul   $0x213f0200,0x62(%esi),%ebp
    1188:	00 00                	add    %al,(%eax)
    118a:	00 03                	add    %al,(%ebx)
    118c:	a2 06 00 00 20       	mov    %al,0x20000006
    1191:	5b                   	pop    %ebx
    1192:	04 00                	add    $0x0,%al
    1194:	00 02                	add    %al,(%edx)
    1196:	3f                   	aas    
    1197:	4c                   	dec    %esp
    1198:	00 00                	add    %al,(%eax)
    119a:	00 1d 72 65 74 00    	add    %bl,0x746572
    11a0:	02 41 21             	add    0x21(%ecx),%al
    11a3:	00 00                	add    %al,(%eax)
    11a5:	00 00                	add    %al,(%eax)
    11a7:	1c e7                	sbb    $0xe7,%al
    11a9:	04 00                	add    $0x0,%al
    11ab:	00 02                	add    %al,(%edx)
    11ad:	33 03                	xor    (%ebx),%eax
    11af:	c5 06                	lds    (%esi),%eax
    11b1:	00 00                	add    %al,(%eax)
    11b3:	20 5b 04             	and    %bl,0x4(%ebx)
    11b6:	00 00                	add    %al,(%eax)
    11b8:	02 33                	add    (%ebx),%dh
    11ba:	4c                   	dec    %esp
    11bb:	00 00                	add    %al,(%eax)
    11bd:	00 1f                	add    %bl,(%edi)
    11bf:	76 61                	jbe    1222 <_scga-0xb6dde>
    11c1:	6c                   	insb   (%dx),%es:(%edi)
    11c2:	00 02                	add    %al,(%edx)
    11c4:	33 21                	xor    (%ecx),%esp
    11c6:	00 00                	add    %al,(%eax)
    11c8:	00 00                	add    %al,(%eax)
    11ca:	23 60 04             	and    0x4(%eax),%esp
    11cd:	00 00                	add    %al,(%eax)
    11cf:	60                   	pusha  
    11d0:	04 00                	add    $0x0,%al
    11d2:	00 0d 34 23 db 04    	add    %cl,0x4db2334
    11d8:	00 00                	add    %al,(%eax)
    11da:	db 04 00             	fildl  (%eax,%eax,1)
    11dd:	00 0a                	add    %cl,(%edx)
    11df:	56                   	push   %esi
    11e0:	23 d5                	and    %ebp,%edx
    11e2:	03 00                	add    (%eax),%eax
    11e4:	00 d5                	add    %dl,%ch
    11e6:	03 00                	add    (%eax),%eax
    11e8:	00 0e                	add    %cl,(%esi)
    11ea:	3d 00 da 03 00       	cmp    $0x3da00,%eax
    11ef:	00 04 00             	add    %al,(%eax,%eax,1)
    11f2:	b1 05                	mov    $0x5,%cl
    11f4:	00 00                	add    %al,(%eax)
    11f6:	04 01                	add    $0x1,%al
    11f8:	b0 01                	mov    $0x1,%al
    11fa:	00 00                	add    %al,(%eax)
    11fc:	0c fe                	or     $0xfe,%al
    11fe:	04 00                	add    $0x0,%al
    1200:	00 4f 43             	add    %cl,0x43(%edi)
    1203:	10 00                	adc    %al,(%eax)
    1205:	1b 01                	sbb    (%ecx),%eax
    1207:	00 00                	add    %al,(%eax)
    1209:	9c                   	pushf  
    120a:	09 00                	or     %eax,(%eax)
    120c:	00 02                	add    %al,(%edx)
    120e:	01 08                	add    %ecx,(%eax)
    1210:	d1 00                	roll   (%eax)
    1212:	00 00                	add    %al,(%eax)
    1214:	03 80 03 00 00 02    	add    0x2000003(%eax),%eax
    121a:	38 21                	cmp    %ah,(%ecx)
    121c:	00 00                	add    %al,(%eax)
    121e:	00 03                	add    %al,(%ebx)
    1220:	a7                   	cmpsl  %es:(%edi),%ds:(%esi)
    1221:	00 00                	add    %al,(%eax)
    1223:	00 02                	add    %al,(%edx)
    1225:	39 3e                	cmp    %edi,(%esi)
    1227:	00 00                	add    %al,(%eax)
    1229:	00 02                	add    %al,(%edx)
    122b:	01 06                	add    %eax,(%esi)
    122d:	d3 00                	roll   %cl,(%eax)
    122f:	00 00                	add    %al,(%eax)
    1231:	02 02                	add    (%edx),%al
    1233:	05 0f 00 00 00       	add    $0xf,%eax
    1238:	03 4d 05             	add    0x5(%ebp),%ecx
    123b:	00 00                	add    %al,(%eax)
    123d:	02 4c 57 00          	add    0x0(%edi,%edx,2),%cl
    1241:	00 00                	add    %al,(%eax)
    1243:	02 02                	add    (%edx),%al
    1245:	07                   	pop    %es
    1246:	56                   	push   %esi
    1247:	01 00                	add    %eax,(%eax)
    1249:	00 03                	add    %al,(%ebx)
    124b:	25 01 00 00 02       	and    $0x2000001,%eax
    1250:	4d                   	dec    %ebp
    1251:	69 00 00 00 04 04    	imul   $0x4040000,(%eax),%eax
    1257:	05 69 6e 74 00       	add    $0x746e69,%eax
    125c:	03 4f 00             	add    0x0(%edi),%ecx
    125f:	00 00                	add    %al,(%eax)
    1261:	02 4e 7b             	add    0x7b(%esi),%cl
    1264:	00 00                	add    %al,(%eax)
    1266:	00 02                	add    %al,(%edx)
    1268:	04 07                	add    $0x7,%al
    126a:	ff 00                	incl   (%eax)
    126c:	00 00                	add    %al,(%eax)
    126e:	02 08                	add    (%eax),%cl
    1270:	07                   	pop    %es
    1271:	f5                   	cmc    
    1272:	00 00                	add    %al,(%eax)
    1274:	00 05 04 8f 00 00    	add    %al,0x8f04
    127a:	00 06                	add    %al,(%esi)
    127c:	03 1a                	add    (%edx),%ebx
    127e:	02 00                	add    (%eax),%al
    1280:	00 02                	add    %al,(%edx)
    1282:	6d                   	insl   (%dx),%es:(%edi)
    1283:	89 00                	mov    %eax,(%eax)
    1285:	00 00                	add    %al,(%eax)
    1287:	07                   	pop    %es
    1288:	90                   	nop
    1289:	00 00                	add    %al,(%eax)
    128b:	00 03                	add    %al,(%ebx)
    128d:	07                   	pop    %es
    128e:	00 00                	add    %al,(%eax)
    1290:	00 03                	add    %al,(%ebx)
    1292:	43                   	inc    %ebx
    1293:	70 00                	jo     1295 <_scga-0xb6d6b>
    1295:	00 00                	add    %al,(%eax)
    1297:	07                   	pop    %es
    1298:	a0 00 00 00 03       	mov    0x3000000,%al
    129d:	6a 00                	push   $0x0
    129f:	00 00                	add    %al,(%eax)
    12a1:	03 57 5e             	add    0x5e(%edi),%edx
    12a4:	00 00                	add    %al,(%eax)
    12a6:	00 02                	add    %al,(%edx)
    12a8:	04 05                	add    $0x5,%al
    12aa:	af                   	scas   %es:(%edi),%eax
    12ab:	00 00                	add    %al,(%eax)
    12ad:	00 08                	add    %cl,(%eax)
    12af:	9b                   	fwait
    12b0:	00 00                	add    %al,(%eax)
    12b2:	00 d2                	add    %dl,%dl
    12b4:	00 00                	add    %al,(%eax)
    12b6:	00 09                	add    %cl,(%ecx)
    12b8:	d7                   	xlat   %ds:(%ebx)
    12b9:	00 00                	add    %al,(%eax)
    12bb:	00 00                	add    %al,(%eax)
    12bd:	00 07                	add    %al,(%edi)
    12bf:	c2 00 00             	ret    $0x0
    12c2:	00 02                	add    %al,(%edx)
    12c4:	04 07                	add    $0x7,%al
    12c6:	24 00                	and    $0x0,%al
    12c8:	00 00                	add    %al,(%eax)
    12ca:	0a 94 00 00 00 04 56 	or     0x56040000(%eax,%eax,1),%dl
    12d1:	d2 00                	rolb   %cl,(%eax)
    12d3:	00 00                	add    %al,(%eax)
    12d5:	02 01                	add    (%ecx),%al
    12d7:	06                   	push   %es
    12d8:	da 00                	fiaddl (%eax)
    12da:	00 00                	add    %al,(%eax)
    12dc:	08 ab 00 00 00 fb    	or     %ch,-0x5000000(%ebx)
    12e2:	00 00                	add    %al,(%eax)
    12e4:	00 0b                	add    %cl,(%ebx)
    12e6:	00 07                	add    %al,(%edi)
    12e8:	f0 00 00             	lock add %al,(%eax)
    12eb:	00 0a                	add    %cl,(%edx)
    12ed:	59                   	pop    %ecx
    12ee:	00 00                	add    %al,(%eax)
    12f0:	00 05 65 fb 00 00    	add    %al,0xfb65
    12f6:	00 0a                	add    %cl,(%edx)
    12f8:	57                   	push   %edi
    12f9:	02 00                	add    (%eax),%al
    12fb:	00 05 66 fb 00 00    	add    %al,0xfb66
    1301:	00 08                	add    %cl,(%eax)
    1303:	a0 00 00 00 21       	mov    0x21000000,%al
    1308:	01 00                	add    %eax,(%eax)
    130a:	00 0b                	add    %cl,(%ebx)
    130c:	00 0a                	add    %cl,(%edx)
    130e:	40                   	inc    %eax
    130f:	02 00                	add    (%eax),%al
    1311:	00 05 70 16 01 00    	add    %al,0x11670
    1317:	00 08                	add    %cl,(%eax)
    1319:	b0 00                	mov    $0x0,%al
    131b:	00 00                	add    %al,(%eax)
    131d:	37                   	aaa    
    131e:	01 00                	add    %eax,(%eax)
    1320:	00 0b                	add    %cl,(%ebx)
    1322:	00 0a                	add    %cl,(%edx)
    1324:	6b 02 00             	imul   $0x0,(%edx),%eax
    1327:	00 05 71 2c 01 00    	add    %al,0x12c71
    132d:	00 0a                	add    %cl,(%edx)
    132f:	c2 00 00             	ret    $0x0
    1332:	00 05 72 a0 00 00    	add    %al,0xa072
    1338:	00 0a                	add    %cl,(%edx)
    133a:	19 00                	sbb    %eax,(%eax)
    133c:	00 00                	add    %al,(%eax)
    133e:	05 77 b0 00 00       	add    $0xb077,%eax
    1343:	00 0a                	add    %cl,(%edx)
    1345:	4b                   	dec    %ebx
    1346:	02 00                	add    (%eax),%al
    1348:	00 05 7a b0 00 00    	add    %al,0xb07a
    134e:	00 0a                	add    %cl,(%edx)
    1350:	0c 01                	or     $0x1,%al
    1352:	00 00                	add    %al,(%eax)
    1354:	06                   	push   %es
    1355:	43                   	inc    %ebx
    1356:	b0 00                	mov    $0x0,%al
    1358:	00 00                	add    %al,(%eax)
    135a:	0a 7f 00             	or     0x0(%edi),%bh
    135d:	00 00                	add    %al,(%eax)
    135f:	07                   	pop    %es
    1360:	3f                   	aas    
    1361:	a0 00 00 00 0a       	mov    0xa000000,%al
    1366:	39 01                	cmp    %eax,(%ecx)
    1368:	00 00                	add    %al,(%eax)
    136a:	08 8a a0 00 00 00    	or     %cl,0xa0(%edx)
    1370:	08 33                	or     %dh,(%ebx)
    1372:	00 00                	add    %al,(%eax)
    1374:	00 8f 01 00 00 0b    	add    %cl,0xb000001(%edi)
    137a:	00 0a                	add    %cl,(%edx)
    137c:	71 00                	jno    137e <_scga-0xb6c82>
    137e:	00 00                	add    %al,(%eax)
    1380:	09 97 84 01 00 00    	or     %edx,0x184(%edi)
    1386:	0c 77                	or     $0x77,%al
    1388:	05 00 00 08 01       	add    $0x1080000,%eax
    138d:	0e                   	push   %cs
    138e:	ef                   	out    %eax,(%dx)
    138f:	01 00                	add    %eax,(%eax)
    1391:	00 0d 37 05 00 00    	add    %cl,0x537
    1397:	01 10                	add    %edx,(%eax)
    1399:	4c                   	dec    %esp
    139a:	00 00                	add    %al,(%eax)
    139c:	00 00                	add    %al,(%eax)
    139e:	0d 6e 05 00 00       	or     $0x56e,%eax
    13a3:	01 11                	add    %edx,(%ecx)
    13a5:	4c                   	dec    %esp
    13a6:	00 00                	add    %al,(%eax)
    13a8:	00 02                	add    %al,(%edx)
    13aa:	0d f2 04 00 00       	or     $0x4f2,%eax
    13af:	01 12                	add    %edx,(%edx)
    13b1:	28 00                	sub    %al,(%eax)
    13b3:	00 00                	add    %al,(%eax)
    13b5:	04 0d                	add    $0xd,%al
    13b7:	41                   	inc    %ecx
    13b8:	05 00 00 01 13       	add    $0x13010000,%eax
    13bd:	28 00                	sub    %al,(%eax)
    13bf:	00 00                	add    %al,(%eax)
    13c1:	05 0d 2b 05 00       	add    $0x52b0d,%eax
    13c6:	00 01                	add    %al,(%ecx)
    13c8:	14 28                	adc    $0x28,%al
    13ca:	00 00                	add    %al,(%eax)
    13cc:	00 06                	add    %al,(%esi)
    13ce:	0d 57 05 00 00       	or     $0x557,%eax
    13d3:	01 15 28 00 00 00    	add    %edx,0x28
    13d9:	07                   	pop    %es
    13da:	00 0c 86             	add    %cl,(%esi,%eax,4)
    13dd:	05 00 00 06 01       	add    $0x1060000,%eax
    13e2:	1b 14 02             	sbb    (%edx,%eax,1),%edx
    13e5:	00 00                	add    %al,(%eax)
    13e7:	0d ec 04 00 00       	or     $0x4ec,%eax
    13ec:	01 1d 4c 00 00 00    	add    %ebx,0x4c
    13f2:	00 0d 81 05 00 00    	add    %cl,0x581
    13f8:	01 1e                	add    %ebx,(%esi)
    13fa:	70 00                	jo     13fc <_scga-0xb6c04>
    13fc:	00 00                	add    %al,(%eax)
    13fe:	02 00                	add    (%eax),%al
    1400:	08 9a 01 00 00 24    	or     %bl,0x24000001(%edx)
    1406:	02 00                	add    (%eax),%al
    1408:	00 09                	add    %cl,(%ecx)
    140a:	d7                   	xlat   %ds:(%ebx)
    140b:	00 00                	add    %al,(%eax)
    140d:	00 05 00 0e 67 64    	add    %al,0x64670e00
    1413:	74 00                	je     1415 <_scga-0xb6beb>
    1415:	01 22                	add    %esp,(%edx)
    1417:	14 02                	adc    $0x2,%al
    1419:	00 00                	add    %al,(%eax)
    141b:	05 03 60 20 20       	add    $0x20206003,%eax
    1420:	00 0e                	add    %cl,(%esi)
    1422:	5f                   	pop    %edi
    1423:	67 70 00             	addr16 jo 1426 <_scga-0xb6bda>
    1426:	01 23                	add    %esp,(%ebx)
    1428:	ef                   	out    %eax,(%dx)
    1429:	01 00                	add    %eax,(%eax)
    142b:	00 05 03 40 20 20    	add    %al,0x20204003
    1431:	00 0f                	add    %cl,(%edi)
    1433:	60                   	pusha  
    1434:	04 00                	add    $0x0,%al
    1436:	00 01                	add    %al,(%ecx)
    1438:	3b 4f 43             	cmp    0x43(%edi),%ecx
    143b:	10 00                	adc    %al,(%eax)
    143d:	1b 01                	sbb    (%ecx),%eax
    143f:	00 00                	add    %al,(%eax)
    1441:	01 9c 9d 03 00 00 10 	add    %ebx,0x10000003(%ebp,%ebx,4)
    1448:	9d                   	popf   
    1449:	03 00                	add    (%eax),%eax
    144b:	00 63 43             	add    %ah,0x43(%ebx)
    144e:	10 00                	adc    %al,(%eax)
    1450:	18 00                	sbb    %al,(%eax)
    1452:	00 00                	add    %al,(%eax)
    1454:	01 41 9c             	add    %eax,-0x64(%ecx)
    1457:	02 00                	add    (%eax),%al
    1459:	00 11                	add    %dl,(%ecx)
    145b:	d1 03                	roll   (%ebx)
    145d:	00 00                	add    %al,(%eax)
    145f:	3b 05 00 00 11 c6    	cmp    0xc6110000,%eax
    1465:	03 00                	add    (%eax),%eax
    1467:	00 3b                	add    %bh,(%ebx)
    1469:	05 00 00 11 bb       	add    $0xbb110000,%eax
    146e:	03 00                	add    (%eax),%eax
    1470:	00 3b                	add    %bh,(%ebx)
    1472:	05 00 00 11 b0       	add    $0xb0110000,%eax
    1477:	03 00                	add    (%eax),%eax
    1479:	00 3b                	add    %bh,(%ebx)
    147b:	05 00 00 11 a5       	add    $0xa5110000,%eax
    1480:	03 00                	add    (%eax),%eax
    1482:	00 3b                	add    %bh,(%ebx)
    1484:	05 00 00 00 12       	add    $0x12000000,%eax
    1489:	9d                   	popf   
    148a:	03 00                	add    (%eax),%eax
    148c:	00 93 43 10 00 2e    	add    %dl,0x2e001043(%ebx)
    1492:	00 00                	add    %al,(%eax)
    1494:	00 01                	add    %al,(%ecx)
    1496:	48                   	dec    %eax
    1497:	dd 02                	fldl   (%edx)
    1499:	00 00                	add    %al,(%eax)
    149b:	11 d1                	adc    %edx,%ecx
    149d:	03 00                	add    (%eax),%eax
    149f:	00 4f 05             	add    %cl,0x5(%edi)
    14a2:	00 00                	add    %al,(%eax)
    14a4:	11 c6                	adc    %eax,%esi
    14a6:	03 00                	add    (%eax),%eax
    14a8:	00 64 05 00          	add    %ah,0x0(%ebp,%eax,1)
    14ac:	00 11                	add    %dl,(%ecx)
    14ae:	bb 03 00 00 79       	mov    $0x79000003,%ebx
    14b3:	05 00 00 11 b0       	add    $0xb0110000,%eax
    14b8:	03 00                	add    (%eax),%eax
    14ba:	00 8e 05 00 00 11    	add    %cl,0x11000005(%esi)
    14c0:	a5                   	movsl  %ds:(%esi),%es:(%edi)
    14c1:	03 00                	add    (%eax),%eax
    14c3:	00 a2 05 00 00 00    	add    %ah,0x5(%edx)
    14c9:	12 9d 03 00 00 c1    	adc    -0x3efffffd(%ebp),%bl
    14cf:	43                   	inc    %ebx
    14d0:	10 00                	adc    %al,(%eax)
    14d2:	2e 00 00             	add    %al,%cs:(%eax)
    14d5:	00 01                	add    %al,(%ecx)
    14d7:	4e                   	dec    %esi
    14d8:	1e                   	push   %ds
    14d9:	03 00                	add    (%eax),%eax
    14db:	00 11                	add    %dl,(%ecx)
    14dd:	d1 03                	roll   (%ebx)
    14df:	00 00                	add    %al,(%eax)
    14e1:	b6 05                	mov    $0x5,%dh
    14e3:	00 00                	add    %al,(%eax)
    14e5:	11 c6                	adc    %eax,%esi
    14e7:	03 00                	add    (%eax),%eax
    14e9:	00 cb                	add    %cl,%bl
    14eb:	05 00 00 11 bb       	add    $0xbb110000,%eax
    14f0:	03 00                	add    (%eax),%eax
    14f2:	00 e0                	add    %ah,%al
    14f4:	05 00 00 11 b0       	add    $0xb0110000,%eax
    14f9:	03 00                	add    (%eax),%eax
    14fb:	00 f5                	add    %dh,%ch
    14fd:	05 00 00 11 a5       	add    $0xa5110000,%eax
    1502:	03 00                	add    (%eax),%eax
    1504:	00 09                	add    %cl,(%ecx)
    1506:	06                   	push   %es
    1507:	00 00                	add    %al,(%eax)
    1509:	00 12                	add    %dl,(%edx)
    150b:	9d                   	popf   
    150c:	03 00                	add    (%eax),%eax
    150e:	00 ef                	add    %ch,%bh
    1510:	43                   	inc    %ebx
    1511:	10 00                	adc    %al,(%eax)
    1513:	2e 00 00             	add    %al,%cs:(%eax)
    1516:	00 01                	add    %al,(%ecx)
    1518:	51                   	push   %ecx
    1519:	5f                   	pop    %edi
    151a:	03 00                	add    (%eax),%eax
    151c:	00 11                	add    %dl,(%ecx)
    151e:	d1 03                	roll   (%ebx)
    1520:	00 00                	add    %al,(%eax)
    1522:	1d 06 00 00 11       	sbb    $0x11000006,%eax
    1527:	c6 03 00             	movb   $0x0,(%ebx)
    152a:	00 32                	add    %dh,(%edx)
    152c:	06                   	push   %es
    152d:	00 00                	add    %al,(%eax)
    152f:	11 bb 03 00 00 47    	adc    %edi,0x47000003(%ebx)
    1535:	06                   	push   %es
    1536:	00 00                	add    %al,(%eax)
    1538:	11 b0 03 00 00 5c    	adc    %esi,0x5c000003(%eax)
    153e:	06                   	push   %es
    153f:	00 00                	add    %al,(%eax)
    1541:	11 a5 03 00 00 70    	adc    %esp,0x70000003(%ebp)
    1547:	06                   	push   %es
    1548:	00 00                	add    %al,(%eax)
    154a:	00 13                	add    %dl,(%ebx)
    154c:	9d                   	popf   
    154d:	03 00                	add    (%eax),%eax
    154f:	00 1d 44 10 00 2e    	add    %bl,0x2e001044
    1555:	00 00                	add    %al,(%eax)
    1557:	00 01                	add    %al,(%ecx)
    1559:	52                   	push   %edx
    155a:	11 d1                	adc    %edx,%ecx
    155c:	03 00                	add    (%eax),%eax
    155e:	00 84 06 00 00 11 c6 	add    %al,-0x39ef0000(%esi,%eax,1)
    1565:	03 00                	add    (%eax),%eax
    1567:	00 99 06 00 00 11    	add    %bl,0x11000006(%ecx)
    156d:	bb 03 00 00 ae       	mov    $0xae000003,%ebx
    1572:	06                   	push   %es
    1573:	00 00                	add    %al,(%eax)
    1575:	11 b0 03 00 00 c3    	adc    %esi,-0x3cfffffd(%eax)
    157b:	06                   	push   %es
    157c:	00 00                	add    %al,(%eax)
    157e:	11 a5 03 00 00 d7    	adc    %esp,-0x28fffffd(%ebp)
    1584:	06                   	push   %es
    1585:	00 00                	add    %al,(%eax)
    1587:	00 00                	add    %al,(%eax)
    1589:	14 61                	adc    $0x61,%al
    158b:	05 00 00 01 29       	add    $0x29010000,%eax
    1590:	01 15 6e 75 6d 00    	add    %edx,0x6d756e
    1596:	01 29                	add    %ebp,(%ecx)
    1598:	69 00 00 00 16 81    	imul   $0x81160000,(%eax),%eax
    159e:	05 00 00 01 29       	add    $0x29010000,%eax
    15a3:	70 00                	jo     15a5 <_scga-0xb6a5b>
    15a5:	00 00                	add    %al,(%eax)
    15a7:	16                   	push   %ss
    15a8:	ec                   	in     (%dx),%al
    15a9:	04 00                	add    $0x0,%al
    15ab:	00 01                	add    %al,(%ecx)
    15ad:	29 70 00             	sub    %esi,0x0(%eax)
    15b0:	00 00                	add    %al,(%eax)
    15b2:	16                   	push   %ss
    15b3:	41                   	inc    %ecx
    15b4:	05 00 00 01 29       	add    $0x29010000,%eax
    15b9:	28 00                	sub    %al,(%eax)
    15bb:	00 00                	add    %al,(%eax)
    15bd:	16                   	push   %ss
    15be:	48                   	dec    %eax
    15bf:	05 00 00 01 2a       	add    $0x2a010000,%eax
    15c4:	28 00                	sub    %al,(%eax)
    15c6:	00 00                	add    %al,(%eax)
    15c8:	00 00                	add    %al,(%eax)
    15ca:	5d                   	pop    %ebp
    15cb:	03 00                	add    (%eax),%eax
    15cd:	00 04 00             	add    %al,(%eax,%eax,1)
    15d0:	cf                   	iret   
    15d1:	06                   	push   %es
    15d2:	00 00                	add    %al,(%eax)
    15d4:	04 01                	add    $0x1,%al
    15d6:	b0 01                	mov    $0x1,%al
    15d8:	00 00                	add    %al,(%eax)
    15da:	0c 16                	or     $0x16,%al
    15dc:	06                   	push   %es
    15dd:	00 00                	add    %al,(%eax)
    15df:	6a 44                	push   $0x44
    15e1:	10 00                	adc    %al,(%eax)
    15e3:	59                   	pop    %ecx
    15e4:	00 00                	add    %al,(%eax)
    15e6:	00 45 0b             	add    %al,0xb(%ebp)
    15e9:	00 00                	add    %al,(%eax)
    15eb:	02 01                	add    (%ecx),%al
    15ed:	08 d1                	or     %dl,%cl
    15ef:	00 00                	add    %al,(%eax)
    15f1:	00 03                	add    %al,(%ebx)
    15f3:	80 03 00             	addb   $0x0,(%ebx)
    15f6:	00 02                	add    %al,(%edx)
    15f8:	38 21                	cmp    %ah,(%ecx)
    15fa:	00 00                	add    %al,(%eax)
    15fc:	00 03                	add    %al,(%ebx)
    15fe:	a7                   	cmpsl  %es:(%edi),%ds:(%esi)
    15ff:	00 00                	add    %al,(%eax)
    1601:	00 02                	add    %al,(%edx)
    1603:	39 3e                	cmp    %edi,(%esi)
    1605:	00 00                	add    %al,(%eax)
    1607:	00 02                	add    %al,(%edx)
    1609:	01 06                	add    %eax,(%esi)
    160b:	d3 00                	roll   %cl,(%eax)
    160d:	00 00                	add    %al,(%eax)
    160f:	02 02                	add    (%edx),%al
    1611:	05 0f 00 00 00       	add    $0xf,%eax
    1616:	02 02                	add    (%edx),%al
    1618:	07                   	pop    %es
    1619:	56                   	push   %esi
    161a:	01 00                	add    %eax,(%eax)
    161c:	00 03                	add    %al,(%ebx)
    161e:	25 01 00 00 02       	and    $0x2000001,%eax
    1623:	4d                   	dec    %ebp
    1624:	5e                   	pop    %esi
    1625:	00 00                	add    %al,(%eax)
    1627:	00 04 04             	add    %al,(%esp,%eax,1)
    162a:	05 69 6e 74 00       	add    $0x746e69,%eax
    162f:	03 4f 00             	add    0x0(%edi),%ecx
    1632:	00 00                	add    %al,(%eax)
    1634:	02 4e 70             	add    0x70(%esi),%cl
    1637:	00 00                	add    %al,(%eax)
    1639:	00 02                	add    %al,(%edx)
    163b:	04 07                	add    $0x7,%al
    163d:	ff 00                	incl   (%eax)
    163f:	00 00                	add    %al,(%eax)
    1641:	02 08                	add    (%eax),%cl
    1643:	07                   	pop    %es
    1644:	f5                   	cmc    
    1645:	00 00                	add    %al,(%eax)
    1647:	00 05 04 84 00 00    	add    %al,0x8404
    164d:	00 06                	add    %al,(%esi)
    164f:	03 1a                	add    (%edx),%ebx
    1651:	02 00                	add    (%eax),%al
    1653:	00 02                	add    %al,(%edx)
    1655:	6d                   	insl   (%dx),%es:(%edi)
    1656:	7e 00                	jle    1658 <_scga-0xb69a8>
    1658:	00 00                	add    %al,(%eax)
    165a:	07                   	pop    %es
    165b:	85 00                	test   %eax,(%eax)
    165d:	00 00                	add    %al,(%eax)
    165f:	03 07                	add    (%edi),%eax
    1661:	00 00                	add    %al,(%eax)
    1663:	00 03                	add    %al,(%ebx)
    1665:	43                   	inc    %ebx
    1666:	65 00 00             	add    %al,%gs:(%eax)
    1669:	00 07                	add    %al,(%edi)
    166b:	95                   	xchg   %eax,%ebp
    166c:	00 00                	add    %al,(%eax)
    166e:	00 03                	add    %al,(%ebx)
    1670:	6a 00                	push   $0x0
    1672:	00 00                	add    %al,(%eax)
    1674:	03 57 53             	add    0x53(%edi),%edx
    1677:	00 00                	add    %al,(%eax)
    1679:	00 02                	add    %al,(%edx)
    167b:	04 05                	add    $0x5,%al
    167d:	af                   	scas   %es:(%edi),%eax
    167e:	00 00                	add    %al,(%eax)
    1680:	00 08                	add    %cl,(%eax)
    1682:	90                   	nop
    1683:	00 00                	add    %al,(%eax)
    1685:	00 c7                	add    %al,%bh
    1687:	00 00                	add    %al,(%eax)
    1689:	00 09                	add    %cl,(%ecx)
    168b:	cc                   	int3   
    168c:	00 00                	add    %al,(%eax)
    168e:	00 00                	add    %al,(%eax)
    1690:	00 07                	add    %al,(%edi)
    1692:	b7 00                	mov    $0x0,%bh
    1694:	00 00                	add    %al,(%eax)
    1696:	02 04 07             	add    (%edi,%eax,1),%al
    1699:	24 00                	and    $0x0,%al
    169b:	00 00                	add    %al,(%eax)
    169d:	0a 94 00 00 00 04 56 	or     0x56040000(%eax,%eax,1),%dl
    16a4:	c7 00 00 00 02 01    	movl   $0x1020000,(%eax)
    16aa:	06                   	push   %es
    16ab:	da 00                	fiaddl (%eax)
    16ad:	00 00                	add    %al,(%eax)
    16af:	08 a0 00 00 00 f0    	or     %ah,-0x10000000(%eax)
    16b5:	00 00                	add    %al,(%eax)
    16b7:	00 0b                	add    %cl,(%ebx)
    16b9:	00 07                	add    %al,(%edi)
    16bb:	e5 00                	in     $0x0,%eax
    16bd:	00 00                	add    %al,(%eax)
    16bf:	0a 59 00             	or     0x0(%ecx),%bl
    16c2:	00 00                	add    %al,(%eax)
    16c4:	05 65 f0 00 00       	add    $0xf065,%eax
    16c9:	00 0a                	add    %cl,(%edx)
    16cb:	57                   	push   %edi
    16cc:	02 00                	add    (%eax),%al
    16ce:	00 05 66 f0 00 00    	add    %al,0xf066
    16d4:	00 08                	add    %cl,(%eax)
    16d6:	95                   	xchg   %eax,%ebp
    16d7:	00 00                	add    %al,(%eax)
    16d9:	00 16                	add    %dl,(%esi)
    16db:	01 00                	add    %eax,(%eax)
    16dd:	00 0b                	add    %cl,(%ebx)
    16df:	00 0a                	add    %cl,(%edx)
    16e1:	40                   	inc    %eax
    16e2:	02 00                	add    (%eax),%al
    16e4:	00 05 70 0b 01 00    	add    %al,0x10b70
    16ea:	00 08                	add    %cl,(%eax)
    16ec:	a5                   	movsl  %ds:(%esi),%es:(%edi)
    16ed:	00 00                	add    %al,(%eax)
    16ef:	00 2c 01             	add    %ch,(%ecx,%eax,1)
    16f2:	00 00                	add    %al,(%eax)
    16f4:	0b 00                	or     (%eax),%eax
    16f6:	0a 6b 02             	or     0x2(%ebx),%ch
    16f9:	00 00                	add    %al,(%eax)
    16fb:	05 71 21 01 00       	add    $0x12171,%eax
    1700:	00 0a                	add    %cl,(%edx)
    1702:	c2 00 00             	ret    $0x0
    1705:	00 05 72 95 00 00    	add    %al,0x9572
    170b:	00 0a                	add    %cl,(%edx)
    170d:	19 00                	sbb    %eax,(%eax)
    170f:	00 00                	add    %al,(%eax)
    1711:	05 77 a5 00 00       	add    $0xa577,%eax
    1716:	00 0a                	add    %cl,(%edx)
    1718:	4b                   	dec    %ebx
    1719:	02 00                	add    (%eax),%al
    171b:	00 05 7a a5 00 00    	add    %al,0xa57a
    1721:	00 0a                	add    %cl,(%edx)
    1723:	0c 01                	or     $0x1,%al
    1725:	00 00                	add    %al,(%eax)
    1727:	06                   	push   %es
    1728:	43                   	inc    %ebx
    1729:	a5                   	movsl  %ds:(%esi),%es:(%edi)
    172a:	00 00                	add    %al,(%eax)
    172c:	00 0a                	add    %cl,(%edx)
    172e:	7f 00                	jg     1730 <_scga-0xb68d0>
    1730:	00 00                	add    %al,(%eax)
    1732:	07                   	pop    %es
    1733:	3f                   	aas    
    1734:	95                   	xchg   %eax,%ebp
    1735:	00 00                	add    %al,(%eax)
    1737:	00 0a                	add    %cl,(%edx)
    1739:	39 01                	cmp    %eax,(%ecx)
    173b:	00 00                	add    %al,(%eax)
    173d:	08 8a 95 00 00 00    	or     %cl,0x95(%edx)
    1743:	08 33                	or     %dh,(%ebx)
    1745:	00 00                	add    %al,(%eax)
    1747:	00 84 01 00 00 0b 00 	add    %al,0xb0000(%ecx,%eax,1)
    174e:	0a 71 00             	or     0x0(%ecx),%dh
    1751:	00 00                	add    %al,(%eax)
    1753:	09 97 79 01 00 00    	or     %edx,0x179(%edi)
    1759:	0c 5a                	or     $0x5a,%al
    175b:	06                   	push   %es
    175c:	00 00                	add    %al,(%eax)
    175e:	04 70                	add    $0x70,%al
    1760:	00 00                	add    %al,(%eax)
    1762:	00 0a                	add    %cl,(%edx)
    1764:	34 c4                	xor    $0xc4,%al
    1766:	01 00                	add    %eax,(%eax)
    1768:	00 0d 8e 05 00 00    	add    %cl,0x58e
    176e:	00 0d e8 05 00 00    	add    %cl,0x5e8
    1774:	01 0e                	add    %ecx,(%esi)
    1776:	53                   	push   %ebx
    1777:	4d                   	dec    %ebp
    1778:	49                   	dec    %ecx
    1779:	00 02                	add    %al,(%edx)
    177b:	0e                   	push   %cs
    177c:	4e                   	dec    %esi
    177d:	4d                   	dec    %ebp
    177e:	49                   	dec    %ecx
    177f:	00 04 0d 4a 00 00 00 	add    %al,0x4a(,%ecx,1)
    1786:	05 0d 0f 06 00       	add    $0x60f0d,%eax
    178b:	00 07                	add    %al,(%edi)
    178d:	00 0c d3             	add    %cl,(%ebx,%edx,8)
    1790:	05 00 00 04 70       	add    $0x70040000,%eax
    1795:	00 00                	add    %al,(%eax)
    1797:	00 01                	add    %al,(%ecx)
    1799:	04 ed                	add    $0xed,%al
    179b:	01 00                	add    %eax,(%eax)
    179d:	00 0f                	add    %cl,(%edi)
    179f:	94                   	xchg   %eax,%esp
    17a0:	05 00 00 00 00       	add    $0x0,%eax
    17a5:	c0 fe 0f             	sar    $0xf,%dh
    17a8:	09 06                	or     %eax,(%esi)
    17aa:	00 00                	add    %al,(%eax)
    17ac:	10 00                	adc    %al,(%eax)
    17ae:	c0 fe 0d             	sar    $0xd,%dh
    17b1:	df 05 00 00 10 00    	fild   0x100000
    17b7:	10 a4 05 00 00 01 1f 	adc    %ah,0x1f010000(%ebp,%eax,1)
    17be:	01 31                	add    %esi,(%ecx)
    17c0:	02 00                	add    (%eax),%al
    17c2:	00 11                	add    %dl,(%ecx)
    17c4:	70 69                	jo     182f <_scga-0xb67d1>
    17c6:	6e                   	outsb  %ds:(%esi),(%dx)
    17c7:	00 01                	add    %al,(%ecx)
    17c9:	1f                   	pop    %ds
    17ca:	28 00                	sub    %al,(%eax)
    17cc:	00 00                	add    %al,(%eax)
    17ce:	12 9d 05 00 00 01    	adc    0x1000005(%ebp),%bl
    17d4:	1f                   	pop    %ds
    17d5:	28 00                	sub    %al,(%eax)
    17d7:	00 00                	add    %al,(%eax)
    17d9:	12 64 06 00          	adc    0x0(%esi,%eax,1),%ah
    17dd:	00 01                	add    %al,(%ecx)
    17df:	1f                   	pop    %ds
    17e0:	8f 01                	popl   (%ecx)
    17e2:	00 00                	add    %al,(%eax)
    17e4:	12 c1                	adc    %cl,%al
    17e6:	05 00 00 01 1f       	add    $0x1f010000,%eax
    17eb:	28 00                	sub    %al,(%eax)
    17ed:	00 00                	add    %al,(%eax)
    17ef:	13 cc                	adc    %esp,%ecx
    17f1:	05 00 00 01 20       	add    $0x20010000,%eax
    17f6:	28 00                	sub    %al,(%eax)
    17f8:	00 00                	add    %al,(%eax)
    17fa:	00 14 46             	add    %dl,(%esi,%eax,2)
    17fd:	06                   	push   %es
    17fe:	00 00                	add    %al,(%eax)
    1800:	01 1a                	add    %ebx,(%edx)
    1802:	6f                   	outsl  %ds:(%esi),(%dx)
    1803:	44                   	inc    %esp
    1804:	10 00                	adc    %al,(%eax)
    1806:	21 00                	and    %eax,(%eax)
    1808:	00 00                	add    %al,(%eax)
    180a:	01 9c ce 02 00 00 15 	add    %ebx,0x15000002(%esi,%ecx,8)
    1811:	70 69                	jo     187c <_scga-0xb6784>
    1813:	6e                   	outsb  %ds:(%esi),(%dx)
    1814:	00 01                	add    %al,(%ecx)
    1816:	1a 28                	sbb    (%eax),%ch
    1818:	00 00                	add    %al,(%eax)
    181a:	00 eb                	add    %ch,%bl
    181c:	06                   	push   %es
    181d:	00 00                	add    %al,(%eax)
    181f:	16                   	push   %ss
    1820:	9d                   	popf   
    1821:	05 00 00 01 1a       	add    $0x1a010000,%eax
    1826:	28 00                	sub    %al,(%eax)
    1828:	00 00                	add    %al,(%eax)
    182a:	ff 06                	incl   (%esi)
    182c:	00 00                	add    %al,(%eax)
    182e:	17                   	pop    %ss
    182f:	ed                   	in     (%dx),%eax
    1830:	01 00                	add    %eax,(%eax)
    1832:	00 76 44             	add    %dh,0x44(%esi)
    1835:	10 00                	adc    %al,(%eax)
    1837:	18 00                	sbb    %al,(%eax)
    1839:	00 00                	add    %al,(%eax)
    183b:	01 1b                	add    %ebx,(%ebx)
    183d:	18 1a                	sbb    %bl,(%edx)
    183f:	02 00                	add    (%eax),%al
    1841:	00 1e                	add    %bl,(%esi)
    1843:	07                   	pop    %es
    1844:	00 00                	add    %al,(%eax)
    1846:	18 0f                	sbb    %cl,(%edi)
    1848:	02 00                	add    (%eax),%al
    184a:	00 1e                	add    %bl,(%esi)
    184c:	07                   	pop    %es
    184d:	00 00                	add    %al,(%eax)
    184f:	18 04 02             	sbb    %al,(%edx,%eax,1)
    1852:	00 00                	add    %al,(%eax)
    1854:	32 07                	xor    (%edi),%al
    1856:	00 00                	add    %al,(%eax)
    1858:	18 f9                	sbb    %bh,%cl
    185a:	01 00                	add    %eax,(%eax)
    185c:	00 51 07             	add    %dl,0x7(%ecx)
    185f:	00 00                	add    %al,(%eax)
    1861:	19 76 44             	sbb    %esi,0x44(%esi)
    1864:	10 00                	adc    %al,(%eax)
    1866:	18 00                	sbb    %al,(%eax)
    1868:	00 00                	add    %al,(%eax)
    186a:	1a 25 02 00 00 65    	sbb    0x65000002,%ah
    1870:	07                   	pop    %es
    1871:	00 00                	add    %al,(%eax)
    1873:	17                   	pop    %ss
    1874:	df 02                	fild   (%edx)
    1876:	00 00                	add    %al,(%eax)
    1878:	7e 44                	jle    18be <_scga-0xb6742>
    187a:	10 00                	adc    %al,(%eax)
    187c:	10 00                	adc    %al,(%eax)
    187e:	00 00                	add    %al,(%eax)
    1880:	01 22                	add    %esp,(%edx)
    1882:	18 f6                	sbb    %dh,%dh
    1884:	02 00                	add    (%eax),%al
    1886:	00 80 07 00 00 18    	add    %al,0x18000007(%eax)
    188c:	eb 02                	jmp    1890 <_scga-0xb6770>
    188e:	00 00                	add    %al,(%eax)
    1890:	93                   	xchg   %eax,%ebx
    1891:	07                   	pop    %es
    1892:	00 00                	add    %al,(%eax)
    1894:	00 00                	add    %al,(%eax)
    1896:	00 00                	add    %al,(%eax)
    1898:	1b d5                	sbb    %ebp,%edx
    189a:	03 00                	add    (%eax),%eax
    189c:	00 01                	add    %al,(%ecx)
    189e:	16                   	push   %ss
    189f:	6a 44                	push   $0x44
    18a1:	10 00                	adc    %al,(%eax)
    18a3:	05 00 00 00 01       	add    $0x1000000,%eax
    18a8:	9c                   	pushf  
    18a9:	1c f8                	sbb    $0xf8,%al
    18ab:	05 00 00 01 0b       	add    $0xb010000,%eax
    18b0:	03 02                	add    (%edx),%eax
    18b2:	03 00                	add    (%eax),%eax
    18b4:	00 11                	add    %dl,(%ecx)
    18b6:	72 65                	jb     191d <_scga-0xb66e3>
    18b8:	67 00 01             	add    %al,(%bx,%di)
    18bb:	0b 28                	or     (%eax),%ebp
    18bd:	00 00                	add    %al,(%eax)
    18bf:	00 11                	add    %dl,(%ecx)
    18c1:	76 61                	jbe    1924 <_scga-0xb66dc>
    18c3:	6c                   	insb   (%dx),%es:(%edi)
    18c4:	00 01                	add    %al,(%ecx)
    18c6:	0b 65 00             	or     0x0(%ebp),%esp
    18c9:	00 00                	add    %al,(%eax)
    18cb:	00 1d ed 01 00 00    	add    %bl,0x1ed
    18d1:	90                   	nop
    18d2:	44                   	inc    %esp
    18d3:	10 00                	adc    %al,(%eax)
    18d5:	33 00                	xor    (%eax),%eax
    18d7:	00 00                	add    %al,(%eax)
    18d9:	01 9c 18 f9 01 00 00 	add    %ebx,0x1f9(%eax,%ebx,1)
    18e0:	ae                   	scas   %es:(%edi),%al
    18e1:	07                   	pop    %es
    18e2:	00 00                	add    %al,(%eax)
    18e4:	18 04 02             	sbb    %al,(%edx,%eax,1)
    18e7:	00 00                	add    %al,(%eax)
    18e9:	c2 07 00             	ret    $0x7
    18ec:	00 1e                	add    %bl,(%esi)
    18ee:	0f 02 00             	lar    (%eax),%eax
    18f1:	00 02                	add    %al,(%edx)
    18f3:	91                   	xchg   %eax,%ecx
    18f4:	08 18                	or     %bl,(%eax)
    18f6:	1a 02                	sbb    (%edx),%al
    18f8:	00 00                	add    %al,(%eax)
    18fa:	d6                   	(bad)  
    18fb:	07                   	pop    %es
    18fc:	00 00                	add    %al,(%eax)
    18fe:	1a 25 02 00 00 ea    	sbb    0xea000002,%ah
    1904:	07                   	pop    %es
    1905:	00 00                	add    %al,(%eax)
    1907:	17                   	pop    %ss
    1908:	df 02                	fild   (%edx)
    190a:	00 00                	add    %al,(%eax)
    190c:	b0 44                	mov    $0x44,%al
    190e:	10 00                	adc    %al,(%eax)
    1910:	11 00                	adc    %eax,(%eax)
    1912:	00 00                	add    %al,(%eax)
    1914:	01 22                	add    %esp,(%edx)
    1916:	18 f6                	sbb    %dh,%dh
    1918:	02 00                	add    (%eax),%al
    191a:	00 05 08 00 00 18    	add    %al,0x18000008
    1920:	eb 02                	jmp    1924 <_scga-0xb66dc>
    1922:	00 00                	add    %al,(%eax)
    1924:	18 08                	sbb    %cl,(%eax)
    1926:	00 00                	add    %al,(%eax)
    1928:	00 00                	add    %al,(%eax)
    192a:	00 f3                	add    %dh,%bl
    192c:	03 00                	add    (%eax),%eax
    192e:	00 04 00             	add    %al,(%eax,%eax,1)
    1931:	4d                   	dec    %ebp
    1932:	08 00                	or     %al,(%eax)
    1934:	00 04 01             	add    %al,(%ecx,%eax,1)
    1937:	b0 01                	mov    $0x1,%al
    1939:	00 00                	add    %al,(%eax)
    193b:	0c 8c                	or     $0x8c,%al
    193d:	06                   	push   %es
    193e:	00 00                	add    %al,(%eax)
    1940:	c3                   	ret    
    1941:	44                   	inc    %esp
    1942:	10 00                	adc    %al,(%eax)
    1944:	97                   	xchg   %eax,%edi
    1945:	00 00                	add    %al,(%eax)
    1947:	00 06                	add    %al,(%esi)
    1949:	0d 00 00 02 01       	or     $0x1020000,%eax
    194e:	08 d1                	or     %dl,%cl
    1950:	00 00                	add    %al,(%eax)
    1952:	00 03                	add    %al,(%ebx)
    1954:	80 03 00             	addb   $0x0,(%ebx)
    1957:	00 03                	add    %al,(%ebx)
    1959:	38 21                	cmp    %ah,(%ecx)
    195b:	00 00                	add    %al,(%eax)
    195d:	00 03                	add    %al,(%ebx)
    195f:	a7                   	cmpsl  %es:(%edi),%ds:(%esi)
    1960:	00 00                	add    %al,(%eax)
    1962:	00 03                	add    %al,(%ebx)
    1964:	39 3e                	cmp    %edi,(%esi)
    1966:	00 00                	add    %al,(%eax)
    1968:	00 02                	add    %al,(%edx)
    196a:	01 06                	add    %eax,(%esi)
    196c:	d3 00                	roll   %cl,(%eax)
    196e:	00 00                	add    %al,(%eax)
    1970:	02 02                	add    (%edx),%al
    1972:	05 0f 00 00 00       	add    $0xf,%eax
    1977:	03 4d 05             	add    0x5(%ebp),%ecx
    197a:	00 00                	add    %al,(%eax)
    197c:	03 4c 57 00          	add    0x0(%edi,%edx,2),%ecx
    1980:	00 00                	add    %al,(%eax)
    1982:	02 02                	add    (%edx),%al
    1984:	07                   	pop    %es
    1985:	56                   	push   %esi
    1986:	01 00                	add    %eax,(%eax)
    1988:	00 03                	add    %al,(%ebx)
    198a:	25 01 00 00 03       	and    $0x3000001,%eax
    198f:	4d                   	dec    %ebp
    1990:	69 00 00 00 04 04    	imul   $0x4040000,(%eax),%eax
    1996:	05 69 6e 74 00       	add    $0x746e69,%eax
    199b:	03 4f 00             	add    0x0(%edi),%ecx
    199e:	00 00                	add    %al,(%eax)
    19a0:	03 4e 7b             	add    0x7b(%esi),%ecx
    19a3:	00 00                	add    %al,(%eax)
    19a5:	00 02                	add    %al,(%edx)
    19a7:	04 07                	add    $0x7,%al
    19a9:	ff 00                	incl   (%eax)
    19ab:	00 00                	add    %al,(%eax)
    19ad:	02 08                	add    (%eax),%cl
    19af:	07                   	pop    %es
    19b0:	f5                   	cmc    
    19b1:	00 00                	add    %al,(%eax)
    19b3:	00 05 04 8f 00 00    	add    %al,0x8f04
    19b9:	00 06                	add    %al,(%esi)
    19bb:	03 1a                	add    (%edx),%ebx
    19bd:	02 00                	add    (%eax),%al
    19bf:	00 03                	add    %al,(%ebx)
    19c1:	6d                   	insl   (%dx),%es:(%edi)
    19c2:	89 00                	mov    %eax,(%eax)
    19c4:	00 00                	add    %al,(%eax)
    19c6:	07                   	pop    %es
    19c7:	90                   	nop
    19c8:	00 00                	add    %al,(%eax)
    19ca:	00 03                	add    %al,(%ebx)
    19cc:	07                   	pop    %es
    19cd:	00 00                	add    %al,(%eax)
    19cf:	00 04 43             	add    %al,(%ebx,%eax,2)
    19d2:	70 00                	jo     19d4 <_scga-0xb662c>
    19d4:	00 00                	add    %al,(%eax)
    19d6:	07                   	pop    %es
    19d7:	a0 00 00 00 03       	mov    0x3000000,%al
    19dc:	6a 00                	push   $0x0
    19de:	00 00                	add    %al,(%eax)
    19e0:	04 57                	add    $0x57,%al
    19e2:	5e                   	pop    %esi
    19e3:	00 00                	add    %al,(%eax)
    19e5:	00 02                	add    %al,(%edx)
    19e7:	04 05                	add    $0x5,%al
    19e9:	af                   	scas   %es:(%edi),%eax
    19ea:	00 00                	add    %al,(%eax)
    19ec:	00 08                	add    %cl,(%eax)
    19ee:	9b                   	fwait
    19ef:	00 00                	add    %al,(%eax)
    19f1:	00 d2                	add    %dl,%dl
    19f3:	00 00                	add    %al,(%eax)
    19f5:	00 09                	add    %cl,(%ecx)
    19f7:	d7                   	xlat   %ds:(%ebx)
    19f8:	00 00                	add    %al,(%eax)
    19fa:	00 00                	add    %al,(%eax)
    19fc:	00 07                	add    %al,(%edi)
    19fe:	c2 00 00             	ret    $0x0
    1a01:	00 02                	add    %al,(%edx)
    1a03:	04 07                	add    $0x7,%al
    1a05:	24 00                	and    $0x0,%al
    1a07:	00 00                	add    %al,(%eax)
    1a09:	0a 94 00 00 00 05 56 	or     0x56050000(%eax,%eax,1),%dl
    1a10:	d2 00                	rolb   %cl,(%eax)
    1a12:	00 00                	add    %al,(%eax)
    1a14:	02 01                	add    (%ecx),%al
    1a16:	06                   	push   %es
    1a17:	da 00                	fiaddl (%eax)
    1a19:	00 00                	add    %al,(%eax)
    1a1b:	08 ab 00 00 00 fb    	or     %ch,-0x5000000(%ebx)
    1a21:	00 00                	add    %al,(%eax)
    1a23:	00 0b                	add    %cl,(%ebx)
    1a25:	00 07                	add    %al,(%edi)
    1a27:	f0 00 00             	lock add %al,(%eax)
    1a2a:	00 0a                	add    %cl,(%edx)
    1a2c:	59                   	pop    %ecx
    1a2d:	00 00                	add    %al,(%eax)
    1a2f:	00 06                	add    %al,(%esi)
    1a31:	65 fb                	gs sti 
    1a33:	00 00                	add    %al,(%eax)
    1a35:	00 0a                	add    %cl,(%edx)
    1a37:	57                   	push   %edi
    1a38:	02 00                	add    (%eax),%al
    1a3a:	00 06                	add    %al,(%esi)
    1a3c:	66 fb                	data16 sti 
    1a3e:	00 00                	add    %al,(%eax)
    1a40:	00 08                	add    %cl,(%eax)
    1a42:	a0 00 00 00 21       	mov    0x21000000,%al
    1a47:	01 00                	add    %eax,(%eax)
    1a49:	00 0b                	add    %cl,(%ebx)
    1a4b:	00 0a                	add    %cl,(%edx)
    1a4d:	40                   	inc    %eax
    1a4e:	02 00                	add    (%eax),%al
    1a50:	00 06                	add    %al,(%esi)
    1a52:	70 16                	jo     1a6a <_scga-0xb6596>
    1a54:	01 00                	add    %eax,(%eax)
    1a56:	00 08                	add    %cl,(%eax)
    1a58:	b0 00                	mov    $0x0,%al
    1a5a:	00 00                	add    %al,(%eax)
    1a5c:	37                   	aaa    
    1a5d:	01 00                	add    %eax,(%eax)
    1a5f:	00 0b                	add    %cl,(%ebx)
    1a61:	00 0a                	add    %cl,(%edx)
    1a63:	6b 02 00             	imul   $0x0,(%edx),%eax
    1a66:	00 06                	add    %al,(%esi)
    1a68:	71 2c                	jno    1a96 <_scga-0xb656a>
    1a6a:	01 00                	add    %eax,(%eax)
    1a6c:	00 0a                	add    %cl,(%edx)
    1a6e:	c2 00 00             	ret    $0x0
    1a71:	00 06                	add    %al,(%esi)
    1a73:	72 a0                	jb     1a15 <_scga-0xb65eb>
    1a75:	00 00                	add    %al,(%eax)
    1a77:	00 0a                	add    %cl,(%edx)
    1a79:	19 00                	sbb    %eax,(%eax)
    1a7b:	00 00                	add    %al,(%eax)
    1a7d:	06                   	push   %es
    1a7e:	77 b0                	ja     1a30 <_scga-0xb65d0>
    1a80:	00 00                	add    %al,(%eax)
    1a82:	00 0a                	add    %cl,(%edx)
    1a84:	4b                   	dec    %ebx
    1a85:	02 00                	add    (%eax),%al
    1a87:	00 06                	add    %al,(%esi)
    1a89:	7a b0                	jp     1a3b <_scga-0xb65c5>
    1a8b:	00 00                	add    %al,(%eax)
    1a8d:	00 0a                	add    %cl,(%edx)
    1a8f:	0c 01                	or     $0x1,%al
    1a91:	00 00                	add    %al,(%eax)
    1a93:	07                   	pop    %es
    1a94:	43                   	inc    %ebx
    1a95:	b0 00                	mov    $0x0,%al
    1a97:	00 00                	add    %al,(%eax)
    1a99:	0a 7f 00             	or     0x0(%edi),%bh
    1a9c:	00 00                	add    %al,(%eax)
    1a9e:	08 3f                	or     %bh,(%edi)
    1aa0:	a0 00 00 00 0a       	mov    0xa000000,%al
    1aa5:	39 01                	cmp    %eax,(%ecx)
    1aa7:	00 00                	add    %al,(%eax)
    1aa9:	09 8a a0 00 00 00    	or     %ecx,0xa0(%edx)
    1aaf:	08 33                	or     %dh,(%ebx)
    1ab1:	00 00                	add    %al,(%eax)
    1ab3:	00 8f 01 00 00 0b    	add    %cl,0xb000001(%edi)
    1ab9:	00 0a                	add    %cl,(%edx)
    1abb:	71 00                	jno    1abd <_scga-0xb6543>
    1abd:	00 00                	add    %al,(%eax)
    1abf:	0a 97 84 01 00 00    	or     0x184(%edi),%dl
    1ac5:	0c 72                	or     $0x72,%al
    1ac7:	06                   	push   %es
    1ac8:	00 00                	add    %al,(%eax)
    1aca:	01 4c 18 45          	add    %ecx,0x45(%eax,%ebx,1)
    1ace:	10 00                	adc    %al,(%eax)
    1ad0:	42                   	inc    %edx
    1ad1:	00 00                	add    %al,(%eax)
    1ad3:	00 01                	add    %al,(%ecx)
    1ad5:	9c                   	pushf  
    1ad6:	e9 01 00 00 0d       	jmp    d001adc <gdt+0xcdffa7c>
    1adb:	5b                   	pop    %ebx
    1adc:	04 00                	add    $0x0,%al
    1ade:	00 01                	add    %al,(%ecx)
    1ae0:	4c                   	dec    %esp
    1ae1:	4c                   	dec    %esp
    1ae2:	00 00                	add    %al,(%eax)
    1ae4:	00 33                	add    %dh,(%ebx)
    1ae6:	08 00                	or     %al,(%eax)
    1ae8:	00 0d ba 06 00 00    	add    %cl,0x6ba
    1aee:	01 4c e9 01          	add    %ecx,0x1(%ecx,%ebp,8)
    1af2:	00 00                	add    %al,(%eax)
    1af4:	47                   	inc    %edi
    1af5:	08 00                	or     %al,(%eax)
    1af7:	00 0e                	add    %cl,(%esi)
    1af9:	36 45                	ss inc %ebp
    1afb:	10 00                	adc    %al,(%eax)
    1afd:	ef                   	out    %eax,(%dx)
    1afe:	01 00                	add    %eax,(%eax)
    1b00:	00 0e                	add    %cl,(%esi)
    1b02:	45                   	inc    %ebp
    1b03:	45                   	inc    %ebp
    1b04:	10 00                	adc    %al,(%eax)
    1b06:	ef                   	out    %eax,(%dx)
    1b07:	01 00                	add    %eax,(%eax)
    1b09:	00 0f                	add    %cl,(%edi)
    1b0b:	5a                   	pop    %edx
    1b0c:	45                   	inc    %ebp
    1b0d:	10 00                	adc    %al,(%eax)
    1b0f:	ef                   	out    %eax,(%dx)
    1b10:	01 00                	add    %eax,(%eax)
    1b12:	00 00                	add    %al,(%eax)
    1b14:	05 04 e9 00 00       	add    $0xe904,%eax
    1b19:	00 10                	add    %dl,(%eax)
    1b1b:	d3 02                	roll   %cl,(%edx)
    1b1d:	00 00                	add    %al,(%eax)
    1b1f:	01 40 33             	add    %eax,0x33(%eax)
    1b22:	00 00                	add    %al,(%eax)
    1b24:	00 fc                	add    %bh,%ah
    1b26:	44                   	inc    %esp
    1b27:	10 00                	adc    %al,(%eax)
    1b29:	1c 00                	sbb    $0x0,%al
    1b2b:	00 00                	add    %al,(%eax)
    1b2d:	01 9c 82 02 00 00 11 	add    %ebx,0x11000002(%edx,%eax,4)
    1b34:	5b                   	pop    %ebx
    1b35:	04 00                	add    $0x0,%al
    1b37:	00 01                	add    %al,(%ecx)
    1b39:	40                   	inc    %eax
    1b3a:	4c                   	dec    %esp
    1b3b:	00 00                	add    %al,(%eax)
    1b3d:	00 02                	add    %al,(%edx)
    1b3f:	91                   	xchg   %eax,%ecx
    1b40:	00 11                	add    %dl,(%ecx)
    1b42:	ba 06 00 00 01       	mov    $0x1000006,%edx
    1b47:	40                   	inc    %eax
    1b48:	28 00                	sub    %al,(%eax)
    1b4a:	00 00                	add    %al,(%eax)
    1b4c:	02 91 04 12 bf 06    	add    0x6bf1204(%ecx),%dl
    1b52:	00 00                	add    %al,(%eax)
    1b54:	01 42 21             	add    %eax,0x21(%edx)
    1b57:	00 00                	add    %al,(%eax)
    1b59:	00 66 08             	add    %ah,0x8(%esi)
    1b5c:	00 00                	add    %al,(%eax)
    1b5e:	13 b0 03 00 00 09    	adc    0x9000003(%eax),%esi
    1b64:	45                   	inc    %ebp
    1b65:	10 00                	adc    %al,(%eax)
    1b67:	01 00                	add    %eax,(%eax)
    1b69:	00 00                	add    %al,(%eax)
    1b6b:	01 44 5f 02          	add    %eax,0x2(%edi,%ebx,2)
    1b6f:	00 00                	add    %al,(%eax)
    1b71:	14 c0                	adc    $0xc0,%al
    1b73:	03 00                	add    (%eax),%eax
    1b75:	00 7e 08             	add    %bh,0x8(%esi)
    1b78:	00 00                	add    %al,(%eax)
    1b7a:	15 09 45 10 00       	adc    $0x104509,%eax
    1b7f:	01 00                	add    %eax,(%eax)
    1b81:	00 00                	add    %al,(%eax)
    1b83:	16                   	push   %ss
    1b84:	cb                   	lret   
    1b85:	03 00                	add    (%eax),%eax
    1b87:	00 00                	add    %al,(%eax)
    1b89:	00 17                	add    %dl,(%edi)
    1b8b:	d7                   	xlat   %ds:(%ebx)
    1b8c:	03 00                	add    (%eax),%eax
    1b8e:	00 0e                	add    %cl,(%esi)
    1b90:	45                   	inc    %ebp
    1b91:	10 00                	adc    %al,(%eax)
    1b93:	05 00 00 00 01       	add    $0x1000000,%eax
    1b98:	47                   	inc    %edi
    1b99:	14 ea                	adc    $0xea,%al
    1b9b:	03 00                	add    (%eax),%eax
    1b9d:	00 93 08 00 00 14    	add    %dl,0x14000008(%ebx)
    1ba3:	df 03                	fild   (%ebx)
    1ba5:	00 00                	add    %al,(%eax)
    1ba7:	a6                   	cmpsb  %es:(%edi),%ds:(%esi)
    1ba8:	08 00                	or     %al,(%eax)
    1baa:	00 00                	add    %al,(%eax)
    1bac:	00 10                	add    %dl,(%eax)
    1bae:	7f 06                	jg     1bb6 <_scga-0xb644a>
    1bb0:	00 00                	add    %al,(%eax)
    1bb2:	01 33                	add    %esi,(%ebx)
    1bb4:	33 00                	xor    (%eax),%eax
    1bb6:	00 00                	add    %al,(%eax)
    1bb8:	c3                   	ret    
    1bb9:	44                   	inc    %esp
    1bba:	10 00                	adc    %al,(%eax)
    1bbc:	39 00                	cmp    %eax,(%eax)
    1bbe:	00 00                	add    %al,(%eax)
    1bc0:	01 9c b0 03 00 00 11 	add    %ebx,0x11000003(%eax,%esi,4)
    1bc7:	5b                   	pop    %ebx
    1bc8:	04 00                	add    $0x0,%al
    1bca:	00 01                	add    %al,(%ecx)
    1bcc:	33 4c 00 00          	xor    0x0(%eax,%eax,1),%ecx
    1bd0:	00 02                	add    %al,(%edx)
    1bd2:	91                   	xchg   %eax,%ecx
    1bd3:	00 18                	add    %bl,(%eax)
    1bd5:	d7                   	xlat   %ds:(%ebx)
    1bd6:	03 00                	add    (%eax),%eax
    1bd8:	00 c4                	add    %al,%ah
    1bda:	44                   	inc    %esp
    1bdb:	10 00                	adc    %al,(%eax)
    1bdd:	30 00                	xor    %al,(%eax)
    1bdf:	00 00                	add    %al,(%eax)
    1be1:	01 34 cf             	add    %esi,(%edi,%ecx,8)
    1be4:	02 00                	add    (%eax),%al
    1be6:	00 14 ea             	add    %dl,(%edx,%ebp,8)
    1be9:	03 00                	add    (%eax),%eax
    1beb:	00 b9 08 00 00 14    	add    %bh,0x14000008(%ecx)
    1bf1:	df 03                	fild   (%ebx)
    1bf3:	00 00                	add    %al,(%eax)
    1bf5:	cd 08                	int    $0x8
    1bf7:	00 00                	add    %al,(%eax)
    1bf9:	00 13                	add    %dl,(%ebx)
    1bfb:	d7                   	xlat   %ds:(%ebx)
    1bfc:	03 00                	add    (%eax),%eax
    1bfe:	00 d6                	add    %dl,%dh
    1c00:	44                   	inc    %esp
    1c01:	10 00                	adc    %al,(%eax)
    1c03:	05 00 00 00 01       	add    $0x1000000,%eax
    1c08:	35 f5 02 00 00       	xor    $0x2f5,%eax
    1c0d:	14 ea                	adc    $0xea,%al
    1c0f:	03 00                	add    (%eax),%eax
    1c11:	00 e0                	add    %ah,%al
    1c13:	08 00                	or     %al,(%eax)
    1c15:	00 14 df             	add    %dl,(%edi,%ebx,8)
    1c18:	03 00                	add    (%eax),%eax
    1c1a:	00 f5                	add    %dh,%ch
    1c1c:	08 00                	or     %al,(%eax)
    1c1e:	00 00                	add    %al,(%eax)
    1c20:	13 d7                	adc    %edi,%edx
    1c22:	03 00                	add    (%eax),%eax
    1c24:	00 db                	add    %bl,%bl
    1c26:	44                   	inc    %esp
    1c27:	10 00                	adc    %al,(%eax)
    1c29:	05 00 00 00 01       	add    $0x1000000,%eax
    1c2e:	36 1b 03             	sbb    %ss:(%ebx),%eax
    1c31:	00 00                	add    %al,(%eax)
    1c33:	14 ea                	adc    $0xea,%al
    1c35:	03 00                	add    (%eax),%eax
    1c37:	00 08                	add    %cl,(%eax)
    1c39:	09 00                	or     %eax,(%eax)
    1c3b:	00 14 df             	add    %dl,(%edi,%ebx,8)
    1c3e:	03 00                	add    (%eax),%eax
    1c40:	00 1c 09             	add    %bl,(%ecx,%ecx,1)
    1c43:	00 00                	add    %al,(%eax)
    1c45:	00 13                	add    %dl,(%ebx)
    1c47:	d7                   	xlat   %ds:(%ebx)
    1c48:	03 00                	add    (%eax),%eax
    1c4a:	00 e0                	add    %ah,%al
    1c4c:	44                   	inc    %esp
    1c4d:	10 00                	adc    %al,(%eax)
    1c4f:	05 00 00 00 01       	add    $0x1000000,%eax
    1c54:	37                   	aaa    
    1c55:	41                   	inc    %ecx
    1c56:	03 00                	add    (%eax),%eax
    1c58:	00 14 ea             	add    %dl,(%edx,%ebp,8)
    1c5b:	03 00                	add    (%eax),%eax
    1c5d:	00 2f                	add    %ch,(%edi)
    1c5f:	09 00                	or     %eax,(%eax)
    1c61:	00 14 df             	add    %dl,(%edi,%ebx,8)
    1c64:	03 00                	add    (%eax),%eax
    1c66:	00 43 09             	add    %al,0x9(%ebx)
    1c69:	00 00                	add    %al,(%eax)
    1c6b:	00 13                	add    %dl,(%ebx)
    1c6d:	d7                   	xlat   %ds:(%ebx)
    1c6e:	03 00                	add    (%eax),%eax
    1c70:	00 e5                	add    %ah,%ch
    1c72:	44                   	inc    %esp
    1c73:	10 00                	adc    %al,(%eax)
    1c75:	05 00 00 00 01       	add    $0x1000000,%eax
    1c7a:	38 67 03             	cmp    %ah,0x3(%edi)
    1c7d:	00 00                	add    %al,(%eax)
    1c7f:	14 ea                	adc    $0xea,%al
    1c81:	03 00                	add    (%eax),%eax
    1c83:	00 56 09             	add    %dl,0x9(%esi)
    1c86:	00 00                	add    %al,(%eax)
    1c88:	14 df                	adc    $0xdf,%al
    1c8a:	03 00                	add    (%eax),%eax
    1c8c:	00 6a 09             	add    %ch,0x9(%edx)
    1c8f:	00 00                	add    %al,(%eax)
    1c91:	00 18                	add    %bl,(%eax)
    1c93:	d7                   	xlat   %ds:(%ebx)
    1c94:	03 00                	add    (%eax),%eax
    1c96:	00 ea                	add    %ch,%dl
    1c98:	44                   	inc    %esp
    1c99:	10 00                	adc    %al,(%eax)
    1c9b:	48                   	dec    %eax
    1c9c:	00 00                	add    %al,(%eax)
    1c9e:	00 01                	add    %al,(%ecx)
    1ca0:	39 8d 03 00 00 14    	cmp    %ecx,0x14000003(%ebp)
    1ca6:	ea 03 00 00 7d 09 00 	ljmp   $0x9,$0x7d000003
    1cad:	00 14 df             	add    %dl,(%edi,%ebx,8)
    1cb0:	03 00                	add    (%eax),%eax
    1cb2:	00 92 09 00 00 00    	add    %dl,0x9(%edx)
    1cb8:	19 d7                	sbb    %edx,%edi
    1cba:	03 00                	add    (%eax),%eax
    1cbc:	00 f0                	add    %dh,%al
    1cbe:	44                   	inc    %esp
    1cbf:	10 00                	adc    %al,(%eax)
    1cc1:	60                   	pusha  
    1cc2:	00 00                	add    %al,(%eax)
    1cc4:	00 01                	add    %al,(%ecx)
    1cc6:	3a 14 ea             	cmp    (%edx,%ebp,8),%dl
    1cc9:	03 00                	add    (%eax),%eax
    1ccb:	00 a7 09 00 00 14    	add    %ah,0x14000009(%edi)
    1cd1:	df 03                	fild   (%ebx)
    1cd3:	00 00                	add    %al,(%eax)
    1cd5:	bb 09 00 00 00       	mov    $0x9,%ebx
    1cda:	00 1a                	add    %bl,(%edx)
    1cdc:	69 6e 62 00 02 3f 21 	imul   $0x213f0200,0x62(%esi),%ebp
    1ce3:	00 00                	add    %al,(%eax)
    1ce5:	00 03                	add    %al,(%ebx)
    1ce7:	d7                   	xlat   %ds:(%ebx)
    1ce8:	03 00                	add    (%eax),%eax
    1cea:	00 1b                	add    %bl,(%ebx)
    1cec:	5b                   	pop    %ebx
    1ced:	04 00                	add    $0x0,%al
    1cef:	00 02                	add    %al,(%edx)
    1cf1:	3f                   	aas    
    1cf2:	57                   	push   %edi
    1cf3:	00 00                	add    %al,(%eax)
    1cf5:	00 1c 72             	add    %bl,(%edx,%esi,2)
    1cf8:	65 74 00             	gs je  1cfb <_scga-0xb6305>
    1cfb:	02 41 21             	add    0x21(%ecx),%al
    1cfe:	00 00                	add    %al,(%eax)
    1d00:	00 00                	add    %al,(%eax)
    1d02:	1d e7 04 00 00       	sbb    $0x4e7,%eax
    1d07:	02 33                	add    (%ebx),%dh
    1d09:	03 1b                	add    (%ebx),%ebx
    1d0b:	5b                   	pop    %ebx
    1d0c:	04 00                	add    $0x0,%al
    1d0e:	00 02                	add    %al,(%edx)
    1d10:	33 57 00             	xor    0x0(%edi),%edx
    1d13:	00 00                	add    %al,(%eax)
    1d15:	1e                   	push   %ds
    1d16:	76 61                	jbe    1d79 <_scga-0xb6287>
    1d18:	6c                   	insb   (%dx),%es:(%edi)
    1d19:	00 02                	add    %al,(%edx)
    1d1b:	33 21                	xor    (%ecx),%esp
    1d1d:	00 00                	add    %al,(%eax)
    1d1f:	00 00                	add    %al,(%eax)
    1d21:	00 eb                	add    %ch,%bl
    1d23:	04 00                	add    $0x0,%al
    1d25:	00 04 00             	add    %al,(%eax,%eax,1)
    1d28:	df 09                	fisttp (%ecx)
    1d2a:	00 00                	add    %al,(%eax)
    1d2c:	04 01                	add    $0x1,%al
    1d2e:	b0 01                	mov    $0x1,%al
    1d30:	00 00                	add    %al,(%eax)
    1d32:	0c 7f                	or     $0x7f,%al
    1d34:	07                   	pop    %es
    1d35:	00 00                	add    %al,(%eax)
    1d37:	5a                   	pop    %edx
    1d38:	45                   	inc    %ebp
    1d39:	10 00                	adc    %al,(%eax)
    1d3b:	48                   	dec    %eax
    1d3c:	00 00                	add    %al,(%eax)
    1d3e:	00 f3                	add    %dh,%bl
    1d40:	0e                   	push   %cs
    1d41:	00 00                	add    %al,(%eax)
    1d43:	02 01                	add    (%ecx),%al
    1d45:	08 d1                	or     %dl,%cl
    1d47:	00 00                	add    %al,(%eax)
    1d49:	00 03                	add    %al,(%ebx)
    1d4b:	80 03 00             	addb   $0x0,(%ebx)
    1d4e:	00 04 38             	add    %al,(%eax,%edi,1)
    1d51:	21 00                	and    %eax,(%eax)
    1d53:	00 00                	add    %al,(%eax)
    1d55:	03 a7 00 00 00 04    	add    0x4000000(%edi),%esp
    1d5b:	39 3e                	cmp    %edi,(%esi)
    1d5d:	00 00                	add    %al,(%eax)
    1d5f:	00 02                	add    %al,(%edx)
    1d61:	01 06                	add    %eax,(%esi)
    1d63:	d3 00                	roll   %cl,(%eax)
    1d65:	00 00                	add    %al,(%eax)
    1d67:	02 02                	add    (%edx),%al
    1d69:	05 0f 00 00 00       	add    $0xf,%eax
    1d6e:	03 4d 05             	add    0x5(%ebp),%ecx
    1d71:	00 00                	add    %al,(%eax)
    1d73:	04 4c                	add    $0x4c,%al
    1d75:	57                   	push   %edi
    1d76:	00 00                	add    %al,(%eax)
    1d78:	00 02                	add    %al,(%edx)
    1d7a:	02 07                	add    (%edi),%al
    1d7c:	56                   	push   %esi
    1d7d:	01 00                	add    %eax,(%eax)
    1d7f:	00 03                	add    %al,(%ebx)
    1d81:	25 01 00 00 04       	and    $0x4000001,%eax
    1d86:	4d                   	dec    %ebp
    1d87:	69 00 00 00 04 04    	imul   $0x4040000,(%eax),%eax
    1d8d:	05 69 6e 74 00       	add    $0x746e69,%eax
    1d92:	03 4f 00             	add    0x0(%edi),%ecx
    1d95:	00 00                	add    %al,(%eax)
    1d97:	04 4e                	add    $0x4e,%al
    1d99:	7b 00                	jnp    1d9b <_scga-0xb6265>
    1d9b:	00 00                	add    %al,(%eax)
    1d9d:	02 04 07             	add    (%edi,%eax,1),%al
    1da0:	ff 00                	incl   (%eax)
    1da2:	00 00                	add    %al,(%eax)
    1da4:	02 08                	add    (%eax),%cl
    1da6:	07                   	pop    %es
    1da7:	f5                   	cmc    
    1da8:	00 00                	add    %al,(%eax)
    1daa:	00 05 04 8f 00 00    	add    %al,0x8f04
    1db0:	00 06                	add    %al,(%esi)
    1db2:	03 1a                	add    (%edx),%ebx
    1db4:	02 00                	add    (%eax),%al
    1db6:	00 04 6d 89 00 00 00 	add    %al,0x89(,%ebp,2)
    1dbd:	07                   	pop    %es
    1dbe:	90                   	nop
    1dbf:	00 00                	add    %al,(%eax)
    1dc1:	00 03                	add    %al,(%ebx)
    1dc3:	07                   	pop    %es
    1dc4:	00 00                	add    %al,(%eax)
    1dc6:	00 03                	add    %al,(%ebx)
    1dc8:	43                   	inc    %ebx
    1dc9:	70 00                	jo     1dcb <_scga-0xb6235>
    1dcb:	00 00                	add    %al,(%eax)
    1dcd:	07                   	pop    %es
    1dce:	a0 00 00 00 03       	mov    0x3000000,%al
    1dd3:	6a 00                	push   $0x0
    1dd5:	00 00                	add    %al,(%eax)
    1dd7:	03 57 5e             	add    0x5e(%edi),%edx
    1dda:	00 00                	add    %al,(%eax)
    1ddc:	00 02                	add    %al,(%edx)
    1dde:	04 05                	add    $0x5,%al
    1de0:	af                   	scas   %es:(%edi),%eax
    1de1:	00 00                	add    %al,(%eax)
    1de3:	00 08                	add    %cl,(%eax)
    1de5:	9b                   	fwait
    1de6:	00 00                	add    %al,(%eax)
    1de8:	00 d2                	add    %dl,%dl
    1dea:	00 00                	add    %al,(%eax)
    1dec:	00 09                	add    %cl,(%ecx)
    1dee:	d7                   	xlat   %ds:(%ebx)
    1def:	00 00                	add    %al,(%eax)
    1df1:	00 00                	add    %al,(%eax)
    1df3:	00 07                	add    %al,(%edi)
    1df5:	c2 00 00             	ret    $0x0
    1df8:	00 02                	add    %al,(%edx)
    1dfa:	04 07                	add    $0x7,%al
    1dfc:	24 00                	and    $0x0,%al
    1dfe:	00 00                	add    %al,(%eax)
    1e00:	0a 94 00 00 00 05 56 	or     0x56050000(%eax,%eax,1),%dl
    1e07:	d2 00                	rolb   %cl,(%eax)
    1e09:	00 00                	add    %al,(%eax)
    1e0b:	0b 77 04             	or     0x4(%edi),%esi
    1e0e:	00 00                	add    %al,(%eax)
    1e10:	04 7b                	add    $0x7b,%al
    1e12:	00 00                	add    %al,(%eax)
    1e14:	00 0b                	add    %cl,(%ebx)
    1e16:	37                   	aaa    
    1e17:	53                   	push   %ebx
    1e18:	01 00                	add    %eax,(%eax)
    1e1a:	00 0c 3e             	add    %cl,(%esi,%edi,1)
    1e1d:	04 00                	add    $0x0,%al
    1e1f:	00 00                	add    %al,(%eax)
    1e21:	00 e0                	add    %ah,%al
    1e23:	fe 0d 49 44 00 20    	decb   0x20004449
    1e29:	00 e0                	add    %ah,%al
    1e2b:	fe 0c 9a             	decb   (%edx,%ebx,4)
    1e2e:	04 00                	add    $0x0,%al
    1e30:	00 f0                	add    %dh,%al
    1e32:	00 e0                	add    %ah,%al
    1e34:	fe 0d 54 50 52 00    	decb   0x525054
    1e3a:	80 00 e0             	addb   $0xe0,(%eax)
    1e3d:	fe 0d 50 50 52 00    	decb   0x525050
    1e43:	a0 00 e0 fe 0d       	mov    0xdfee000,%al
    1e48:	45                   	inc    %ebp
    1e49:	4f                   	dec    %edi
    1e4a:	49                   	dec    %ecx
    1e4b:	00 b0 00 e0 fe 0d    	add    %dh,0xdfee000(%eax)
    1e51:	49                   	dec    %ecx
    1e52:	52                   	push   %edx
    1e53:	52                   	push   %edx
    1e54:	00 00                	add    %al,(%eax)
    1e56:	02 e0                	add    %al,%ah
    1e58:	fe 0c 9f             	decb   (%edi,%ebx,4)
    1e5b:	04 00                	add    $0x0,%al
    1e5d:	00 00                	add    %al,(%eax)
    1e5f:	01 e0                	add    %esp,%eax
    1e61:	fe 0c 04             	decb   (%esp,%eax,1)
    1e64:	04 00                	add    $0x0,%al
    1e66:	00 00                	add    %al,(%eax)
    1e68:	03 e0                	add    %eax,%esp
    1e6a:	fe 0c fd 03 00 00 10 	decb   0x10000003(,%edi,8)
    1e71:	03 e0                	add    %eax,%esp
    1e73:	fe 00                	incb   (%eax)
    1e75:	02 01                	add    (%ecx),%al
    1e77:	06                   	push   %es
    1e78:	da 00                	fiaddl (%eax)
    1e7a:	00 00                	add    %al,(%eax)
    1e7c:	08 ab 00 00 00 65    	or     %ch,0x65000000(%ebx)
    1e82:	01 00                	add    %eax,(%eax)
    1e84:	00 0e                	add    %cl,(%esi)
    1e86:	00 07                	add    %al,(%edi)
    1e88:	5a                   	pop    %edx
    1e89:	01 00                	add    %eax,(%eax)
    1e8b:	00 0a                	add    %cl,(%edx)
    1e8d:	59                   	pop    %ecx
    1e8e:	00 00                	add    %al,(%eax)
    1e90:	00 06                	add    %al,(%esi)
    1e92:	65 65 01 00          	gs add %eax,%gs:(%eax)
    1e96:	00 0a                	add    %cl,(%edx)
    1e98:	57                   	push   %edi
    1e99:	02 00                	add    (%eax),%al
    1e9b:	00 06                	add    %al,(%esi)
    1e9d:	66 65 01 00          	add    %ax,%gs:(%eax)
    1ea1:	00 08                	add    %cl,(%eax)
    1ea3:	a0 00 00 00 8b       	mov    0x8b000000,%al
    1ea8:	01 00                	add    %eax,(%eax)
    1eaa:	00 0e                	add    %cl,(%esi)
    1eac:	00 0a                	add    %cl,(%edx)
    1eae:	40                   	inc    %eax
    1eaf:	02 00                	add    (%eax),%al
    1eb1:	00 06                	add    %al,(%esi)
    1eb3:	70 80                	jo     1e35 <_scga-0xb61cb>
    1eb5:	01 00                	add    %eax,(%eax)
    1eb7:	00 08                	add    %cl,(%eax)
    1eb9:	b0 00                	mov    $0x0,%al
    1ebb:	00 00                	add    %al,(%eax)
    1ebd:	a1 01 00 00 0e       	mov    0xe000001,%eax
    1ec2:	00 0a                	add    %cl,(%edx)
    1ec4:	6b 02 00             	imul   $0x0,(%edx),%eax
    1ec7:	00 06                	add    %al,(%esi)
    1ec9:	71 96                	jno    1e61 <_scga-0xb619f>
    1ecb:	01 00                	add    %eax,(%eax)
    1ecd:	00 0a                	add    %cl,(%edx)
    1ecf:	c2 00 00             	ret    $0x0
    1ed2:	00 06                	add    %al,(%esi)
    1ed4:	72 a0                	jb     1e76 <_scga-0xb618a>
    1ed6:	00 00                	add    %al,(%eax)
    1ed8:	00 0a                	add    %cl,(%edx)
    1eda:	19 00                	sbb    %eax,(%eax)
    1edc:	00 00                	add    %al,(%eax)
    1ede:	06                   	push   %es
    1edf:	77 b0                	ja     1e91 <_scga-0xb616f>
    1ee1:	00 00                	add    %al,(%eax)
    1ee3:	00 0a                	add    %cl,(%edx)
    1ee5:	4b                   	dec    %ebx
    1ee6:	02 00                	add    (%eax),%al
    1ee8:	00 06                	add    %al,(%esi)
    1eea:	7a b0                	jp     1e9c <_scga-0xb6164>
    1eec:	00 00                	add    %al,(%eax)
    1eee:	00 0a                	add    %cl,(%edx)
    1ef0:	0c 01                	or     $0x1,%al
    1ef2:	00 00                	add    %al,(%eax)
    1ef4:	07                   	pop    %es
    1ef5:	43                   	inc    %ebx
    1ef6:	b0 00                	mov    $0x0,%al
    1ef8:	00 00                	add    %al,(%eax)
    1efa:	0a 7f 00             	or     0x0(%edi),%bh
    1efd:	00 00                	add    %al,(%eax)
    1eff:	08 3f                	or     %bh,(%edi)
    1f01:	a0 00 00 00 0f       	mov    0xf000000,%al
    1f06:	73 07                	jae    1f0f <_scga-0xb60f1>
    1f08:	00 00                	add    %al,(%eax)
    1f0a:	18 09                	sbb    %cl,(%ecx)
    1f0c:	3b 36                	cmp    (%esi),%esi
    1f0e:	02 00                	add    (%eax),%al
    1f10:	00 10                	add    %dl,(%eax)
    1f12:	60                   	pusha  
    1f13:	07                   	pop    %es
    1f14:	00 00                	add    %al,(%eax)
    1f16:	09 3c 70             	or     %edi,(%eax,%esi,2)
    1f19:	00 00                	add    %al,(%eax)
    1f1b:	00 00                	add    %al,(%eax)
    1f1d:	11 65 69             	adc    %esp,0x69(%ebp)
    1f20:	70 00                	jo     1f22 <_scga-0xb60de>
    1f22:	09 3e                	or     %edi,(%esi)
    1f24:	70 00                	jo     1f26 <_scga-0xb60da>
    1f26:	00 00                	add    %al,(%eax)
    1f28:	04 11                	add    $0x11,%al
    1f2a:	63 73 00             	arpl   %si,0x0(%ebx)
    1f2d:	09 3f                	or     %edi,(%edi)
    1f2f:	70 00                	jo     1f31 <_scga-0xb60cf>
    1f31:	00 00                	add    %al,(%eax)
    1f33:	08 10                	or     %dl,(%eax)
    1f35:	34 07                	xor    $0x7,%al
    1f37:	00 00                	add    %al,(%eax)
    1f39:	09 41 70             	or     %eax,0x70(%ecx)
    1f3c:	00 00                	add    %al,(%eax)
    1f3e:	00 0c 10             	add    %cl,(%eax,%edx,1)
    1f41:	40                   	inc    %eax
    1f42:	07                   	pop    %es
    1f43:	00 00                	add    %al,(%eax)
    1f45:	09 44 70 00          	or     %eax,0x0(%eax,%esi,2)
    1f49:	00 00                	add    %al,(%eax)
    1f4b:	10 11                	adc    %dl,(%ecx)
    1f4d:	73 73                	jae    1fc2 <_scga-0xb603e>
    1f4f:	00 09                	add    %cl,(%ecx)
    1f51:	45                   	inc    %ebp
    1f52:	70 00                	jo     1f54 <_scga-0xb60ac>
    1f54:	00 00                	add    %al,(%eax)
    1f56:	14 00                	adc    $0x0,%al
    1f58:	0f be 07             	movsbl (%edi),%eax
    1f5b:	00 00                	add    %al,(%eax)
    1f5d:	20 09                	and    %cl,(%ecx)
    1f5f:	49                   	dec    %ecx
    1f60:	a3 02 00 00 11       	mov    %eax,0x11000002
    1f65:	65 64 69 00 09 4a 70 	gs imul $0x704a09,%fs:(%eax),%eax
    1f6c:	00 
    1f6d:	00 00                	add    %al,(%eax)
    1f6f:	00 11                	add    %dl,(%ecx)
    1f71:	65 73 69             	gs jae 1fdd <_scga-0xb6023>
    1f74:	00 09                	add    %cl,(%ecx)
    1f76:	4a                   	dec    %edx
    1f77:	70 00                	jo     1f79 <_scga-0xb6087>
    1f79:	00 00                	add    %al,(%eax)
    1f7b:	04 11                	add    $0x11,%al
    1f7d:	65 62 70 00          	bound  %esi,%gs:0x0(%eax)
    1f81:	09 4a 70             	or     %ecx,0x70(%edx)
    1f84:	00 00                	add    %al,(%eax)
    1f86:	00 08                	add    %cl,(%eax)
    1f88:	11 65 73             	adc    %esp,0x73(%ebp)
    1f8b:	70 00                	jo     1f8d <_scga-0xb6073>
    1f8d:	09 4a 70             	or     %ecx,0x70(%edx)
    1f90:	00 00                	add    %al,(%eax)
    1f92:	00 0c 11             	add    %cl,(%ecx,%edx,1)
    1f95:	65 62 78 00          	bound  %edi,%gs:0x0(%eax)
    1f99:	09 4a 70             	or     %ecx,0x70(%edx)
    1f9c:	00 00                	add    %al,(%eax)
    1f9e:	00 10                	add    %dl,(%eax)
    1fa0:	11 65 64             	adc    %esp,0x64(%ebp)
    1fa3:	78 00                	js     1fa5 <_scga-0xb605b>
    1fa5:	09 4b 70             	or     %ecx,0x70(%ebx)
    1fa8:	00 00                	add    %al,(%eax)
    1faa:	00 14 11             	add    %dl,(%ecx,%edx,1)
    1fad:	65 63 78 00          	arpl   %di,%gs:0x0(%eax)
    1fb1:	09 4b 70             	or     %ecx,0x70(%ebx)
    1fb4:	00 00                	add    %al,(%eax)
    1fb6:	00 18                	add    %bl,(%eax)
    1fb8:	11 65 61             	adc    %esp,0x61(%ebp)
    1fbb:	78 00                	js     1fbd <_scga-0xb6043>
    1fbd:	09 4b 70             	or     %ecx,0x70(%ebx)
    1fc0:	00 00                	add    %al,(%eax)
    1fc2:	00 1c 00             	add    %bl,(%eax,%eax,1)
    1fc5:	0f 2c 08             	cvttps2pi (%eax),%mm1
    1fc8:	00 00                	add    %al,(%eax)
    1fca:	38 09                	cmp    %cl,(%ecx)
    1fcc:	50                   	push   %eax
    1fcd:	c8 02 00 00          	enter  $0x2,$0x0
    1fd1:	10 3b                	adc    %bh,(%ebx)
    1fd3:	07                   	pop    %es
    1fd4:	00 00                	add    %al,(%eax)
    1fd6:	09 51 36             	or     %edx,0x36(%ecx)
    1fd9:	02 00                	add    (%eax),%al
    1fdb:	00 00                	add    %al,(%eax)
    1fdd:	11 63 70             	adc    %esp,0x70(%ebx)
    1fe0:	75 00                	jne    1fe2 <_scga-0xb601e>
    1fe2:	09 52 e3             	or     %edx,-0x1d(%edx)
    1fe5:	01 00                	add    %eax,(%eax)
    1fe7:	00 20                	add    %ah,(%eax)
    1fe9:	00 0a                	add    %cl,(%edx)
    1feb:	39 01                	cmp    %eax,(%ecx)
    1fed:	00 00                	add    %al,(%eax)
    1fef:	09 8a a0 00 00 00    	or     %ecx,0xa0(%edx)
    1ff5:	08 33                	or     %dh,(%ebx)
    1ff7:	00 00                	add    %al,(%eax)
    1ff9:	00 de                	add    %bl,%dh
    1ffb:	02 00                	add    (%eax),%al
    1ffd:	00 0e                	add    %cl,(%esi)
    1fff:	00 0a                	add    %cl,(%edx)
    2001:	71 00                	jno    2003 <_scga-0xb5ffd>
    2003:	00 00                	add    %al,(%eax)
    2005:	0a 97 d3 02 00 00    	or     0x2d3(%edi),%dl
    200b:	0f c5                	pextrw $0xc5,(bad),%eax
    200d:	06                   	push   %es
    200e:	00 00                	add    %al,(%eax)
    2010:	08 01                	or     %al,(%ecx)
    2012:	18 50 03             	sbb    %dl,0x3(%eax)
    2015:	00 00                	add    %al,(%eax)
    2017:	10 1c 08             	adc    %bl,(%eax,%ecx,1)
    201a:	00 00                	add    %al,(%eax)
    201c:	01 1a                	add    %ebx,(%edx)
    201e:	4c                   	dec    %esp
    201f:	00 00                	add    %al,(%eax)
    2021:	00 00                	add    %al,(%eax)
    2023:	11 63 73             	adc    %esp,0x73(%ebx)
    2026:	00 01                	add    %al,(%ecx)
    2028:	1d 4c 00 00 00       	sbb    $0x4c,%eax
    202d:	02 10                	add    (%eax),%dl
    202f:	69 08 00 00 01 1e    	imul   $0x1e010000,(%eax),%ecx
    2035:	28 00                	sub    %al,(%eax)
    2037:	00 00                	add    %al,(%eax)
    2039:	04 12                	add    $0x12,%al
    203b:	28 00                	sub    %al,(%eax)
    203d:	00 00                	add    %al,(%eax)
    203f:	01 24 28             	add    %esp,(%eax,%ebp,1)
    2042:	00 00                	add    %al,(%eax)
    2044:	00 01                	add    %al,(%ecx)
    2046:	05 03 05 13 64       	add    $0x64130503,%eax
    204b:	70 6c                	jo     20b9 <_scga-0xb5f47>
    204d:	00 01                	add    %al,(%ecx)
    204f:	28 28                	sub    %ch,(%eax)
    2051:	00 00                	add    %al,(%eax)
    2053:	00 01                	add    %al,(%ecx)
    2055:	02 01                	add    (%ecx),%al
    2057:	05 13 70 00 01       	add    $0x1007013,%eax
    205c:	2b 28                	sub    (%eax),%ebp
    205e:	00 00                	add    %al,(%eax)
    2060:	00 01                	add    %al,(%ecx)
    2062:	01 00                	add    %eax,(%eax)
    2064:	05 10 12 07 00       	add    $0x71210,%eax
    2069:	00 01                	add    %al,(%ecx)
    206b:	2e 4c                	cs dec %esp
    206d:	00 00                	add    %al,(%eax)
    206f:	00 06                	add    %al,(%esi)
    2071:	00 08                	add    %cl,(%eax)
    2073:	e9 02 00 00 60       	jmp    6000207a <gdt+0x5fe0001a>
    2078:	03 00                	add    (%eax),%eax
    207a:	00 09                	add    %cl,(%ecx)
    207c:	d7                   	xlat   %ds:(%ebx)
    207d:	00 00                	add    %al,(%eax)
    207f:	00 ff                	add    %bh,%bh
    2081:	00 0a                	add    %cl,(%edx)
    2083:	e1 07                	loope  208c <_scga-0xb5f74>
    2085:	00 00                	add    %al,(%eax)
    2087:	01 33                	add    %esi,(%ebx)
    2089:	50                   	push   %eax
    208a:	03 00                	add    (%eax),%eax
    208c:	00 14 db             	add    %dl,(%ebx,%ebx,8)
    208f:	04 00                	add    $0x0,%al
    2091:	00 01                	add    %al,(%ecx)
    2093:	35 89 45 10 00       	xor    $0x104589,%eax
    2098:	19 00                	sbb    %eax,(%eax)
    209a:	00 00                	add    %al,(%eax)
    209c:	01 9c b4 03 00 00 0f 	add    %ebx,0xf000003(%esp,%esi,4)
    20a3:	b0 07                	mov    $0x7,%al
    20a5:	00 00                	add    %al,(%eax)
    20a7:	06                   	push   %es
    20a8:	01 37                	add    %esi,(%edi)
    20aa:	a5                   	movsl  %ds:(%esi),%es:(%edi)
    20ab:	03 00                	add    (%eax),%eax
    20ad:	00 10                	add    %dl,(%eax)
    20af:	17                   	pop    %ss
    20b0:	08 00                	or     %al,(%eax)
    20b2:	00 01                	add    %al,(%ecx)
    20b4:	39 4c 00 00          	cmp    %ecx,0x0(%eax,%eax,1)
    20b8:	00 00                	add    %al,(%eax)
    20ba:	10 b9 07 00 00 01    	adc    %bh,0x1000007(%ecx)
    20c0:	3b 70 00             	cmp    0x0(%eax),%esi
    20c3:	00 00                	add    %al,(%eax)
    20c5:	02 00                	add    (%eax),%al
    20c7:	15 6b 07 00 00       	adc    $0x76b,%eax
    20cc:	01 3c 80             	add    %edi,(%eax,%eax,4)
    20cf:	03 00                	add    (%eax),%eax
    20d1:	00 02                	add    %al,(%edx)
    20d3:	91                   	xchg   %eax,%ecx
    20d4:	72 00                	jb     20d6 <_scga-0xb5f2a>
    20d6:	16                   	push   %ss
    20d7:	ee                   	out    %al,(%dx)
    20d8:	06                   	push   %es
    20d9:	00 00                	add    %al,(%eax)
    20db:	01 0b                	add    %ecx,(%ebx)
    20dd:	03 d7                	add    %edi,%edx
    20df:	03 00                	add    (%eax),%eax
    20e1:	00 17                	add    %dl,(%edi)
    20e3:	9d                   	popf   
    20e4:	05 00 00 01 0b       	add    $0xb010000,%eax
    20e9:	70 00                	jo     20eb <_scga-0xb5f15>
    20eb:	00 00                	add    %al,(%eax)
    20ed:	18 63 74             	sbb    %ah,0x74(%ebx)
    20f0:	78 00                	js     20f2 <_scga-0xb5f0e>
    20f2:	01 0b                	add    %ecx,(%ebx)
    20f4:	a3 02 00 00 00       	mov    %eax,0x2
    20f9:	14 5b                	adc    $0x5b,%al
    20fb:	08 00                	or     %al,(%eax)
    20fd:	00 01                	add    %al,(%ecx)
    20ff:	0b 5a 45             	or     0x45(%edx),%ebx
    2102:	10 00                	adc    %al,(%eax)
    2104:	2f                   	das    
    2105:	00 00                	add    %al,(%eax)
    2107:	00 01                	add    %al,(%ecx)
    2109:	9c                   	pushf  
    210a:	61                   	popa   
    210b:	04 00                	add    $0x0,%al
    210d:	00 19                	add    %bl,(%ecx)
    210f:	9d                   	popf   
    2110:	05 00 00 01 0b       	add    $0xb010000,%eax
    2115:	70 00                	jo     2117 <_scga-0xb5ee9>
    2117:	00 00                	add    %al,(%eax)
    2119:	02 91 00 1a 63 74    	add    0x74631a00(%ecx),%dl
    211f:	78 00                	js     2121 <_scga-0xb5edf>
    2121:	01 0b                	add    %ecx,(%ebx)
    2123:	a3 02 00 00 02       	mov    %eax,0x2000002
    2128:	91                   	xchg   %eax,%ecx
    2129:	04 1b                	add    $0x1b,%al
    212b:	68 04 00 00 60       	push   $0x60000004
    2130:	45                   	inc    %ebp
    2131:	10 00                	adc    %al,(%eax)
    2133:	0a 00                	or     (%eax),%al
    2135:	00 00                	add    %al,(%eax)
    2137:	01 0b                	add    %ecx,(%ebx)
    2139:	2b 04 00             	sub    (%eax,%eax,1),%eax
    213c:	00 1c 78             	add    %bl,(%eax,%edi,2)
    213f:	04 00                	add    $0x0,%al
    2141:	00 60 45             	add    %ah,0x45(%eax)
    2144:	10 00                	adc    %al,(%eax)
    2146:	0a 00                	or     (%eax),%al
    2148:	00 00                	add    %al,(%eax)
    214a:	09 90 00 1d b4 03    	or     %edx,0x3b41d00(%eax)
    2150:	00 00                	add    %al,(%eax)
    2152:	6a 45                	push   $0x45
    2154:	10 00                	adc    %al,(%eax)
    2156:	1f                   	pop    %ds
    2157:	00 00                	add    %al,(%eax)
    2159:	00 01                	add    %al,(%ecx)
    215b:	0b 1e                	or     (%esi),%ebx
    215d:	cb                   	lret   
    215e:	03 00                	add    (%eax),%eax
    2160:	00 1f                	add    %bl,(%edi)
    2162:	c0 03 00             	rolb   $0x0,(%ebx)
    2165:	00 02                	add    %al,(%edx)
    2167:	91                   	xchg   %eax,%ecx
    2168:	00 1c cb             	add    %bl,(%ebx,%ecx,8)
    216b:	04 00                	add    $0x0,%al
    216d:	00 77 45             	add    %dh,0x45(%edi)
    2170:	10 00                	adc    %al,(%eax)
    2172:	12 00                	adc    (%eax),%al
    2174:	00 00                	add    %al,(%eax)
    2176:	01 0f                	add    %ecx,(%edi)
    2178:	20 77 45             	and    %dh,0x45(%edi)
    217b:	10 00                	adc    %al,(%eax)
    217d:	e3 04                	jecxz  2183 <_scga-0xb5e7d>
    217f:	00 00                	add    %al,(%eax)
    2181:	00 00                	add    %al,(%eax)
    2183:	21 23                	and    %esp,(%ebx)
    2185:	07                   	pop    %es
    2186:	00 00                	add    %al,(%eax)
    2188:	09 9b 22 e8 07 00    	or     %ebx,0x7e822(%ebx)
    218e:	00 09                	add    %cl,(%ecx)
    2190:	8d 03                	lea    (%ebx),%eax
    2192:	22 d4                	and    %ah,%dl
    2194:	06                   	push   %es
    2195:	00 00                	add    %al,(%eax)
    2197:	02 6a 03             	add    0x3(%edx),%ch
    219a:	22 f8                	and    %al,%bh
    219c:	07                   	pop    %es
    219d:	00 00                	add    %al,(%eax)
    219f:	02 55 03             	add    0x3(%ebp),%dl
    21a2:	22 6e 08             	and    0x8(%esi),%ch
    21a5:	00 00                	add    %al,(%eax)
    21a7:	02 54 03 16          	add    0x16(%ebx,%eax,1),%dl
    21ab:	cb                   	lret   
    21ac:	07                   	pop    %es
    21ad:	00 00                	add    %al,(%eax)
    21af:	07                   	pop    %es
    21b0:	89 03                	mov    %eax,(%ebx)
    21b2:	a0 04 00 00 18       	mov    0x18000004,%al
    21b7:	74 69                	je     2222 <_scga-0xb5dde>
    21b9:	64 00 07             	add    %al,%fs:(%edi)
    21bc:	89 b0 00 00 00 00    	mov    %esi,0x0(%eax)
    21c2:	22 49 08             	and    0x8(%ecx),%cl
    21c5:	00 00                	add    %al,(%eax)
    21c7:	0b 55 03             	or     0x3(%ebp),%edx
    21ca:	16                   	push   %ss
    21cb:	9e                   	sahf   
    21cc:	03 00                	add    (%eax),%eax
    21ce:	00 0b                	add    %cl,(%ebx)
    21d0:	45                   	inc    %ebp
    21d1:	03 cb                	add    %ebx,%ecx
    21d3:	04 00                	add    $0x0,%al
    21d5:	00 18                	add    %bl,(%eax)
    21d7:	72 65                	jb     223e <_scga-0xb5dc2>
    21d9:	67 00 0b             	add    %cl,(%bp,%di)
    21dc:	45                   	inc    %ebp
    21dd:	70 00                	jo     21df <_scga-0xb5e21>
    21df:	00 00                	add    %al,(%eax)
    21e1:	18 76 61             	sbb    %dh,0x61(%esi)
    21e4:	6c                   	insb   (%dx),%es:(%edi)
    21e5:	00 0b                	add    %cl,(%ebx)
    21e7:	45                   	inc    %ebp
    21e8:	70 00                	jo     21ea <_scga-0xb5e16>
    21ea:	00 00                	add    %al,(%eax)
    21ec:	00 22                	add    %ah,(%edx)
    21ee:	49                   	dec    %ecx
    21ef:	07                   	pop    %es
    21f0:	00 00                	add    %al,(%eax)
    21f2:	03 d7                	add    %edi,%edx
    21f4:	03 22                	add    (%edx),%esp
    21f6:	01 07                	add    %eax,(%edi)
    21f8:	00 00                	add    %al,(%eax)
    21fa:	03 b1 03 22 38 08    	add    0x8382203(%ecx),%esi
    2200:	00 00                	add    %al,(%eax)
    2202:	03 98 03 23 2e 01    	add    0x12e2303(%eax),%ebx
    2208:	00 00                	add    %al,(%eax)
    220a:	2e 01 00             	add    %eax,%cs:(%eax)
    220d:	00 0c 49             	add    %cl,(%ecx,%ecx,2)
    2210:	00 9f 00 00 00 02    	add    %bl,0x2000000(%edi)
    2216:	00 b6 0b 00 00 04    	add    %dh,0x400000b(%esi)
    221c:	01 db                	add    %ebx,%ebx
    221e:	10 00                	adc    %al,(%eax)
    2220:	00 00                	add    %al,(%eax)
    2222:	10 10                	adc    %dl,(%eax)
    2224:	00 fe                	add    %bh,%dh
    2226:	2f                   	das    
    2227:	10 00                	adc    %al,(%eax)
    2229:	2f                   	das    
    222a:	68 6f 6d 65 2f       	push   $0x2f656d6f
    222f:	6b 64 77 39 32       	imul   $0x32,0x39(%edi,%esi,2),%esp
    2234:	34 32                	xor    $0x32,%al
    2236:	2f                   	das    
    2237:	45                   	inc    %ebp
    2238:	72 69                	jb     22a3 <_scga-0xb5d5d>
    223a:	6b 61 2f 70          	imul   $0x70,0x2f(%ecx),%esp
    223e:	6b 67 2f 63          	imul   $0x63,0x2f(%edi),%esp
    2242:	70 75                	jo     22b9 <_scga-0xb5d47>
    2244:	2f                   	das    
    2245:	78 38                	js     227f <_scga-0xb5d81>
    2247:	36 2f                	ss das 
    2249:	73 72                	jae    22bd <_scga-0xb5d43>
    224b:	63 2f                	arpl   %bp,(%edi)
    224d:	65 65 5f             	gs gs pop %edi
    2250:	69 64 74 5f 68 61 6e 	imul   $0x646e6168,0x5f(%esp,%esi,2),%esp
    2257:	64 
    2258:	6c                   	insb   (%dx),%es:(%edi)
    2259:	65 72 73             	gs jb  22cf <_scga-0xb5d31>
    225c:	2e 53                	cs push %ebx
    225e:	00 2f                	add    %ch,(%edi)
    2260:	72 65                	jb     22c7 <_scga-0xb5d39>
    2262:	73 65                	jae    22c9 <_scga-0xb5d37>
    2264:	61                   	popa   
    2265:	72 63                	jb     22ca <_scga-0xb5d36>
    2267:	68 2f 45 72 69       	push   $0x6972452f
    226c:	6b 61 2f 65          	imul   $0x65,0x2f(%ecx),%esp
    2270:	78 61                	js     22d3 <_scga-0xb5d2d>
    2272:	6d                   	insl   (%dx),%es:(%edi)
    2273:	70 6c                	jo     22e1 <_scga-0xb5d1f>
    2275:	65 73 2f             	gs jae 22a7 <_scga-0xb5d59>
    2278:	78 38                	js     22b2 <_scga-0xb5d4e>
    227a:	36 2f                	ss das 
    227c:	70 6f                	jo     22ed <_scga-0xb5d13>
    227e:	72 74                	jb     22f4 <_scga-0xb5d0c>
    2280:	69 6e 67 5f 65 78 61 	imul   $0x6178655f,0x67(%esi),%ebp
    2287:	6d                   	insl   (%dx),%es:(%edi)
    2288:	70 6c                	jo     22f6 <_scga-0xb5d0a>
    228a:	65 73 2f             	gs jae 22bc <_scga-0xb5d44>
    228d:	6d                   	insl   (%dx),%es:(%edi)
    228e:	6f                   	outsl  %ds:(%esi),(%dx)
    228f:	6e                   	outsb  %ds:(%esi),(%dx)
    2290:	6f                   	outsl  %ds:(%esi),(%dx)
    2291:	73 74                	jae    2307 <_scga-0xb5cf9>
    2293:	61                   	popa   
    2294:	63 6b 2f             	arpl   %bp,0x2f(%ebx)
    2297:	45                   	inc    %ebp
    2298:	45                   	inc    %ebp
    2299:	74 65                	je     2300 <_scga-0xb5d00>
    229b:	73 74                	jae    2311 <_scga-0xb5cef>
    229d:	30 30                	xor    %dh,(%eax)
    229f:	2f                   	das    
    22a0:	44                   	inc    %esp
    22a1:	65 62 75 67          	bound  %esi,%gs:0x67(%ebp)
    22a5:	00 47 4e             	add    %al,0x4e(%edi)
    22a8:	55                   	push   %ebp
    22a9:	20 41 53             	and    %al,0x53(%ecx)
    22ac:	20 32                	and    %dh,(%edx)
    22ae:	2e 32 36             	xor    %cs:(%esi),%dh
    22b1:	00 01                	add    %al,(%ecx)
    22b3:	80 ba 01 00 00 04 00 	cmpb   $0x0,0x4000001(%edx)
    22ba:	ca 0b 00             	lret   $0xb
    22bd:	00 04 01             	add    %al,(%ecx,%eax,1)
    22c0:	b0 01                	mov    $0x1,%al
    22c2:	00 00                	add    %al,(%eax)
    22c4:	0c a9                	or     $0xa9,%al
    22c6:	08 00                	or     %al,(%eax)
    22c8:	00 7a 11             	add    %bh,0x11(%edx)
    22cb:	00 00                	add    %al,(%eax)
    22cd:	02 01                	add    (%ecx),%al
    22cf:	08 d1                	or     %dl,%cl
    22d1:	00 00                	add    %al,(%eax)
    22d3:	00 03                	add    %al,(%ebx)
    22d5:	a7                   	cmpsl  %es:(%edi),%ds:(%esi)
    22d6:	00 00                	add    %al,(%eax)
    22d8:	00 01                	add    %al,(%ecx)
    22da:	39 2b                	cmp    %ebp,(%ebx)
    22dc:	00 00                	add    %al,(%eax)
    22de:	00 02                	add    %al,(%edx)
    22e0:	01 06                	add    %eax,(%esi)
    22e2:	d3 00                	roll   %cl,(%eax)
    22e4:	00 00                	add    %al,(%eax)
    22e6:	02 02                	add    (%edx),%al
    22e8:	05 0f 00 00 00       	add    $0xf,%eax
    22ed:	02 02                	add    (%edx),%al
    22ef:	07                   	pop    %es
    22f0:	56                   	push   %esi
    22f1:	01 00                	add    %eax,(%eax)
    22f3:	00 03                	add    %al,(%ebx)
    22f5:	25 01 00 00 01       	and    $0x1000001,%eax
    22fa:	4d                   	dec    %ebp
    22fb:	4b                   	dec    %ebx
    22fc:	00 00                	add    %al,(%eax)
    22fe:	00 04 04             	add    %al,(%esp,%eax,1)
    2301:	05 69 6e 74 00       	add    $0x746e69,%eax
    2306:	03 4f 00             	add    0x0(%edi),%ecx
    2309:	00 00                	add    %al,(%eax)
    230b:	01 4e 5d             	add    %ecx,0x5d(%esi)
    230e:	00 00                	add    %al,(%eax)
    2310:	00 02                	add    %al,(%edx)
    2312:	04 07                	add    $0x7,%al
    2314:	ff 00                	incl   (%eax)
    2316:	00 00                	add    %al,(%eax)
    2318:	02 08                	add    (%eax),%cl
    231a:	07                   	pop    %es
    231b:	f5                   	cmc    
    231c:	00 00                	add    %al,(%eax)
    231e:	00 05 04 71 00 00    	add    %al,0x7104
    2324:	00 06                	add    %al,(%esi)
    2326:	03 1a                	add    (%edx),%ebx
    2328:	02 00                	add    (%eax),%al
    232a:	00 01                	add    %al,(%ecx)
    232c:	6d                   	insl   (%dx),%es:(%edi)
    232d:	6b 00 00             	imul   $0x0,(%eax),%eax
    2330:	00 07                	add    %al,(%edi)
    2332:	72 00                	jb     2334 <_scga-0xb5ccc>
    2334:	00 00                	add    %al,(%eax)
    2336:	03 07                	add    (%edi),%eax
    2338:	00 00                	add    %al,(%eax)
    233a:	00 02                	add    %al,(%edx)
    233c:	43                   	inc    %ebx
    233d:	52                   	push   %edx
    233e:	00 00                	add    %al,(%eax)
    2340:	00 07                	add    %al,(%edi)
    2342:	82                   	(bad)  
    2343:	00 00                	add    %al,(%eax)
    2345:	00 03                	add    %al,(%ebx)
    2347:	6a 00                	push   $0x0
    2349:	00 00                	add    %al,(%eax)
    234b:	02 57 40             	add    0x40(%edi),%dl
    234e:	00 00                	add    %al,(%eax)
    2350:	00 03                	add    %al,(%ebx)
    2352:	9e                   	sahf   
    2353:	08 00                	or     %al,(%eax)
    2355:	00 02                	add    %al,(%edx)
    2357:	5c                   	pop    %esp
    2358:	52                   	push   %edx
    2359:	00 00                	add    %al,(%eax)
    235b:	00 02                	add    %al,(%edx)
    235d:	04 05                	add    $0x5,%al
    235f:	af                   	scas   %es:(%edi),%eax
    2360:	00 00                	add    %al,(%eax)
    2362:	00 08                	add    %cl,(%eax)
    2364:	7d 00                	jge    2366 <_scga-0xb5c9a>
    2366:	00 00                	add    %al,(%eax)
    2368:	bf 00 00 00 09       	mov    $0x9000000,%edi
    236d:	c4 00                	les    (%eax),%eax
    236f:	00 00                	add    %al,(%eax)
    2371:	00 00                	add    %al,(%eax)
    2373:	07                   	pop    %es
    2374:	af                   	scas   %es:(%edi),%eax
    2375:	00 00                	add    %al,(%eax)
    2377:	00 02                	add    %al,(%edx)
    2379:	04 07                	add    $0x7,%al
    237b:	24 00                	and    $0x0,%al
    237d:	00 00                	add    %al,(%eax)
    237f:	0a 94 00 00 00 03 56 	or     0x56030000(%eax,%eax,1),%dl
    2386:	bf 00 00 00 02       	mov    $0x2000000,%edi
    238b:	01 06                	add    %eax,(%esi)
    238d:	da 00                	fiaddl (%eax)
    238f:	00 00                	add    %al,(%eax)
    2391:	08 8d 00 00 00 e8    	or     %cl,-0x18000000(%ebp)
    2397:	00 00                	add    %al,(%eax)
    2399:	00 0b                	add    %cl,(%ebx)
    239b:	00 07                	add    %al,(%edi)
    239d:	dd 00                	fldl   (%eax)
    239f:	00 00                	add    %al,(%eax)
    23a1:	0a 59 00             	or     0x0(%ecx),%bl
    23a4:	00 00                	add    %al,(%eax)
    23a6:	04 65                	add    $0x65,%al
    23a8:	e8 00 00 00 0a       	call   a0023ad <gdt+0x9e0034d>
    23ad:	57                   	push   %edi
    23ae:	02 00                	add    (%eax),%al
    23b0:	00 04 66             	add    %al,(%esi,%eiz,2)
    23b3:	e8 00 00 00 08       	call   80023b8 <gdt+0x7e00358>
    23b8:	82                   	(bad)  
    23b9:	00 00                	add    %al,(%eax)
    23bb:	00 0e                	add    %cl,(%esi)
    23bd:	01 00                	add    %eax,(%eax)
    23bf:	00 0b                	add    %cl,(%ebx)
    23c1:	00 0a                	add    %cl,(%edx)
    23c3:	40                   	inc    %eax
    23c4:	02 00                	add    (%eax),%al
    23c6:	00 04 70             	add    %al,(%eax,%esi,2)
    23c9:	03 01                	add    (%ecx),%eax
    23cb:	00 00                	add    %al,(%eax)
    23cd:	08 92 00 00 00 24    	or     %dl,0x24000000(%edx)
    23d3:	01 00                	add    %eax,(%eax)
    23d5:	00 0b                	add    %cl,(%ebx)
    23d7:	00 0a                	add    %cl,(%edx)
    23d9:	6b 02 00             	imul   $0x0,(%edx),%eax
    23dc:	00 04 71             	add    %al,(%ecx,%esi,2)
    23df:	19 01                	sbb    %eax,(%ecx)
    23e1:	00 00                	add    %al,(%eax)
    23e3:	0a c2                	or     %dl,%al
    23e5:	00 00                	add    %al,(%eax)
    23e7:	00 04 72             	add    %al,(%edx,%esi,2)
    23ea:	82                   	(bad)  
    23eb:	00 00                	add    %al,(%eax)
    23ed:	00 0a                	add    %cl,(%edx)
    23ef:	19 00                	sbb    %eax,(%eax)
    23f1:	00 00                	add    %al,(%eax)
    23f3:	04 77                	add    $0x77,%al
    23f5:	92                   	xchg   %eax,%edx
    23f6:	00 00                	add    %al,(%eax)
    23f8:	00 0a                	add    %cl,(%edx)
    23fa:	4b                   	dec    %ebx
    23fb:	02 00                	add    (%eax),%al
    23fd:	00 04 7a             	add    %al,(%edx,%edi,2)
    2400:	92                   	xchg   %eax,%edx
    2401:	00 00                	add    %al,(%eax)
    2403:	00 0a                	add    %cl,(%edx)
    2405:	0c 01                	or     $0x1,%al
    2407:	00 00                	add    %al,(%eax)
    2409:	05 43 92 00 00       	add    $0x9243,%eax
    240e:	00 0a                	add    %cl,(%edx)
    2410:	7f 00                	jg     2412 <_scga-0xb5bee>
    2412:	00 00                	add    %al,(%eax)
    2414:	06                   	push   %es
    2415:	3f                   	aas    
    2416:	82                   	(bad)  
    2417:	00 00                	add    %al,(%eax)
    2419:	00 0a                	add    %cl,(%edx)
    241b:	39 01                	cmp    %eax,(%ecx)
    241d:	00 00                	add    %al,(%eax)
    241f:	07                   	pop    %es
    2420:	8a 82 00 00 00 08    	mov    0x8000000(%edx),%al
    2426:	20 00                	and    %al,(%eax)
    2428:	00 00                	add    %al,(%eax)
    242a:	7c 01                	jl     242d <_scga-0xb5bd3>
    242c:	00 00                	add    %al,(%eax)
    242e:	0b 00                	or     (%eax),%eax
    2430:	0a 71 00             	or     0x0(%ecx),%dh
    2433:	00 00                	add    %al,(%eax)
    2435:	08 97 71 01 00 00    	or     %dl,0x171(%edi)
    243b:	08 9d 00 00 00 98    	or     %bl,-0x68000000(%ebp)
    2441:	01 00                	add    %eax,(%eax)
    2443:	00 0c c4             	add    %cl,(%esp,%eax,8)
    2446:	00 00                	add    %al,(%eax)
    2448:	00 ff                	add    %bh,%bh
    244a:	03 00                	add    (%eax),%eax
    244c:	0a 8d 08 00 00 09    	or     0x9000008(%ebp),%cl
    2452:	40                   	inc    %eax
    2453:	87 01                	xchg   %eax,(%ecx)
    2455:	00 00                	add    %al,(%eax)
    2457:	0d 5b 01 00 00       	or     $0x15b,%eax
    245c:	0a 34 05 03 14 20 20 	or     0x20201403(,%eax,1),%dh
    2463:	00 0d 50 01 00 00    	add    %cl,0x150
    2469:	0a 39                	or     (%ecx),%bh
    246b:	05 03 18 20 20       	add    $0x20201803,%eax
	...

Disassembly of section .debug_abbrev:

00000000 <.debug_abbrev>:
   0:	01 11                	add    %edx,(%ecx)
   2:	01 25 0e 13 0b 03    	add    %esp,0x30b130e
   8:	0e                   	push   %cs
   9:	1b 0e                	sbb    (%esi),%ecx
   b:	55                   	push   %ebp
   c:	17                   	pop    %ss
   d:	11 01                	adc    %eax,(%ecx)
   f:	10 17                	adc    %dl,(%edi)
  11:	00 00                	add    %al,(%eax)
  13:	02 24 00             	add    (%eax,%eax,1),%ah
  16:	0b 0b                	or     (%ebx),%ecx
  18:	3e 0b 03             	or     %ds:(%ebx),%eax
  1b:	0e                   	push   %cs
  1c:	00 00                	add    %al,(%eax)
  1e:	03 16                	add    (%esi),%edx
  20:	00 03                	add    %al,(%ebx)
  22:	0e                   	push   %cs
  23:	3a 0b                	cmp    (%ebx),%cl
  25:	3b 0b                	cmp    (%ebx),%ecx
  27:	49                   	dec    %ecx
  28:	13 00                	adc    (%eax),%eax
  2a:	00 04 35 00 49 13 00 	add    %al,0x134900(,%esi,1)
  31:	00 05 24 00 0b 0b    	add    %al,0xb0b0024
  37:	3e 0b 03             	or     %ds:(%ebx),%eax
  3a:	08 00                	or     %al,(%eax)
  3c:	00 06                	add    %al,(%esi)
  3e:	0f 00 0b             	str    (%ebx)
  41:	0b 49 13             	or     0x13(%ecx),%ecx
  44:	00 00                	add    %al,(%eax)
  46:	07                   	pop    %es
  47:	15 00 27 19 00       	adc    $0x192700,%eax
  4c:	00 08                	add    %cl,(%eax)
  4e:	26 00 49 13          	add    %cl,%es:0x13(%ecx)
  52:	00 00                	add    %al,(%eax)
  54:	09 01                	or     %eax,(%ecx)
  56:	01 49 13             	add    %ecx,0x13(%ecx)
  59:	01 13                	add    %edx,(%ebx)
  5b:	00 00                	add    %al,(%eax)
  5d:	0a 21                	or     (%ecx),%ah
  5f:	00 49 13             	add    %cl,0x13(%ecx)
  62:	2f                   	das    
  63:	0b 00                	or     (%eax),%eax
  65:	00 0b                	add    %cl,(%ebx)
  67:	34 00                	xor    $0x0,%al
  69:	03 0e                	add    (%esi),%ecx
  6b:	3a 0b                	cmp    (%ebx),%cl
  6d:	3b 0b                	cmp    (%ebx),%ecx
  6f:	49                   	dec    %ecx
  70:	13 3f                	adc    (%edi),%edi
  72:	19 3c 19             	sbb    %edi,(%ecx,%ebx,1)
  75:	00 00                	add    %al,(%eax)
  77:	0c 21                	or     $0x21,%al
  79:	00 00                	add    %al,(%eax)
  7b:	00 0d 04 01 03 0e    	add    %cl,0xe030104
  81:	0b 0b                	or     (%ebx),%ecx
  83:	49                   	dec    %ecx
  84:	13 3a                	adc    (%edx),%edi
  86:	0b 3b                	or     (%ebx),%edi
  88:	0b 01                	or     (%ecx),%eax
  8a:	13 00                	adc    (%eax),%eax
  8c:	00 0e                	add    %cl,(%esi)
  8e:	28 00                	sub    %al,(%eax)
  90:	03 0e                	add    (%esi),%ecx
  92:	1c 0b                	sbb    $0xb,%al
  94:	00 00                	add    %al,(%eax)
  96:	0f 34                	sysenter 
  98:	00 47 13             	add    %al,0x13(%edi)
  9b:	3a 0b                	cmp    (%ebx),%cl
  9d:	3b 0b                	cmp    (%ebx),%ecx
  9f:	02 18                	add    (%eax),%bl
  a1:	00 00                	add    %al,(%eax)
  a3:	10 34 00             	adc    %dh,(%eax,%eax,1)
  a6:	03 0e                	add    (%esi),%ecx
  a8:	3a 0b                	cmp    (%ebx),%cl
  aa:	3b 0b                	cmp    (%ebx),%ecx
  ac:	49                   	dec    %ecx
  ad:	13 3f                	adc    (%edi),%edi
  af:	19 02                	sbb    %eax,(%edx)
  b1:	18 00                	sbb    %al,(%eax)
  b3:	00 11                	add    %dl,(%ecx)
  b5:	2e 01 3f             	add    %edi,%cs:(%edi)
  b8:	19 03                	sbb    %eax,(%ebx)
  ba:	0e                   	push   %cs
  bb:	3a 0b                	cmp    (%ebx),%cl
  bd:	3b 0b                	cmp    (%ebx),%ecx
  bf:	27                   	daa    
  c0:	19 49 13             	sbb    %ecx,0x13(%ecx)
  c3:	11 01                	adc    %eax,(%ecx)
  c5:	12 06                	adc    (%esi),%al
  c7:	40                   	inc    %eax
  c8:	18 97 42 19 01 13    	sbb    %dl,0x13011942(%edi)
  ce:	00 00                	add    %al,(%eax)
  d0:	12 89 82 01 00 11    	adc    0x11000182(%ecx),%cl
  d6:	01 31                	add    %esi,(%ecx)
  d8:	13 00                	adc    (%eax),%eax
  da:	00 13                	add    %dl,(%ebx)
  dc:	2e 00 3f             	add    %bh,%cs:(%edi)
  df:	19 03                	sbb    %eax,(%ebx)
  e1:	0e                   	push   %cs
  e2:	3a 0b                	cmp    (%ebx),%cl
  e4:	3b 0b                	cmp    (%ebx),%ecx
  e6:	27                   	daa    
  e7:	19 11                	sbb    %edx,(%ecx)
  e9:	01 12                	add    %edx,(%edx)
  eb:	06                   	push   %es
  ec:	40                   	inc    %eax
  ed:	18 97 42 19 00 00    	sbb    %dl,0x1942(%edi)
  f3:	14 2e                	adc    $0x2e,%al
  f5:	00 3f                	add    %bh,(%edi)
  f7:	19 3c 19             	sbb    %edi,(%ecx,%ebx,1)
  fa:	6e                   	outsb  %ds:(%esi),(%dx)
  fb:	0e                   	push   %cs
  fc:	03 0e                	add    (%esi),%ecx
  fe:	3a 0b                	cmp    (%ebx),%cl
 100:	3b 0b                	cmp    (%ebx),%ecx
 102:	00 00                	add    %al,(%eax)
 104:	00 01                	add    %al,(%ecx)
 106:	11 01                	adc    %eax,(%ecx)
 108:	25 0e 13 0b 03       	and    $0x30b130e,%eax
 10d:	0e                   	push   %cs
 10e:	1b 0e                	sbb    (%esi),%ecx
 110:	10 17                	adc    %dl,(%edi)
 112:	00 00                	add    %al,(%eax)
 114:	02 24 00             	add    (%eax,%eax,1),%ah
 117:	0b 0b                	or     (%ebx),%ecx
 119:	3e 0b 03             	or     %ds:(%ebx),%eax
 11c:	0e                   	push   %cs
 11d:	00 00                	add    %al,(%eax)
 11f:	03 16                	add    (%esi),%edx
 121:	00 03                	add    %al,(%ebx)
 123:	0e                   	push   %cs
 124:	3a 0b                	cmp    (%ebx),%cl
 126:	3b 0b                	cmp    (%ebx),%ecx
 128:	49                   	dec    %ecx
 129:	13 00                	adc    (%eax),%eax
 12b:	00 04 24             	add    %al,(%esp)
 12e:	00 0b                	add    %cl,(%ebx)
 130:	0b 3e                	or     (%esi),%edi
 132:	0b 03                	or     (%ebx),%eax
 134:	08 00                	or     %al,(%eax)
 136:	00 05 0f 00 0b 0b    	add    %al,0xb0b000f
 13c:	49                   	dec    %ecx
 13d:	13 00                	adc    (%eax),%eax
 13f:	00 06                	add    %al,(%esi)
 141:	15 00 27 19 00       	adc    $0x192700,%eax
 146:	00 07                	add    %al,(%edi)
 148:	26 00 49 13          	add    %cl,%es:0x13(%ecx)
 14c:	00 00                	add    %al,(%eax)
 14e:	08 01                	or     %al,(%ecx)
 150:	01 49 13             	add    %ecx,0x13(%ecx)
 153:	01 13                	add    %edx,(%ebx)
 155:	00 00                	add    %al,(%eax)
 157:	09 21                	or     %esp,(%ecx)
 159:	00 49 13             	add    %cl,0x13(%ecx)
 15c:	2f                   	das    
 15d:	0b 00                	or     (%eax),%eax
 15f:	00 0a                	add    %cl,(%edx)
 161:	34 00                	xor    $0x0,%al
 163:	03 0e                	add    (%esi),%ecx
 165:	3a 0b                	cmp    (%ebx),%cl
 167:	3b 0b                	cmp    (%ebx),%ecx
 169:	49                   	dec    %ecx
 16a:	13 3f                	adc    (%edi),%edi
 16c:	19 3c 19             	sbb    %edi,(%ecx,%ebx,1)
 16f:	00 00                	add    %al,(%eax)
 171:	0b 21                	or     (%ecx),%esp
 173:	00 00                	add    %al,(%eax)
 175:	00 0c 34             	add    %cl,(%esp,%esi,1)
 178:	00 47 13             	add    %al,0x13(%edi)
 17b:	3a 0b                	cmp    (%ebx),%cl
 17d:	3b 0b                	cmp    (%ebx),%ecx
 17f:	02 18                	add    (%eax),%bl
 181:	00 00                	add    %al,(%eax)
 183:	00 01                	add    %al,(%ecx)
 185:	11 00                	adc    %eax,(%eax)
 187:	10 06                	adc    %al,(%esi)
 189:	11 01                	adc    %eax,(%ecx)
 18b:	12 01                	adc    (%ecx),%al
 18d:	03 08                	add    (%eax),%ecx
 18f:	1b 08                	sbb    (%eax),%ecx
 191:	25 08 13 05 00       	and    $0x51308,%eax
 196:	00 00                	add    %al,(%eax)
 198:	01 11                	add    %edx,(%ecx)
 19a:	01 25 0e 13 0b 03    	add    %esp,0x30b130e
 1a0:	0e                   	push   %cs
 1a1:	11 01                	adc    %eax,(%ecx)
 1a3:	12 06                	adc    (%esi),%al
 1a5:	10 17                	adc    %dl,(%edi)
 1a7:	00 00                	add    %al,(%eax)
 1a9:	02 16                	add    (%esi),%dl
 1ab:	00 03                	add    %al,(%ebx)
 1ad:	0e                   	push   %cs
 1ae:	3a 0b                	cmp    (%ebx),%cl
 1b0:	3b 0b                	cmp    (%ebx),%ecx
 1b2:	49                   	dec    %ecx
 1b3:	13 00                	adc    (%eax),%eax
 1b5:	00 03                	add    %al,(%ebx)
 1b7:	0f 00 0b             	str    (%ebx)
 1ba:	0b 03                	or     (%ebx),%eax
 1bc:	0e                   	push   %cs
 1bd:	49                   	dec    %ecx
 1be:	13 00                	adc    (%eax),%eax
 1c0:	00 04 24             	add    %al,(%esp)
 1c3:	00 0b                	add    %cl,(%ebx)
 1c5:	0b 3e                	or     (%esi),%edi
 1c7:	0b 03                	or     (%ebx),%eax
 1c9:	0e                   	push   %cs
 1ca:	00 00                	add    %al,(%eax)
 1cc:	05 24 00 0b 0b       	add    $0xb0b0024,%eax
 1d1:	3e 0b 03             	or     %ds:(%ebx),%eax
 1d4:	08 00                	or     %al,(%eax)
 1d6:	00 06                	add    %al,(%esi)
 1d8:	0f 00 0b             	str    (%ebx)
 1db:	0b 49 13             	or     0x13(%ecx),%ecx
 1de:	00 00                	add    %al,(%eax)
 1e0:	07                   	pop    %es
 1e1:	15 00 27 19 00       	adc    $0x192700,%eax
 1e6:	00 08                	add    %cl,(%eax)
 1e8:	26 00 49 13          	add    %cl,%es:0x13(%ecx)
 1ec:	00 00                	add    %al,(%eax)
 1ee:	09 01                	or     %eax,(%ecx)
 1f0:	01 49 13             	add    %ecx,0x13(%ecx)
 1f3:	01 13                	add    %edx,(%ebx)
 1f5:	00 00                	add    %al,(%eax)
 1f7:	0a 21                	or     (%ecx),%ah
 1f9:	00 49 13             	add    %cl,0x13(%ecx)
 1fc:	2f                   	das    
 1fd:	0b 00                	or     (%eax),%eax
 1ff:	00 0b                	add    %cl,(%ebx)
 201:	34 00                	xor    $0x0,%al
 203:	03 0e                	add    (%esi),%ecx
 205:	3a 0b                	cmp    (%ebx),%cl
 207:	3b 0b                	cmp    (%ebx),%ecx
 209:	49                   	dec    %ecx
 20a:	13 3f                	adc    (%edi),%edi
 20c:	19 3c 19             	sbb    %edi,(%ecx,%ebx,1)
 20f:	00 00                	add    %al,(%eax)
 211:	0c 21                	or     $0x21,%al
 213:	00 00                	add    %al,(%eax)
 215:	00 0d 34 00 03 08    	add    %cl,0x8030034
 21b:	3a 0b                	cmp    (%ebx),%cl
 21d:	3b 0b                	cmp    (%ebx),%ecx
 21f:	49                   	dec    %ecx
 220:	13 02                	adc    (%edx),%eax
 222:	18 00                	sbb    %al,(%eax)
 224:	00 0e                	add    %cl,(%esi)
 226:	2e 01 3f             	add    %edi,%cs:(%edi)
 229:	19 03                	sbb    %eax,(%ebx)
 22b:	0e                   	push   %cs
 22c:	3a 0b                	cmp    (%ebx),%cl
 22e:	3b 0b                	cmp    (%ebx),%ecx
 230:	27                   	daa    
 231:	19 11                	sbb    %edx,(%ecx)
 233:	01 12                	add    %edx,(%edx)
 235:	06                   	push   %es
 236:	40                   	inc    %eax
 237:	18 97 42 19 01 13    	sbb    %dl,0x13011942(%edi)
 23d:	00 00                	add    %al,(%eax)
 23f:	0f 05                	syscall 
 241:	00 03                	add    %al,(%ebx)
 243:	08 3a                	or     %bh,(%edx)
 245:	0b 3b                	or     (%ebx),%edi
 247:	0b 49 13             	or     0x13(%ecx),%ecx
 24a:	02 17                	add    (%edi),%dl
 24c:	00 00                	add    %al,(%eax)
 24e:	10 18                	adc    %bl,(%eax)
 250:	00 00                	add    %al,(%eax)
 252:	00 11                	add    %dl,(%ecx)
 254:	34 00                	xor    $0x0,%al
 256:	03 08                	add    (%eax),%ecx
 258:	3a 0b                	cmp    (%ebx),%cl
 25a:	3b 0b                	cmp    (%ebx),%ecx
 25c:	49                   	dec    %ecx
 25d:	13 02                	adc    (%edx),%eax
 25f:	17                   	pop    %ss
 260:	00 00                	add    %al,(%eax)
 262:	12 0a                	adc    (%edx),%cl
 264:	00 03                	add    %al,(%ebx)
 266:	0e                   	push   %cs
 267:	3a 0b                	cmp    (%ebx),%cl
 269:	3b 0b                	cmp    (%ebx),%ecx
 26b:	11 01                	adc    %eax,(%ecx)
 26d:	00 00                	add    %al,(%eax)
 26f:	13 0b                	adc    (%ebx),%ecx
 271:	01 11                	add    %edx,(%ecx)
 273:	01 12                	add    %edx,(%edx)
 275:	06                   	push   %es
 276:	01 13                	add    %edx,(%ebx)
 278:	00 00                	add    %al,(%eax)
 27a:	14 89                	adc    $0x89,%al
 27c:	82                   	(bad)  
 27d:	01 01                	add    %eax,(%ecx)
 27f:	11 01                	adc    %eax,(%ecx)
 281:	31 13                	xor    %edx,(%ebx)
 283:	01 13                	add    %edx,(%ebx)
 285:	00 00                	add    %al,(%eax)
 287:	15 8a 82 01 00       	adc    $0x1828a,%eax
 28c:	02 18                	add    (%eax),%bl
 28e:	91                   	xchg   %eax,%ecx
 28f:	42                   	inc    %edx
 290:	18 00                	sbb    %al,(%eax)
 292:	00 16                	add    %dl,(%esi)
 294:	89 82 01 00 11 01    	mov    %eax,0x1110001(%edx)
 29a:	31 13                	xor    %edx,(%ebx)
 29c:	00 00                	add    %al,(%eax)
 29e:	17                   	pop    %ss
 29f:	2e 01 03             	add    %eax,%cs:(%ebx)
 2a2:	0e                   	push   %cs
 2a3:	3a 0b                	cmp    (%ebx),%cl
 2a5:	3b 0b                	cmp    (%ebx),%ecx
 2a7:	27                   	daa    
 2a8:	19 11                	sbb    %edx,(%ecx)
 2aa:	01 12                	add    %edx,(%edx)
 2ac:	06                   	push   %es
 2ad:	40                   	inc    %eax
 2ae:	18 97 42 19 01 13    	sbb    %dl,0x13011942(%edi)
 2b4:	00 00                	add    %al,(%eax)
 2b6:	18 89 82 01 00 11    	sbb    %cl,0x11000182(%ecx)
 2bc:	01 95 42 19 31 13    	add    %edx,0x13311942(%ebp)
 2c2:	00 00                	add    %al,(%eax)
 2c4:	19 89 82 01 01 11    	sbb    %ecx,0x11010182(%ecx)
 2ca:	01 31                	add    %esi,(%ecx)
 2cc:	13 00                	adc    (%eax),%eax
 2ce:	00 1a                	add    %bl,(%edx)
 2d0:	2e 01 03             	add    %eax,%cs:(%ebx)
 2d3:	08 3a                	or     %bh,(%edx)
 2d5:	0b 3b                	or     (%ebx),%edi
 2d7:	0b 27                	or     (%edi),%esp
 2d9:	19 11                	sbb    %edx,(%ecx)
 2db:	01 12                	add    %edx,(%edx)
 2dd:	06                   	push   %es
 2de:	40                   	inc    %eax
 2df:	18 97 42 19 01 13    	sbb    %dl,0x13011942(%edi)
 2e5:	00 00                	add    %al,(%eax)
 2e7:	1b 05 00 03 08 3a    	sbb    0x3a080300,%eax
 2ed:	0b 3b                	or     (%ebx),%edi
 2ef:	0b 49 13             	or     0x13(%ecx),%ecx
 2f2:	02 18                	add    (%eax),%bl
 2f4:	00 00                	add    %al,(%eax)
 2f6:	1c 2e                	sbb    $0x2e,%al
 2f8:	00 3f                	add    %bh,(%edi)
 2fa:	19 3c 19             	sbb    %edi,(%ecx,%ebx,1)
 2fd:	6e                   	outsb  %ds:(%esi),(%dx)
 2fe:	0e                   	push   %cs
 2ff:	03 0e                	add    (%esi),%ecx
 301:	3a 0b                	cmp    (%ebx),%cl
 303:	3b 0b                	cmp    (%ebx),%ecx
 305:	00 00                	add    %al,(%eax)
 307:	00 01                	add    %al,(%ecx)
 309:	11 01                	adc    %eax,(%ecx)
 30b:	25 0e 13 0b 03       	and    $0x30b130e,%eax
 310:	0e                   	push   %cs
 311:	11 01                	adc    %eax,(%ecx)
 313:	12 06                	adc    (%esi),%al
 315:	10 17                	adc    %dl,(%edi)
 317:	00 00                	add    %al,(%eax)
 319:	02 15 00 27 19 00    	add    0x192700,%dl
 31f:	00 03                	add    %al,(%ebx)
 321:	34 00                	xor    $0x0,%al
 323:	03 0e                	add    (%esi),%ecx
 325:	3a 0b                	cmp    (%ebx),%cl
 327:	3b 0b                	cmp    (%ebx),%ecx
 329:	49                   	dec    %ecx
 32a:	13 3f                	adc    (%edi),%edi
 32c:	19 3c 19             	sbb    %edi,(%ecx,%ebx,1)
 32f:	00 00                	add    %al,(%eax)
 331:	04 0f                	add    $0xf,%al
 333:	00 0b                	add    %cl,(%ebx)
 335:	0b 49 13             	or     0x13(%ecx),%ecx
 338:	00 00                	add    %al,(%eax)
 33a:	05 24 00 0b 0b       	add    $0xb0b0024,%eax
 33f:	3e 0b 03             	or     %ds:(%ebx),%eax
 342:	0e                   	push   %cs
 343:	00 00                	add    %al,(%eax)
 345:	06                   	push   %es
 346:	16                   	push   %ss
 347:	00 03                	add    %al,(%ebx)
 349:	0e                   	push   %cs
 34a:	3a 0b                	cmp    (%ebx),%cl
 34c:	3b 0b                	cmp    (%ebx),%ecx
 34e:	49                   	dec    %ecx
 34f:	13 00                	adc    (%eax),%eax
 351:	00 07                	add    %al,(%edi)
 353:	24 00                	and    $0x0,%al
 355:	0b 0b                	or     (%ebx),%ecx
 357:	3e 0b 03             	or     %ds:(%ebx),%eax
 35a:	08 00                	or     %al,(%eax)
 35c:	00 08                	add    %cl,(%eax)
 35e:	26 00 49 13          	add    %cl,%es:0x13(%ecx)
 362:	00 00                	add    %al,(%eax)
 364:	09 01                	or     %eax,(%ecx)
 366:	01 49 13             	add    %ecx,0x13(%ecx)
 369:	01 13                	add    %edx,(%ebx)
 36b:	00 00                	add    %al,(%eax)
 36d:	0a 21                	or     (%ecx),%ah
 36f:	00 49 13             	add    %cl,0x13(%ecx)
 372:	2f                   	das    
 373:	0b 00                	or     (%eax),%eax
 375:	00 0b                	add    %cl,(%ebx)
 377:	21 00                	and    %eax,(%eax)
 379:	00 00                	add    %al,(%eax)
 37b:	0c 2e                	or     $0x2e,%al
 37d:	01 3f                	add    %edi,(%edi)
 37f:	19 03                	sbb    %eax,(%ebx)
 381:	0e                   	push   %cs
 382:	3a 0b                	cmp    (%ebx),%cl
 384:	3b 0b                	cmp    (%ebx),%ecx
 386:	11 01                	adc    %eax,(%ecx)
 388:	12 06                	adc    (%esi),%al
 38a:	40                   	inc    %eax
 38b:	18 97 42 19 01 13    	sbb    %dl,0x13011942(%edi)
 391:	00 00                	add    %al,(%eax)
 393:	0d 89 82 01 00       	or     $0x18289,%eax
 398:	11 01                	adc    %eax,(%ecx)
 39a:	31 13                	xor    %edx,(%ebx)
 39c:	00 00                	add    %al,(%eax)
 39e:	0e                   	push   %cs
 39f:	2e 01 3f             	add    %edi,%cs:(%edi)
 3a2:	19 03                	sbb    %eax,(%ebx)
 3a4:	0e                   	push   %cs
 3a5:	3a 0b                	cmp    (%ebx),%cl
 3a7:	3b 0b                	cmp    (%ebx),%ecx
 3a9:	27                   	daa    
 3aa:	19 11                	sbb    %edx,(%ecx)
 3ac:	01 12                	add    %edx,(%edx)
 3ae:	06                   	push   %es
 3af:	40                   	inc    %eax
 3b0:	18 96 42 19 01 13    	sbb    %dl,0x13011942(%esi)
 3b6:	00 00                	add    %al,(%eax)
 3b8:	0f 0b                	ud2    
 3ba:	01 11                	add    %edx,(%ecx)
 3bc:	01 12                	add    %edx,(%edx)
 3be:	06                   	push   %es
 3bf:	00 00                	add    %al,(%eax)
 3c1:	10 34 00             	adc    %dh,(%eax,%eax,1)
 3c4:	03 0e                	add    (%esi),%ecx
 3c6:	3a 0b                	cmp    (%ebx),%cl
 3c8:	3b 0b                	cmp    (%ebx),%ecx
 3ca:	49                   	dec    %ecx
 3cb:	13 02                	adc    (%edx),%eax
 3cd:	18 00                	sbb    %al,(%eax)
 3cf:	00 11                	add    %dl,(%ecx)
 3d1:	15 01 01 13 00       	adc    $0x130101,%eax
 3d6:	00 12                	add    %dl,(%edx)
 3d8:	18 00                	sbb    %al,(%eax)
 3da:	00 00                	add    %al,(%eax)
 3dc:	13 35 00 49 13 00    	adc    0x134900,%esi
 3e2:	00 14 2e             	add    %dl,(%esi,%ebp,1)
 3e5:	00 3f                	add    %bh,(%edi)
 3e7:	19 3c 19             	sbb    %edi,(%ecx,%ebx,1)
 3ea:	6e                   	outsb  %ds:(%esi),(%dx)
 3eb:	0e                   	push   %cs
 3ec:	03 0e                	add    (%esi),%ecx
 3ee:	3a 0b                	cmp    (%ebx),%cl
 3f0:	3b 0b                	cmp    (%ebx),%ecx
 3f2:	00 00                	add    %al,(%eax)
 3f4:	00 01                	add    %al,(%ecx)
 3f6:	11 01                	adc    %eax,(%ecx)
 3f8:	25 0e 13 0b 03       	and    $0x30b130e,%eax
 3fd:	0e                   	push   %cs
 3fe:	11 01                	adc    %eax,(%ecx)
 400:	12 06                	adc    (%esi),%al
 402:	10 17                	adc    %dl,(%edi)
 404:	00 00                	add    %al,(%eax)
 406:	02 24 00             	add    (%eax,%eax,1),%ah
 409:	0b 0b                	or     (%ebx),%ecx
 40b:	3e 0b 03             	or     %ds:(%ebx),%eax
 40e:	0e                   	push   %cs
 40f:	00 00                	add    %al,(%eax)
 411:	03 16                	add    (%esi),%edx
 413:	00 03                	add    %al,(%ebx)
 415:	0e                   	push   %cs
 416:	3a 0b                	cmp    (%ebx),%cl
 418:	3b 0b                	cmp    (%ebx),%ecx
 41a:	49                   	dec    %ecx
 41b:	13 00                	adc    (%eax),%eax
 41d:	00 04 24             	add    %al,(%esp)
 420:	00 0b                	add    %cl,(%ebx)
 422:	0b 3e                	or     (%esi),%edi
 424:	0b 03                	or     (%ebx),%eax
 426:	08 00                	or     %al,(%eax)
 428:	00 05 0f 00 0b 0b    	add    %al,0xb0b000f
 42e:	49                   	dec    %ecx
 42f:	13 00                	adc    (%eax),%eax
 431:	00 06                	add    %al,(%esi)
 433:	15 00 27 19 00       	adc    $0x192700,%eax
 438:	00 07                	add    %al,(%edi)
 43a:	26 00 49 13          	add    %cl,%es:0x13(%ecx)
 43e:	00 00                	add    %al,(%eax)
 440:	08 01                	or     %al,(%ecx)
 442:	01 49 13             	add    %ecx,0x13(%ecx)
 445:	01 13                	add    %edx,(%ebx)
 447:	00 00                	add    %al,(%eax)
 449:	09 21                	or     %esp,(%ecx)
 44b:	00 49 13             	add    %cl,0x13(%ecx)
 44e:	2f                   	das    
 44f:	0b 00                	or     (%eax),%eax
 451:	00 0a                	add    %cl,(%edx)
 453:	34 00                	xor    $0x0,%al
 455:	03 0e                	add    (%esi),%ecx
 457:	3a 0b                	cmp    (%ebx),%cl
 459:	3b 0b                	cmp    (%ebx),%ecx
 45b:	49                   	dec    %ecx
 45c:	13 3f                	adc    (%edi),%edi
 45e:	19 3c 19             	sbb    %edi,(%ecx,%ebx,1)
 461:	00 00                	add    %al,(%eax)
 463:	0b 21                	or     (%ecx),%esp
 465:	00 00                	add    %al,(%eax)
 467:	00 0c 04             	add    %cl,(%esp,%eax,1)
 46a:	01 0b                	add    %ecx,(%ebx)
 46c:	0b 49 13             	or     0x13(%ecx),%ecx
 46f:	3a 0b                	cmp    (%ebx),%cl
 471:	3b 0b                	cmp    (%ebx),%ecx
 473:	01 13                	add    %edx,(%ebx)
 475:	00 00                	add    %al,(%eax)
 477:	0d 28 00 03 0e       	or     $0xe030028,%eax
 47c:	1c 0b                	sbb    $0xb,%al
 47e:	00 00                	add    %al,(%eax)
 480:	0e                   	push   %cs
 481:	04 01                	add    $0x1,%al
 483:	03 0e                	add    (%esi),%ecx
 485:	0b 0b                	or     (%ebx),%ecx
 487:	49                   	dec    %ecx
 488:	13 3a                	adc    (%edx),%edi
 48a:	0b 3b                	or     (%ebx),%edi
 48c:	0b 01                	or     (%ecx),%eax
 48e:	13 00                	adc    (%eax),%eax
 490:	00 0f                	add    %cl,(%edi)
 492:	28 00                	sub    %al,(%eax)
 494:	03 0e                	add    (%esi),%ecx
 496:	1c 06                	sbb    $0x6,%al
 498:	00 00                	add    %al,(%eax)
 49a:	10 28                	adc    %ch,(%eax)
 49c:	00 03                	add    %al,(%ebx)
 49e:	08 1c 06             	or     %bl,(%esi,%eax,1)
 4a1:	00 00                	add    %al,(%eax)
 4a3:	11 2e                	adc    %ebp,(%esi)
 4a5:	01 3f                	add    %edi,(%edi)
 4a7:	19 03                	sbb    %eax,(%ebx)
 4a9:	0e                   	push   %cs
 4aa:	3a 0b                	cmp    (%ebx),%cl
 4ac:	3b 0b                	cmp    (%ebx),%ecx
 4ae:	11 01                	adc    %eax,(%ecx)
 4b0:	12 06                	adc    (%esi),%al
 4b2:	40                   	inc    %eax
 4b3:	18 97 42 19 01 13    	sbb    %dl,0x13011942(%edi)
 4b9:	00 00                	add    %al,(%eax)
 4bb:	12 1d 01 31 13 11    	adc    0x11133101,%bl
 4c1:	01 12                	add    %edx,(%edx)
 4c3:	06                   	push   %es
 4c4:	58                   	pop    %eax
 4c5:	0b 59 0b             	or     0xb(%ecx),%ebx
 4c8:	01 13                	add    %edx,(%ebx)
 4ca:	00 00                	add    %al,(%eax)
 4cc:	13 1d 01 31 13 11    	adc    0x11133101,%ebx
 4d2:	01 12                	add    %edx,(%edx)
 4d4:	06                   	push   %es
 4d5:	58                   	pop    %eax
 4d6:	0b 59 0b             	or     0xb(%ecx),%ebx
 4d9:	00 00                	add    %al,(%eax)
 4db:	14 05                	adc    $0x5,%al
 4dd:	00 31                	add    %dh,(%ecx)
 4df:	13 02                	adc    (%edx),%eax
 4e1:	17                   	pop    %ss
 4e2:	00 00                	add    %al,(%eax)
 4e4:	15 0b 01 11 01       	adc    $0x111010b,%eax
 4e9:	12 06                	adc    (%esi),%al
 4eb:	00 00                	add    %al,(%eax)
 4ed:	16                   	push   %ss
 4ee:	34 00                	xor    $0x0,%al
 4f0:	31 13                	xor    %edx,(%ebx)
 4f2:	00 00                	add    %al,(%eax)
 4f4:	17                   	pop    %ss
 4f5:	1d 00 31 13 11       	sbb    $0x11133100,%eax
 4fa:	01 12                	add    %edx,(%edx)
 4fc:	06                   	push   %es
 4fd:	58                   	pop    %eax
 4fe:	0b 59 0b             	or     0xb(%ecx),%ebx
 501:	00 00                	add    %al,(%eax)
 503:	18 34 00             	sbb    %dh,(%eax,%eax,1)
 506:	31 13                	xor    %edx,(%ebx)
 508:	02 17                	add    (%edi),%dl
 50a:	00 00                	add    %al,(%eax)
 50c:	19 89 82 01 00 11    	sbb    %ecx,0x11000182(%ecx)
 512:	01 31                	add    %esi,(%ecx)
 514:	13 00                	adc    (%eax),%eax
 516:	00 1a                	add    %bl,(%edx)
 518:	89 82 01 00 11 01    	mov    %eax,0x1110001(%edx)
 51e:	95                   	xchg   %eax,%ebp
 51f:	42                   	inc    %edx
 520:	19 31                	sbb    %esi,(%ecx)
 522:	13 00                	adc    (%eax),%eax
 524:	00 1b                	add    %bl,(%ebx)
 526:	2e 00 03             	add    %al,%cs:(%ebx)
 529:	0e                   	push   %cs
 52a:	3a 0b                	cmp    (%ebx),%cl
 52c:	3b 0b                	cmp    (%ebx),%ecx
 52e:	27                   	daa    
 52f:	19 20                	sbb    %esp,(%eax)
 531:	0b 00                	or     (%eax),%eax
 533:	00 1c 2e             	add    %bl,(%esi,%ebp,1)
 536:	01 03                	add    %eax,(%ebx)
 538:	0e                   	push   %cs
 539:	3a 0b                	cmp    (%ebx),%cl
 53b:	3b 0b                	cmp    (%ebx),%ecx
 53d:	27                   	daa    
 53e:	19 20                	sbb    %esp,(%eax)
 540:	0b 01                	or     (%ecx),%eax
 542:	13 00                	adc    (%eax),%eax
 544:	00 1d 34 00 03 08    	add    %bl,0x8030034
 54a:	3a 0b                	cmp    (%ebx),%cl
 54c:	3b 0b                	cmp    (%ebx),%ecx
 54e:	49                   	dec    %ecx
 54f:	13 00                	adc    (%eax),%eax
 551:	00 1e                	add    %bl,(%esi)
 553:	2e 01 03             	add    %eax,%cs:(%ebx)
 556:	0e                   	push   %cs
 557:	3a 0b                	cmp    (%ebx),%cl
 559:	3b 0b                	cmp    (%ebx),%ecx
 55b:	27                   	daa    
 55c:	19 49 13             	sbb    %ecx,0x13(%ecx)
 55f:	20 0b                	and    %cl,(%ebx)
 561:	01 13                	add    %edx,(%ebx)
 563:	00 00                	add    %al,(%eax)
 565:	1f                   	pop    %ds
 566:	05 00 03 08 3a       	add    $0x3a080300,%eax
 56b:	0b 3b                	or     (%ebx),%edi
 56d:	0b 49 13             	or     0x13(%ecx),%ecx
 570:	00 00                	add    %al,(%eax)
 572:	20 05 00 03 0e 3a    	and    %al,0x3a0e0300
 578:	0b 3b                	or     (%ebx),%edi
 57a:	0b 49 13             	or     0x13(%ecx),%ecx
 57d:	00 00                	add    %al,(%eax)
 57f:	21 34 00             	and    %esi,(%eax,%eax,1)
 582:	03 0e                	add    (%esi),%ecx
 584:	3a 0b                	cmp    (%ebx),%cl
 586:	3b 0b                	cmp    (%ebx),%ecx
 588:	49                   	dec    %ecx
 589:	13 00                	adc    (%eax),%eax
 58b:	00 22                	add    %ah,(%edx)
 58d:	2e 01 03             	add    %eax,%cs:(%ebx)
 590:	08 3a                	or     %bh,(%edx)
 592:	0b 3b                	or     (%ebx),%edi
 594:	0b 27                	or     (%edi),%esp
 596:	19 49 13             	sbb    %ecx,0x13(%ecx)
 599:	20 0b                	and    %cl,(%ebx)
 59b:	01 13                	add    %edx,(%ebx)
 59d:	00 00                	add    %al,(%eax)
 59f:	23 2e                	and    (%esi),%ebp
 5a1:	00 3f                	add    %bh,(%edi)
 5a3:	19 3c 19             	sbb    %edi,(%ecx,%ebx,1)
 5a6:	6e                   	outsb  %ds:(%esi),(%dx)
 5a7:	0e                   	push   %cs
 5a8:	03 0e                	add    (%esi),%ecx
 5aa:	3a 0b                	cmp    (%ebx),%cl
 5ac:	3b 0b                	cmp    (%ebx),%ecx
 5ae:	00 00                	add    %al,(%eax)
 5b0:	00 01                	add    %al,(%ecx)
 5b2:	11 01                	adc    %eax,(%ecx)
 5b4:	25 0e 13 0b 03       	and    $0x30b130e,%eax
 5b9:	0e                   	push   %cs
 5ba:	11 01                	adc    %eax,(%ecx)
 5bc:	12 06                	adc    (%esi),%al
 5be:	10 17                	adc    %dl,(%edi)
 5c0:	00 00                	add    %al,(%eax)
 5c2:	02 24 00             	add    (%eax,%eax,1),%ah
 5c5:	0b 0b                	or     (%ebx),%ecx
 5c7:	3e 0b 03             	or     %ds:(%ebx),%eax
 5ca:	0e                   	push   %cs
 5cb:	00 00                	add    %al,(%eax)
 5cd:	03 16                	add    (%esi),%edx
 5cf:	00 03                	add    %al,(%ebx)
 5d1:	0e                   	push   %cs
 5d2:	3a 0b                	cmp    (%ebx),%cl
 5d4:	3b 0b                	cmp    (%ebx),%ecx
 5d6:	49                   	dec    %ecx
 5d7:	13 00                	adc    (%eax),%eax
 5d9:	00 04 24             	add    %al,(%esp)
 5dc:	00 0b                	add    %cl,(%ebx)
 5de:	0b 3e                	or     (%esi),%edi
 5e0:	0b 03                	or     (%ebx),%eax
 5e2:	08 00                	or     %al,(%eax)
 5e4:	00 05 0f 00 0b 0b    	add    %al,0xb0b000f
 5ea:	49                   	dec    %ecx
 5eb:	13 00                	adc    (%eax),%eax
 5ed:	00 06                	add    %al,(%esi)
 5ef:	15 00 27 19 00       	adc    $0x192700,%eax
 5f4:	00 07                	add    %al,(%edi)
 5f6:	26 00 49 13          	add    %cl,%es:0x13(%ecx)
 5fa:	00 00                	add    %al,(%eax)
 5fc:	08 01                	or     %al,(%ecx)
 5fe:	01 49 13             	add    %ecx,0x13(%ecx)
 601:	01 13                	add    %edx,(%ebx)
 603:	00 00                	add    %al,(%eax)
 605:	09 21                	or     %esp,(%ecx)
 607:	00 49 13             	add    %cl,0x13(%ecx)
 60a:	2f                   	das    
 60b:	0b 00                	or     (%eax),%eax
 60d:	00 0a                	add    %cl,(%edx)
 60f:	34 00                	xor    $0x0,%al
 611:	03 0e                	add    (%esi),%ecx
 613:	3a 0b                	cmp    (%ebx),%cl
 615:	3b 0b                	cmp    (%ebx),%ecx
 617:	49                   	dec    %ecx
 618:	13 3f                	adc    (%edi),%edi
 61a:	19 3c 19             	sbb    %edi,(%ecx,%ebx,1)
 61d:	00 00                	add    %al,(%eax)
 61f:	0b 21                	or     (%ecx),%esp
 621:	00 00                	add    %al,(%eax)
 623:	00 0c 13             	add    %cl,(%ebx,%edx,1)
 626:	01 03                	add    %eax,(%ebx)
 628:	0e                   	push   %cs
 629:	0b 0b                	or     (%ebx),%ecx
 62b:	3a 0b                	cmp    (%ebx),%cl
 62d:	3b 0b                	cmp    (%ebx),%ecx
 62f:	01 13                	add    %edx,(%ebx)
 631:	00 00                	add    %al,(%eax)
 633:	0d 0d 00 03 0e       	or     $0xe03000d,%eax
 638:	3a 0b                	cmp    (%ebx),%cl
 63a:	3b 0b                	cmp    (%ebx),%ecx
 63c:	49                   	dec    %ecx
 63d:	13 38                	adc    (%eax),%edi
 63f:	0b 00                	or     (%eax),%eax
 641:	00 0e                	add    %cl,(%esi)
 643:	34 00                	xor    $0x0,%al
 645:	03 08                	add    (%eax),%ecx
 647:	3a 0b                	cmp    (%ebx),%cl
 649:	3b 0b                	cmp    (%ebx),%ecx
 64b:	49                   	dec    %ecx
 64c:	13 02                	adc    (%edx),%eax
 64e:	18 00                	sbb    %al,(%eax)
 650:	00 0f                	add    %cl,(%edi)
 652:	2e 01 3f             	add    %edi,%cs:(%edi)
 655:	19 03                	sbb    %eax,(%ebx)
 657:	0e                   	push   %cs
 658:	3a 0b                	cmp    (%ebx),%cl
 65a:	3b 0b                	cmp    (%ebx),%ecx
 65c:	27                   	daa    
 65d:	19 11                	sbb    %edx,(%ecx)
 65f:	01 12                	add    %edx,(%edx)
 661:	06                   	push   %es
 662:	40                   	inc    %eax
 663:	18 97 42 19 01 13    	sbb    %dl,0x13011942(%edi)
 669:	00 00                	add    %al,(%eax)
 66b:	10 1d 01 31 13 52    	adc    %bl,0x52133101
 671:	01 55 17             	add    %edx,0x17(%ebp)
 674:	58                   	pop    %eax
 675:	0b 59 0b             	or     0xb(%ecx),%ebx
 678:	01 13                	add    %edx,(%ebx)
 67a:	00 00                	add    %al,(%eax)
 67c:	11 05 00 31 13 02    	adc    %eax,0x2133100
 682:	17                   	pop    %ss
 683:	00 00                	add    %al,(%eax)
 685:	12 1d 01 31 13 11    	adc    0x11133101,%bl
 68b:	01 12                	add    %edx,(%edx)
 68d:	06                   	push   %es
 68e:	58                   	pop    %eax
 68f:	0b 59 0b             	or     0xb(%ecx),%ebx
 692:	01 13                	add    %edx,(%ebx)
 694:	00 00                	add    %al,(%eax)
 696:	13 1d 01 31 13 11    	adc    0x11133101,%ebx
 69c:	01 12                	add    %edx,(%edx)
 69e:	06                   	push   %es
 69f:	58                   	pop    %eax
 6a0:	0b 59 0b             	or     0xb(%ecx),%ebx
 6a3:	00 00                	add    %al,(%eax)
 6a5:	14 2e                	adc    $0x2e,%al
 6a7:	01 03                	add    %eax,(%ebx)
 6a9:	0e                   	push   %cs
 6aa:	3a 0b                	cmp    (%ebx),%cl
 6ac:	3b 0b                	cmp    (%ebx),%ecx
 6ae:	27                   	daa    
 6af:	19 20                	sbb    %esp,(%eax)
 6b1:	0b 00                	or     (%eax),%eax
 6b3:	00 15 05 00 03 08    	add    %dl,0x8030005
 6b9:	3a 0b                	cmp    (%ebx),%cl
 6bb:	3b 0b                	cmp    (%ebx),%ecx
 6bd:	49                   	dec    %ecx
 6be:	13 00                	adc    (%eax),%eax
 6c0:	00 16                	add    %dl,(%esi)
 6c2:	05 00 03 0e 3a       	add    $0x3a0e0300,%eax
 6c7:	0b 3b                	or     (%ebx),%edi
 6c9:	0b 49 13             	or     0x13(%ecx),%ecx
 6cc:	00 00                	add    %al,(%eax)
 6ce:	00 01                	add    %al,(%ecx)
 6d0:	11 01                	adc    %eax,(%ecx)
 6d2:	25 0e 13 0b 03       	and    $0x30b130e,%eax
 6d7:	0e                   	push   %cs
 6d8:	11 01                	adc    %eax,(%ecx)
 6da:	12 06                	adc    (%esi),%al
 6dc:	10 17                	adc    %dl,(%edi)
 6de:	00 00                	add    %al,(%eax)
 6e0:	02 24 00             	add    (%eax,%eax,1),%ah
 6e3:	0b 0b                	or     (%ebx),%ecx
 6e5:	3e 0b 03             	or     %ds:(%ebx),%eax
 6e8:	0e                   	push   %cs
 6e9:	00 00                	add    %al,(%eax)
 6eb:	03 16                	add    (%esi),%edx
 6ed:	00 03                	add    %al,(%ebx)
 6ef:	0e                   	push   %cs
 6f0:	3a 0b                	cmp    (%ebx),%cl
 6f2:	3b 0b                	cmp    (%ebx),%ecx
 6f4:	49                   	dec    %ecx
 6f5:	13 00                	adc    (%eax),%eax
 6f7:	00 04 24             	add    %al,(%esp)
 6fa:	00 0b                	add    %cl,(%ebx)
 6fc:	0b 3e                	or     (%esi),%edi
 6fe:	0b 03                	or     (%ebx),%eax
 700:	08 00                	or     %al,(%eax)
 702:	00 05 0f 00 0b 0b    	add    %al,0xb0b000f
 708:	49                   	dec    %ecx
 709:	13 00                	adc    (%eax),%eax
 70b:	00 06                	add    %al,(%esi)
 70d:	15 00 27 19 00       	adc    $0x192700,%eax
 712:	00 07                	add    %al,(%edi)
 714:	26 00 49 13          	add    %cl,%es:0x13(%ecx)
 718:	00 00                	add    %al,(%eax)
 71a:	08 01                	or     %al,(%ecx)
 71c:	01 49 13             	add    %ecx,0x13(%ecx)
 71f:	01 13                	add    %edx,(%ebx)
 721:	00 00                	add    %al,(%eax)
 723:	09 21                	or     %esp,(%ecx)
 725:	00 49 13             	add    %cl,0x13(%ecx)
 728:	2f                   	das    
 729:	0b 00                	or     (%eax),%eax
 72b:	00 0a                	add    %cl,(%edx)
 72d:	34 00                	xor    $0x0,%al
 72f:	03 0e                	add    (%esi),%ecx
 731:	3a 0b                	cmp    (%ebx),%cl
 733:	3b 0b                	cmp    (%ebx),%ecx
 735:	49                   	dec    %ecx
 736:	13 3f                	adc    (%edi),%edi
 738:	19 3c 19             	sbb    %edi,(%ecx,%ebx,1)
 73b:	00 00                	add    %al,(%eax)
 73d:	0b 21                	or     (%ecx),%esp
 73f:	00 00                	add    %al,(%eax)
 741:	00 0c 04             	add    %cl,(%esp,%eax,1)
 744:	01 03                	add    %eax,(%ebx)
 746:	0e                   	push   %cs
 747:	0b 0b                	or     (%ebx),%ecx
 749:	49                   	dec    %ecx
 74a:	13 3a                	adc    (%edx),%edi
 74c:	0b 3b                	or     (%ebx),%edi
 74e:	0b 01                	or     (%ecx),%eax
 750:	13 00                	adc    (%eax),%eax
 752:	00 0d 28 00 03 0e    	add    %cl,0xe030028
 758:	1c 0b                	sbb    $0xb,%al
 75a:	00 00                	add    %al,(%eax)
 75c:	0e                   	push   %cs
 75d:	28 00                	sub    %al,(%eax)
 75f:	03 08                	add    (%eax),%ecx
 761:	1c 0b                	sbb    $0xb,%al
 763:	00 00                	add    %al,(%eax)
 765:	0f 28 00             	movaps (%eax),%xmm0
 768:	03 0e                	add    (%esi),%ecx
 76a:	1c 06                	sbb    $0x6,%al
 76c:	00 00                	add    %al,(%eax)
 76e:	10 2e                	adc    %ch,(%esi)
 770:	01 3f                	add    %edi,(%edi)
 772:	19 03                	sbb    %eax,(%ebx)
 774:	0e                   	push   %cs
 775:	3a 0b                	cmp    (%ebx),%cl
 777:	3b 0b                	cmp    (%ebx),%ecx
 779:	27                   	daa    
 77a:	19 20                	sbb    %esp,(%eax)
 77c:	0b 01                	or     (%ecx),%eax
 77e:	13 00                	adc    (%eax),%eax
 780:	00 11                	add    %dl,(%ecx)
 782:	05 00 03 08 3a       	add    $0x3a080300,%eax
 787:	0b 3b                	or     (%ebx),%edi
 789:	0b 49 13             	or     0x13(%ecx),%ecx
 78c:	00 00                	add    %al,(%eax)
 78e:	12 05 00 03 0e 3a    	adc    0x3a0e0300,%al
 794:	0b 3b                	or     (%ebx),%edi
 796:	0b 49 13             	or     0x13(%ecx),%ecx
 799:	00 00                	add    %al,(%eax)
 79b:	13 34 00             	adc    (%eax,%eax,1),%esi
 79e:	03 0e                	add    (%esi),%ecx
 7a0:	3a 0b                	cmp    (%ebx),%cl
 7a2:	3b 0b                	cmp    (%ebx),%ecx
 7a4:	49                   	dec    %ecx
 7a5:	13 00                	adc    (%eax),%eax
 7a7:	00 14 2e             	add    %dl,(%esi,%ebp,1)
 7aa:	01 3f                	add    %edi,(%edi)
 7ac:	19 03                	sbb    %eax,(%ebx)
 7ae:	0e                   	push   %cs
 7af:	3a 0b                	cmp    (%ebx),%cl
 7b1:	3b 0b                	cmp    (%ebx),%ecx
 7b3:	27                   	daa    
 7b4:	19 11                	sbb    %edx,(%ecx)
 7b6:	01 12                	add    %edx,(%edx)
 7b8:	06                   	push   %es
 7b9:	40                   	inc    %eax
 7ba:	18 97 42 19 01 13    	sbb    %dl,0x13011942(%edi)
 7c0:	00 00                	add    %al,(%eax)
 7c2:	15 05 00 03 08       	adc    $0x8030005,%eax
 7c7:	3a 0b                	cmp    (%ebx),%cl
 7c9:	3b 0b                	cmp    (%ebx),%ecx
 7cb:	49                   	dec    %ecx
 7cc:	13 02                	adc    (%edx),%eax
 7ce:	17                   	pop    %ss
 7cf:	00 00                	add    %al,(%eax)
 7d1:	16                   	push   %ss
 7d2:	05 00 03 0e 3a       	add    $0x3a0e0300,%eax
 7d7:	0b 3b                	or     (%ebx),%edi
 7d9:	0b 49 13             	or     0x13(%ecx),%ecx
 7dc:	02 17                	add    (%edi),%dl
 7de:	00 00                	add    %al,(%eax)
 7e0:	17                   	pop    %ss
 7e1:	1d 01 31 13 11       	sbb    $0x11133101,%eax
 7e6:	01 12                	add    %edx,(%edx)
 7e8:	06                   	push   %es
 7e9:	58                   	pop    %eax
 7ea:	0b 59 0b             	or     0xb(%ecx),%ebx
 7ed:	00 00                	add    %al,(%eax)
 7ef:	18 05 00 31 13 02    	sbb    %al,0x2133100
 7f5:	17                   	pop    %ss
 7f6:	00 00                	add    %al,(%eax)
 7f8:	19 0b                	sbb    %ecx,(%ebx)
 7fa:	01 11                	add    %edx,(%ecx)
 7fc:	01 12                	add    %edx,(%edx)
 7fe:	06                   	push   %es
 7ff:	00 00                	add    %al,(%eax)
 801:	1a 34 00             	sbb    (%eax,%eax,1),%dh
 804:	31 13                	xor    %edx,(%ebx)
 806:	02 17                	add    (%edi),%dl
 808:	00 00                	add    %al,(%eax)
 80a:	1b 2e                	sbb    (%esi),%ebp
 80c:	00 3f                	add    %bh,(%edi)
 80e:	19 03                	sbb    %eax,(%ebx)
 810:	0e                   	push   %cs
 811:	3a 0b                	cmp    (%ebx),%cl
 813:	3b 0b                	cmp    (%ebx),%ecx
 815:	27                   	daa    
 816:	19 11                	sbb    %edx,(%ecx)
 818:	01 12                	add    %edx,(%edx)
 81a:	06                   	push   %es
 81b:	40                   	inc    %eax
 81c:	18 97 42 19 00 00    	sbb    %dl,0x1942(%edi)
 822:	1c 2e                	sbb    $0x2e,%al
 824:	01 03                	add    %eax,(%ebx)
 826:	0e                   	push   %cs
 827:	3a 0b                	cmp    (%ebx),%cl
 829:	3b 0b                	cmp    (%ebx),%ecx
 82b:	27                   	daa    
 82c:	19 20                	sbb    %esp,(%eax)
 82e:	0b 01                	or     (%ecx),%eax
 830:	13 00                	adc    (%eax),%eax
 832:	00 1d 2e 01 31 13    	add    %bl,0x1331012e
 838:	11 01                	adc    %eax,(%ecx)
 83a:	12 06                	adc    (%esi),%al
 83c:	40                   	inc    %eax
 83d:	18 97 42 19 00 00    	sbb    %dl,0x1942(%edi)
 843:	1e                   	push   %ds
 844:	05 00 31 13 02       	add    $0x2133100,%eax
 849:	18 00                	sbb    %al,(%eax)
 84b:	00 00                	add    %al,(%eax)
 84d:	01 11                	add    %edx,(%ecx)
 84f:	01 25 0e 13 0b 03    	add    %esp,0x30b130e
 855:	0e                   	push   %cs
 856:	11 01                	adc    %eax,(%ecx)
 858:	12 06                	adc    (%esi),%al
 85a:	10 17                	adc    %dl,(%edi)
 85c:	00 00                	add    %al,(%eax)
 85e:	02 24 00             	add    (%eax,%eax,1),%ah
 861:	0b 0b                	or     (%ebx),%ecx
 863:	3e 0b 03             	or     %ds:(%ebx),%eax
 866:	0e                   	push   %cs
 867:	00 00                	add    %al,(%eax)
 869:	03 16                	add    (%esi),%edx
 86b:	00 03                	add    %al,(%ebx)
 86d:	0e                   	push   %cs
 86e:	3a 0b                	cmp    (%ebx),%cl
 870:	3b 0b                	cmp    (%ebx),%ecx
 872:	49                   	dec    %ecx
 873:	13 00                	adc    (%eax),%eax
 875:	00 04 24             	add    %al,(%esp)
 878:	00 0b                	add    %cl,(%ebx)
 87a:	0b 3e                	or     (%esi),%edi
 87c:	0b 03                	or     (%ebx),%eax
 87e:	08 00                	or     %al,(%eax)
 880:	00 05 0f 00 0b 0b    	add    %al,0xb0b000f
 886:	49                   	dec    %ecx
 887:	13 00                	adc    (%eax),%eax
 889:	00 06                	add    %al,(%esi)
 88b:	15 00 27 19 00       	adc    $0x192700,%eax
 890:	00 07                	add    %al,(%edi)
 892:	26 00 49 13          	add    %cl,%es:0x13(%ecx)
 896:	00 00                	add    %al,(%eax)
 898:	08 01                	or     %al,(%ecx)
 89a:	01 49 13             	add    %ecx,0x13(%ecx)
 89d:	01 13                	add    %edx,(%ebx)
 89f:	00 00                	add    %al,(%eax)
 8a1:	09 21                	or     %esp,(%ecx)
 8a3:	00 49 13             	add    %cl,0x13(%ecx)
 8a6:	2f                   	das    
 8a7:	0b 00                	or     (%eax),%eax
 8a9:	00 0a                	add    %cl,(%edx)
 8ab:	34 00                	xor    $0x0,%al
 8ad:	03 0e                	add    (%esi),%ecx
 8af:	3a 0b                	cmp    (%ebx),%cl
 8b1:	3b 0b                	cmp    (%ebx),%ecx
 8b3:	49                   	dec    %ecx
 8b4:	13 3f                	adc    (%edi),%edi
 8b6:	19 3c 19             	sbb    %edi,(%ecx,%ebx,1)
 8b9:	00 00                	add    %al,(%eax)
 8bb:	0b 21                	or     (%ecx),%esp
 8bd:	00 00                	add    %al,(%eax)
 8bf:	00 0c 2e             	add    %cl,(%esi,%ebp,1)
 8c2:	01 3f                	add    %edi,(%edi)
 8c4:	19 03                	sbb    %eax,(%ebx)
 8c6:	0e                   	push   %cs
 8c7:	3a 0b                	cmp    (%ebx),%cl
 8c9:	3b 0b                	cmp    (%ebx),%ecx
 8cb:	27                   	daa    
 8cc:	19 11                	sbb    %edx,(%ecx)
 8ce:	01 12                	add    %edx,(%edx)
 8d0:	06                   	push   %es
 8d1:	40                   	inc    %eax
 8d2:	18 97 42 19 01 13    	sbb    %dl,0x13011942(%edi)
 8d8:	00 00                	add    %al,(%eax)
 8da:	0d 05 00 03 0e       	or     $0xe030005,%eax
 8df:	3a 0b                	cmp    (%ebx),%cl
 8e1:	3b 0b                	cmp    (%ebx),%ecx
 8e3:	49                   	dec    %ecx
 8e4:	13 02                	adc    (%edx),%eax
 8e6:	17                   	pop    %ss
 8e7:	00 00                	add    %al,(%eax)
 8e9:	0e                   	push   %cs
 8ea:	89 82 01 00 11 01    	mov    %eax,0x1110001(%edx)
 8f0:	31 13                	xor    %edx,(%ebx)
 8f2:	00 00                	add    %al,(%eax)
 8f4:	0f 89 82 01 00 11    	jns    11000a7c <gdt+0x10dfea1c>
 8fa:	01 95 42 19 31 13    	add    %edx,0x13311942(%ebp)
 900:	00 00                	add    %al,(%eax)
 902:	10 2e                	adc    %ch,(%esi)
 904:	01 3f                	add    %edi,(%edi)
 906:	19 03                	sbb    %eax,(%ebx)
 908:	0e                   	push   %cs
 909:	3a 0b                	cmp    (%ebx),%cl
 90b:	3b 0b                	cmp    (%ebx),%ecx
 90d:	27                   	daa    
 90e:	19 49 13             	sbb    %ecx,0x13(%ecx)
 911:	11 01                	adc    %eax,(%ecx)
 913:	12 06                	adc    (%esi),%al
 915:	40                   	inc    %eax
 916:	18 97 42 19 01 13    	sbb    %dl,0x13011942(%edi)
 91c:	00 00                	add    %al,(%eax)
 91e:	11 05 00 03 0e 3a    	adc    %eax,0x3a0e0300
 924:	0b 3b                	or     (%ebx),%edi
 926:	0b 49 13             	or     0x13(%ecx),%ecx
 929:	02 18                	add    (%eax),%bl
 92b:	00 00                	add    %al,(%eax)
 92d:	12 34 00             	adc    (%eax,%eax,1),%dh
 930:	03 0e                	add    (%esi),%ecx
 932:	3a 0b                	cmp    (%ebx),%cl
 934:	3b 0b                	cmp    (%ebx),%ecx
 936:	49                   	dec    %ecx
 937:	13 02                	adc    (%edx),%eax
 939:	17                   	pop    %ss
 93a:	00 00                	add    %al,(%eax)
 93c:	13 1d 01 31 13 11    	adc    0x11133101,%ebx
 942:	01 12                	add    %edx,(%edx)
 944:	06                   	push   %es
 945:	58                   	pop    %eax
 946:	0b 59 0b             	or     0xb(%ecx),%ebx
 949:	01 13                	add    %edx,(%ebx)
 94b:	00 00                	add    %al,(%eax)
 94d:	14 05                	adc    $0x5,%al
 94f:	00 31                	add    %dh,(%ecx)
 951:	13 02                	adc    (%edx),%eax
 953:	17                   	pop    %ss
 954:	00 00                	add    %al,(%eax)
 956:	15 0b 01 11 01       	adc    $0x111010b,%eax
 95b:	12 06                	adc    (%esi),%al
 95d:	00 00                	add    %al,(%eax)
 95f:	16                   	push   %ss
 960:	34 00                	xor    $0x0,%al
 962:	31 13                	xor    %edx,(%ebx)
 964:	00 00                	add    %al,(%eax)
 966:	17                   	pop    %ss
 967:	1d 01 31 13 11       	sbb    $0x11133101,%eax
 96c:	01 12                	add    %edx,(%edx)
 96e:	06                   	push   %es
 96f:	58                   	pop    %eax
 970:	0b 59 0b             	or     0xb(%ecx),%ebx
 973:	00 00                	add    %al,(%eax)
 975:	18 1d 01 31 13 52    	sbb    %bl,0x52133101
 97b:	01 55 17             	add    %edx,0x17(%ebp)
 97e:	58                   	pop    %eax
 97f:	0b 59 0b             	or     0xb(%ecx),%ebx
 982:	01 13                	add    %edx,(%ebx)
 984:	00 00                	add    %al,(%eax)
 986:	19 1d 01 31 13 52    	sbb    %ebx,0x52133101
 98c:	01 55 17             	add    %edx,0x17(%ebp)
 98f:	58                   	pop    %eax
 990:	0b 59 0b             	or     0xb(%ecx),%ebx
 993:	00 00                	add    %al,(%eax)
 995:	1a 2e                	sbb    (%esi),%ch
 997:	01 03                	add    %eax,(%ebx)
 999:	08 3a                	or     %bh,(%edx)
 99b:	0b 3b                	or     (%ebx),%edi
 99d:	0b 27                	or     (%edi),%esp
 99f:	19 49 13             	sbb    %ecx,0x13(%ecx)
 9a2:	20 0b                	and    %cl,(%ebx)
 9a4:	01 13                	add    %edx,(%ebx)
 9a6:	00 00                	add    %al,(%eax)
 9a8:	1b 05 00 03 0e 3a    	sbb    0x3a0e0300,%eax
 9ae:	0b 3b                	or     (%ebx),%edi
 9b0:	0b 49 13             	or     0x13(%ecx),%ecx
 9b3:	00 00                	add    %al,(%eax)
 9b5:	1c 34                	sbb    $0x34,%al
 9b7:	00 03                	add    %al,(%ebx)
 9b9:	08 3a                	or     %bh,(%edx)
 9bb:	0b 3b                	or     (%ebx),%edi
 9bd:	0b 49 13             	or     0x13(%ecx),%ecx
 9c0:	00 00                	add    %al,(%eax)
 9c2:	1d 2e 01 03 0e       	sbb    $0xe03012e,%eax
 9c7:	3a 0b                	cmp    (%ebx),%cl
 9c9:	3b 0b                	cmp    (%ebx),%ecx
 9cb:	27                   	daa    
 9cc:	19 20                	sbb    %esp,(%eax)
 9ce:	0b 00                	or     (%eax),%eax
 9d0:	00 1e                	add    %bl,(%esi)
 9d2:	05 00 03 08 3a       	add    $0x3a080300,%eax
 9d7:	0b 3b                	or     (%ebx),%edi
 9d9:	0b 49 13             	or     0x13(%ecx),%ecx
 9dc:	00 00                	add    %al,(%eax)
 9de:	00 01                	add    %al,(%ecx)
 9e0:	11 01                	adc    %eax,(%ecx)
 9e2:	25 0e 13 0b 03       	and    $0x30b130e,%eax
 9e7:	0e                   	push   %cs
 9e8:	11 01                	adc    %eax,(%ecx)
 9ea:	12 06                	adc    (%esi),%al
 9ec:	10 17                	adc    %dl,(%edi)
 9ee:	00 00                	add    %al,(%eax)
 9f0:	02 24 00             	add    (%eax,%eax,1),%ah
 9f3:	0b 0b                	or     (%ebx),%ecx
 9f5:	3e 0b 03             	or     %ds:(%ebx),%eax
 9f8:	0e                   	push   %cs
 9f9:	00 00                	add    %al,(%eax)
 9fb:	03 16                	add    (%esi),%edx
 9fd:	00 03                	add    %al,(%ebx)
 9ff:	0e                   	push   %cs
 a00:	3a 0b                	cmp    (%ebx),%cl
 a02:	3b 0b                	cmp    (%ebx),%ecx
 a04:	49                   	dec    %ecx
 a05:	13 00                	adc    (%eax),%eax
 a07:	00 04 24             	add    %al,(%esp)
 a0a:	00 0b                	add    %cl,(%ebx)
 a0c:	0b 3e                	or     (%esi),%edi
 a0e:	0b 03                	or     (%ebx),%eax
 a10:	08 00                	or     %al,(%eax)
 a12:	00 05 0f 00 0b 0b    	add    %al,0xb0b000f
 a18:	49                   	dec    %ecx
 a19:	13 00                	adc    (%eax),%eax
 a1b:	00 06                	add    %al,(%esi)
 a1d:	15 00 27 19 00       	adc    $0x192700,%eax
 a22:	00 07                	add    %al,(%edi)
 a24:	26 00 49 13          	add    %cl,%es:0x13(%ecx)
 a28:	00 00                	add    %al,(%eax)
 a2a:	08 01                	or     %al,(%ecx)
 a2c:	01 49 13             	add    %ecx,0x13(%ecx)
 a2f:	01 13                	add    %edx,(%ebx)
 a31:	00 00                	add    %al,(%eax)
 a33:	09 21                	or     %esp,(%ecx)
 a35:	00 49 13             	add    %cl,0x13(%ecx)
 a38:	2f                   	das    
 a39:	0b 00                	or     (%eax),%eax
 a3b:	00 0a                	add    %cl,(%edx)
 a3d:	34 00                	xor    $0x0,%al
 a3f:	03 0e                	add    (%esi),%ecx
 a41:	3a 0b                	cmp    (%ebx),%cl
 a43:	3b 0b                	cmp    (%ebx),%ecx
 a45:	49                   	dec    %ecx
 a46:	13 3f                	adc    (%edi),%edi
 a48:	19 3c 19             	sbb    %edi,(%ecx,%ebx,1)
 a4b:	00 00                	add    %al,(%eax)
 a4d:	0b 04 01             	or     (%ecx,%eax,1),%eax
 a50:	03 0e                	add    (%esi),%ecx
 a52:	0b 0b                	or     (%ebx),%ecx
 a54:	49                   	dec    %ecx
 a55:	13 3a                	adc    (%edx),%edi
 a57:	0b 3b                	or     (%ebx),%edi
 a59:	0b 01                	or     (%ecx),%eax
 a5b:	13 00                	adc    (%eax),%eax
 a5d:	00 0c 28             	add    %cl,(%eax,%ebp,1)
 a60:	00 03                	add    %al,(%ebx)
 a62:	0e                   	push   %cs
 a63:	1c 06                	sbb    $0x6,%al
 a65:	00 00                	add    %al,(%eax)
 a67:	0d 28 00 03 08       	or     $0x8030028,%eax
 a6c:	1c 06                	sbb    $0x6,%al
 a6e:	00 00                	add    %al,(%eax)
 a70:	0e                   	push   %cs
 a71:	21 00                	and    %eax,(%eax)
 a73:	00 00                	add    %al,(%eax)
 a75:	0f 13 01             	movlps %xmm0,(%ecx)
 a78:	03 0e                	add    (%esi),%ecx
 a7a:	0b 0b                	or     (%ebx),%ecx
 a7c:	3a 0b                	cmp    (%ebx),%cl
 a7e:	3b 0b                	cmp    (%ebx),%ecx
 a80:	01 13                	add    %edx,(%ebx)
 a82:	00 00                	add    %al,(%eax)
 a84:	10 0d 00 03 0e 3a    	adc    %cl,0x3a0e0300
 a8a:	0b 3b                	or     (%ebx),%edi
 a8c:	0b 49 13             	or     0x13(%ecx),%ecx
 a8f:	38 0b                	cmp    %cl,(%ebx)
 a91:	00 00                	add    %al,(%eax)
 a93:	11 0d 00 03 08 3a    	adc    %ecx,0x3a080300
 a99:	0b 3b                	or     (%ebx),%edi
 a9b:	0b 49 13             	or     0x13(%ecx),%ecx
 a9e:	38 0b                	cmp    %cl,(%ebx)
 aa0:	00 00                	add    %al,(%eax)
 aa2:	12 0d 00 03 0e 3a    	adc    0x3a0e0300,%cl
 aa8:	0b 3b                	or     (%ebx),%edi
 aaa:	0b 49 13             	or     0x13(%ecx),%ecx
 aad:	0b 0b                	or     (%ebx),%ecx
 aaf:	0d 0b 0c 0b 38       	or     $0x380b0c0b,%eax
 ab4:	0b 00                	or     (%eax),%eax
 ab6:	00 13                	add    %dl,(%ebx)
 ab8:	0d 00 03 08 3a       	or     $0x3a080300,%eax
 abd:	0b 3b                	or     (%ebx),%edi
 abf:	0b 49 13             	or     0x13(%ecx),%ecx
 ac2:	0b 0b                	or     (%ebx),%ecx
 ac4:	0d 0b 0c 0b 38       	or     $0x380b0c0b,%eax
 ac9:	0b 00                	or     (%eax),%eax
 acb:	00 14 2e             	add    %dl,(%esi,%ebp,1)
 ace:	01 3f                	add    %edi,(%edi)
 ad0:	19 03                	sbb    %eax,(%ebx)
 ad2:	0e                   	push   %cs
 ad3:	3a 0b                	cmp    (%ebx),%cl
 ad5:	3b 0b                	cmp    (%ebx),%ecx
 ad7:	27                   	daa    
 ad8:	19 11                	sbb    %edx,(%ecx)
 ada:	01 12                	add    %edx,(%edx)
 adc:	06                   	push   %es
 add:	40                   	inc    %eax
 ade:	18 97 42 19 01 13    	sbb    %dl,0x13011942(%edi)
 ae4:	00 00                	add    %al,(%eax)
 ae6:	15 34 00 03 0e       	adc    $0xe030034,%eax
 aeb:	3a 0b                	cmp    (%ebx),%cl
 aed:	3b 0b                	cmp    (%ebx),%ecx
 aef:	49                   	dec    %ecx
 af0:	13 02                	adc    (%edx),%eax
 af2:	18 00                	sbb    %al,(%eax)
 af4:	00 16                	add    %dl,(%esi)
 af6:	2e 01 03             	add    %eax,%cs:(%ebx)
 af9:	0e                   	push   %cs
 afa:	3a 0b                	cmp    (%ebx),%cl
 afc:	3b 0b                	cmp    (%ebx),%ecx
 afe:	27                   	daa    
 aff:	19 20                	sbb    %esp,(%eax)
 b01:	0b 01                	or     (%ecx),%eax
 b03:	13 00                	adc    (%eax),%eax
 b05:	00 17                	add    %dl,(%edi)
 b07:	05 00 03 0e 3a       	add    $0x3a0e0300,%eax
 b0c:	0b 3b                	or     (%ebx),%edi
 b0e:	0b 49 13             	or     0x13(%ecx),%ecx
 b11:	00 00                	add    %al,(%eax)
 b13:	18 05 00 03 08 3a    	sbb    %al,0x3a080300
 b19:	0b 3b                	or     (%ebx),%edi
 b1b:	0b 49 13             	or     0x13(%ecx),%ecx
 b1e:	00 00                	add    %al,(%eax)
 b20:	19 05 00 03 0e 3a    	sbb    %eax,0x3a0e0300
 b26:	0b 3b                	or     (%ebx),%edi
 b28:	0b 49 13             	or     0x13(%ecx),%ecx
 b2b:	02 18                	add    (%eax),%bl
 b2d:	00 00                	add    %al,(%eax)
 b2f:	1a 05 00 03 08 3a    	sbb    0x3a080300,%al
 b35:	0b 3b                	or     (%ebx),%edi
 b37:	0b 49 13             	or     0x13(%ecx),%ecx
 b3a:	02 18                	add    (%eax),%bl
 b3c:	00 00                	add    %al,(%eax)
 b3e:	1b 1d 01 31 13 11    	sbb    0x11133101,%ebx
 b44:	01 12                	add    %edx,(%edx)
 b46:	06                   	push   %es
 b47:	58                   	pop    %eax
 b48:	0b 59 0b             	or     0xb(%ecx),%ebx
 b4b:	01 13                	add    %edx,(%ebx)
 b4d:	00 00                	add    %al,(%eax)
 b4f:	1c 1d                	sbb    $0x1d,%al
 b51:	00 31                	add    %dh,(%ecx)
 b53:	13 11                	adc    (%ecx),%edx
 b55:	01 12                	add    %edx,(%edx)
 b57:	06                   	push   %es
 b58:	58                   	pop    %eax
 b59:	0b 59 0b             	or     0xb(%ecx),%ebx
 b5c:	00 00                	add    %al,(%eax)
 b5e:	1d 1d 01 31 13       	sbb    $0x1331011d,%eax
 b63:	11 01                	adc    %eax,(%ecx)
 b65:	12 06                	adc    (%esi),%al
 b67:	58                   	pop    %eax
 b68:	0b 59 0b             	or     0xb(%ecx),%ebx
 b6b:	00 00                	add    %al,(%eax)
 b6d:	1e                   	push   %ds
 b6e:	05 00 31 13 00       	add    $0x133100,%eax
 b73:	00 1f                	add    %bl,(%edi)
 b75:	05 00 31 13 02       	add    $0x2133100,%eax
 b7a:	18 00                	sbb    %al,(%eax)
 b7c:	00 20                	add    %ah,(%eax)
 b7e:	89 82 01 00 11 01    	mov    %eax,0x1110001(%edx)
 b84:	31 13                	xor    %edx,(%ebx)
 b86:	00 00                	add    %al,(%eax)
 b88:	21 2e                	and    %ebp,(%esi)
 b8a:	00 03                	add    %al,(%ebx)
 b8c:	0e                   	push   %cs
 b8d:	3a 0b                	cmp    (%ebx),%cl
 b8f:	3b 0b                	cmp    (%ebx),%ecx
 b91:	27                   	daa    
 b92:	19 00                	sbb    %eax,(%eax)
 b94:	00 22                	add    %ah,(%edx)
 b96:	2e 00 03             	add    %al,%cs:(%ebx)
 b99:	0e                   	push   %cs
 b9a:	3a 0b                	cmp    (%ebx),%cl
 b9c:	3b 0b                	cmp    (%ebx),%ecx
 b9e:	27                   	daa    
 b9f:	19 20                	sbb    %esp,(%eax)
 ba1:	0b 00                	or     (%eax),%eax
 ba3:	00 23                	add    %ah,(%ebx)
 ba5:	2e 00 3f             	add    %bh,%cs:(%edi)
 ba8:	19 3c 19             	sbb    %edi,(%ecx,%ebx,1)
 bab:	6e                   	outsb  %ds:(%esi),(%dx)
 bac:	0e                   	push   %cs
 bad:	03 0e                	add    (%esi),%ecx
 baf:	3a 0b                	cmp    (%ebx),%cl
 bb1:	3b 0b                	cmp    (%ebx),%ecx
 bb3:	00 00                	add    %al,(%eax)
 bb5:	00 01                	add    %al,(%ecx)
 bb7:	11 00                	adc    %eax,(%eax)
 bb9:	10 06                	adc    %al,(%esi)
 bbb:	11 01                	adc    %eax,(%ecx)
 bbd:	12 01                	adc    (%ecx),%al
 bbf:	03 08                	add    (%eax),%ecx
 bc1:	1b 08                	sbb    (%eax),%ecx
 bc3:	25 08 13 05 00       	and    $0x51308,%eax
 bc8:	00 00                	add    %al,(%eax)
 bca:	01 11                	add    %edx,(%ecx)
 bcc:	01 25 0e 13 0b 03    	add    %esp,0x30b130e
 bd2:	0e                   	push   %cs
 bd3:	10 17                	adc    %dl,(%edi)
 bd5:	00 00                	add    %al,(%eax)
 bd7:	02 24 00             	add    (%eax,%eax,1),%ah
 bda:	0b 0b                	or     (%ebx),%ecx
 bdc:	3e 0b 03             	or     %ds:(%ebx),%eax
 bdf:	0e                   	push   %cs
 be0:	00 00                	add    %al,(%eax)
 be2:	03 16                	add    (%esi),%edx
 be4:	00 03                	add    %al,(%ebx)
 be6:	0e                   	push   %cs
 be7:	3a 0b                	cmp    (%ebx),%cl
 be9:	3b 0b                	cmp    (%ebx),%ecx
 beb:	49                   	dec    %ecx
 bec:	13 00                	adc    (%eax),%eax
 bee:	00 04 24             	add    %al,(%esp)
 bf1:	00 0b                	add    %cl,(%ebx)
 bf3:	0b 3e                	or     (%esi),%edi
 bf5:	0b 03                	or     (%ebx),%eax
 bf7:	08 00                	or     %al,(%eax)
 bf9:	00 05 0f 00 0b 0b    	add    %al,0xb0b000f
 bff:	49                   	dec    %ecx
 c00:	13 00                	adc    (%eax),%eax
 c02:	00 06                	add    %al,(%esi)
 c04:	15 00 27 19 00       	adc    $0x192700,%eax
 c09:	00 07                	add    %al,(%edi)
 c0b:	26 00 49 13          	add    %cl,%es:0x13(%ecx)
 c0f:	00 00                	add    %al,(%eax)
 c11:	08 01                	or     %al,(%ecx)
 c13:	01 49 13             	add    %ecx,0x13(%ecx)
 c16:	01 13                	add    %edx,(%ebx)
 c18:	00 00                	add    %al,(%eax)
 c1a:	09 21                	or     %esp,(%ecx)
 c1c:	00 49 13             	add    %cl,0x13(%ecx)
 c1f:	2f                   	das    
 c20:	0b 00                	or     (%eax),%eax
 c22:	00 0a                	add    %cl,(%edx)
 c24:	34 00                	xor    $0x0,%al
 c26:	03 0e                	add    (%esi),%ecx
 c28:	3a 0b                	cmp    (%ebx),%cl
 c2a:	3b 0b                	cmp    (%ebx),%ecx
 c2c:	49                   	dec    %ecx
 c2d:	13 3f                	adc    (%edi),%edi
 c2f:	19 3c 19             	sbb    %edi,(%ecx,%ebx,1)
 c32:	00 00                	add    %al,(%eax)
 c34:	0b 21                	or     (%ecx),%esp
 c36:	00 00                	add    %al,(%eax)
 c38:	00 0c 21             	add    %cl,(%ecx,%eiz,1)
 c3b:	00 49 13             	add    %cl,0x13(%ecx)
 c3e:	2f                   	das    
 c3f:	05 00 00 0d 34       	add    $0x340d0000,%eax
 c44:	00 47 13             	add    %al,0x13(%edi)
 c47:	3a 0b                	cmp    (%ebx),%cl
 c49:	3b 0b                	cmp    (%ebx),%ecx
 c4b:	02 18                	add    (%eax),%bl
 c4d:	00 00                	add    %al,(%eax)
	...

Disassembly of section .debug_aranges:

00000000 <.debug_aranges>:
   0:	24 00                	and    $0x0,%al
   2:	00 00                	add    %al,(%eax)
   4:	02 00                	add    (%eax),%al
   6:	00 00                	add    %al,(%eax)
   8:	00 00                	add    %al,(%eax)
   a:	04 00                	add    $0x0,%al
   c:	00 00                	add    %al,(%eax)
   e:	00 00                	add    %al,(%eax)
  10:	00 40 10             	add    %al,0x10(%eax)
  13:	00 05 00 00 00 10    	add    %al,0x10000000
  19:	3d 10 00 20 00       	cmp    $0x200010,%eax
	...
  26:	00 00                	add    %al,(%eax)
  28:	14 00                	adc    $0x0,%al
  2a:	00 00                	add    %al,(%eax)
  2c:	02 00                	add    (%eax),%al
  2e:	24 02                	and    $0x2,%al
  30:	00 00                	add    %al,(%eax)
  32:	04 00                	add    $0x0,%al
	...
  40:	1c 00                	sbb    $0x0,%al
  42:	00 00                	add    %al,(%eax)
  44:	02 00                	add    (%eax),%al
  46:	18 04 00             	sbb    %al,(%eax,%eax,1)
  49:	00 04 00             	add    %al,(%eax,%eax,1)
  4c:	00 00                	add    %al,(%eax)
  4e:	00 00                	add    %al,(%eax)
  50:	30 3d 10 00 0e 00    	xor    %bh,0xe0010
	...
  5e:	00 00                	add    %al,(%eax)
  60:	1c 00                	sbb    $0x0,%al
  62:	00 00                	add    %al,(%eax)
  64:	02 00                	add    (%eax),%al
  66:	b3 04                	mov    $0x4,%bl
  68:	00 00                	add    %al,(%eax)
  6a:	04 00                	add    $0x0,%al
  6c:	00 00                	add    %al,(%eax)
  6e:	00 00                	add    %al,(%eax)
  70:	05 40 10 00 a7       	add    $0xa7001040,%eax
  75:	02 00                	add    (%eax),%al
	...
  7f:	00 1c 00             	add    %bl,(%eax,%eax,1)
  82:	00 00                	add    %al,(%eax)
  84:	02 00                	add    (%eax),%al
  86:	dd 08                	fisttpll (%eax)
  88:	00 00                	add    %al,(%eax)
  8a:	04 00                	add    $0x0,%al
  8c:	00 00                	add    %al,(%eax)
  8e:	00 00                	add    %al,(%eax)
  90:	ac                   	lods   %ds:(%esi),%al
  91:	42                   	inc    %edx
  92:	10 00                	adc    %al,(%eax)
  94:	3e 00 00             	add    %al,%ds:(%eax)
	...
  9f:	00 1c 00             	add    %bl,(%eax,%eax,1)
  a2:	00 00                	add    %al,(%eax)
  a4:	02 00                	add    (%eax),%al
  a6:	05 0b 00 00 04       	add    $0x400000b,%eax
  ab:	00 00                	add    %al,(%eax)
  ad:	00 00                	add    %al,(%eax)
  af:	00 ea                	add    %ch,%dl
  b1:	42                   	inc    %edx
  b2:	10 00                	adc    %al,(%eax)
  b4:	65 00 00             	add    %al,%gs:(%eax)
	...
  bf:	00 1c 00             	add    %bl,(%eax,%eax,1)
  c2:	00 00                	add    %al,(%eax)
  c4:	02 00                	add    (%eax),%al
  c6:	ec                   	in     (%dx),%al
  c7:	11 00                	adc    %eax,(%eax)
  c9:	00 04 00             	add    %al,(%eax,%eax,1)
  cc:	00 00                	add    %al,(%eax)
  ce:	00 00                	add    %al,(%eax)
  d0:	4f                   	dec    %edi
  d1:	43                   	inc    %ebx
  d2:	10 00                	adc    %al,(%eax)
  d4:	1b 01                	sbb    (%ecx),%eax
	...
  de:	00 00                	add    %al,(%eax)
  e0:	1c 00                	sbb    $0x0,%al
  e2:	00 00                	add    %al,(%eax)
  e4:	02 00                	add    (%eax),%al
  e6:	ca 15 00             	lret   $0x15
  e9:	00 04 00             	add    %al,(%eax,%eax,1)
  ec:	00 00                	add    %al,(%eax)
  ee:	00 00                	add    %al,(%eax)
  f0:	6a 44                	push   $0x44
  f2:	10 00                	adc    %al,(%eax)
  f4:	59                   	pop    %ecx
	...
  fd:	00 00                	add    %al,(%eax)
  ff:	00 1c 00             	add    %bl,(%eax,%eax,1)
 102:	00 00                	add    %al,(%eax)
 104:	02 00                	add    (%eax),%al
 106:	2b 19                	sub    (%ecx),%ebx
 108:	00 00                	add    %al,(%eax)
 10a:	04 00                	add    $0x0,%al
 10c:	00 00                	add    %al,(%eax)
 10e:	00 00                	add    %al,(%eax)
 110:	c3                   	ret    
 111:	44                   	inc    %esp
 112:	10 00                	adc    %al,(%eax)
 114:	97                   	xchg   %eax,%edi
	...
 11d:	00 00                	add    %al,(%eax)
 11f:	00 1c 00             	add    %bl,(%eax,%eax,1)
 122:	00 00                	add    %al,(%eax)
 124:	02 00                	add    (%eax),%al
 126:	22 1d 00 00 04 00    	and    0x40000,%bl
 12c:	00 00                	add    %al,(%eax)
 12e:	00 00                	add    %al,(%eax)
 130:	5a                   	pop    %edx
 131:	45                   	inc    %ebp
 132:	10 00                	adc    %al,(%eax)
 134:	48                   	dec    %eax
	...
 13d:	00 00                	add    %al,(%eax)
 13f:	00 1c 00             	add    %bl,(%eax,%eax,1)
 142:	00 00                	add    %al,(%eax)
 144:	02 00                	add    (%eax),%al
 146:	11 22                	adc    %esp,(%edx)
 148:	00 00                	add    %al,(%eax)
 14a:	04 00                	add    $0x0,%al
 14c:	00 00                	add    %al,(%eax)
 14e:	00 00                	add    %al,(%eax)
 150:	00 10                	add    %dl,(%eax)
 152:	10 00                	adc    %al,(%eax)
 154:	fe                   	(bad)  
 155:	1f                   	pop    %ds
	...
 15e:	00 00                	add    %al,(%eax)
 160:	14 00                	adc    $0x0,%al
 162:	00 00                	add    %al,(%eax)
 164:	02 00                	add    (%eax),%al
 166:	b4 22                	mov    $0x22,%ah
 168:	00 00                	add    %al,(%eax)
 16a:	04 00                	add    $0x0,%al
	...

Disassembly of section .debug_ranges:

00000000 <.debug_ranges>:
   0:	00 40 10             	add    %al,0x10(%eax)
   3:	00 05 40 10 00 10    	add    %al,0x10001040
   9:	3d 10 00 30 3d       	cmp    $0x3d300010,%eax
   e:	10 00                	adc    %al,(%eax)
	...
  18:	14 00                	adc    $0x0,%al
  1a:	00 00                	add    %al,(%eax)
  1c:	1d 00 00 00 1f       	sbb    $0x1f000000,%eax
  21:	00 00                	add    %al,(%eax)
  23:	00 44 00 00          	add    %al,0x0(%eax,%eax,1)
	...
  2f:	00 01                	add    %al,(%ecx)
  31:	00 00                	add    %al,(%eax)
  33:	00 03                	add    %al,(%ebx)
  35:	00 00                	add    %al,(%eax)
  37:	00 0d 00 00 00 10    	add    %cl,0x10000000
	...
  45:	00 00                	add    %al,(%eax)
  47:	00 27                	add    %ah,(%edi)
  49:	00 00                	add    %al,(%eax)
  4b:	00 29                	add    %ch,(%ecx)
  4d:	00 00                	add    %al,(%eax)
  4f:	00 2c 00             	add    %ch,(%eax,%eax,1)
  52:	00 00                	add    %al,(%eax)
  54:	2d 00 00 00 00       	sub    $0x0,%eax
  59:	00 00                	add    %al,(%eax)
  5b:	00 00                	add    %al,(%eax)
  5d:	00 00                	add    %al,(%eax)
  5f:	00 2d 00 00 00 2f    	add    %ch,0x2f000000
  65:	00 00                	add    %al,(%eax)
  67:	00 32                	add    %dh,(%edx)
  69:	00 00                	add    %al,(%eax)
  6b:	00 33                	add    %dh,(%ebx)
	...

Disassembly of section .debug_line:

00000000 <.debug_line>:
       0:	94                   	xchg   %eax,%esp
       1:	01 00                	add    %eax,(%eax)
       3:	00 02                	add    %al,(%edx)
       5:	00 6b 01             	add    %ch,0x1(%ebx)
       8:	00 00                	add    %al,(%eax)
       a:	01 01                	add    %eax,(%ecx)
       c:	fb                   	sti    
       d:	0e                   	push   %cs
       e:	0d 00 01 01 01       	or     $0x1010100,%eax
      13:	01 00                	add    %eax,(%eax)
      15:	00 00                	add    %al,(%eax)
      17:	01 00                	add    %eax,(%eax)
      19:	00 01                	add    %al,(%ecx)
      1b:	2e 2e 00 2f          	cs add %ch,%cs:(%edi)
      1f:	68 6f 6d 65 2f       	push   $0x2f656d6f
      24:	6b 64 77 39 32       	imul   $0x32,0x39(%edi,%esi,2),%esp
      29:	34 32                	xor    $0x32,%al
      2b:	2f                   	das    
      2c:	45                   	inc    %ebp
      2d:	72 69                	jb     98 <_scga-0xb7f68>
      2f:	6b 61 2f 70          	imul   $0x70,0x2f(%ecx),%esp
      33:	6b 67 2f 63          	imul   $0x63,0x2f(%edi),%esp
      37:	70 75                	jo     ae <_scga-0xb7f52>
      39:	2f                   	das    
      3a:	63 6f 6d             	arpl   %bp,0x6d(%edi)
      3d:	6d                   	insl   (%dx),%es:(%edi)
      3e:	6f                   	outsl  %ds:(%esi),(%dx)
      3f:	6e                   	outsb  %ds:(%esi),(%dx)
      40:	2f                   	das    
      41:	69 6e 63 00 2f 68 6f 	imul   $0x6f682f00,0x63(%esi),%ebp
      48:	6d                   	insl   (%dx),%es:(%edi)
      49:	65 2f                	gs das 
      4b:	6b 64 77 39 32       	imul   $0x32,0x39(%edi,%esi,2),%esp
      50:	34 32                	xor    $0x32,%al
      52:	2f                   	das    
      53:	45                   	inc    %ebp
      54:	72 69                	jb     bf <_scga-0xb7f41>
      56:	6b 61 2f 70          	imul   $0x70,0x2f(%ecx),%esp
      5a:	6b 67 2f 63          	imul   $0x63,0x2f(%edi),%esp
      5e:	70 75                	jo     d5 <_scga-0xb7f2b>
      60:	2f                   	das    
      61:	78 38                	js     9b <_scga-0xb7f65>
      63:	36 2f                	ss das 
      65:	69 6e 63 00 2f 68 6f 	imul   $0x6f682f00,0x63(%esi),%ebp
      6c:	6d                   	insl   (%dx),%es:(%edi)
      6d:	65 2f                	gs das 
      6f:	6b 64 77 39 32       	imul   $0x32,0x39(%edi,%esi,2),%esp
      74:	34 32                	xor    $0x32,%al
      76:	2f                   	das    
      77:	45                   	inc    %ebp
      78:	72 69                	jb     e3 <_scga-0xb7f1d>
      7a:	6b 61 2f 70          	imul   $0x70,0x2f(%ecx),%esp
      7e:	6b 67 2f 6b          	imul   $0x6b,0x2f(%edi),%esp
      82:	65 72 6e             	gs jb  f3 <_scga-0xb7f0d>
      85:	65 6c                	gs insb (%dx),%es:(%edi)
      87:	2f                   	das    
      88:	66 70 2f             	data16 jo ba <_scga-0xb7f46>
      8b:	69 6e 63 00 2f 68 6f 	imul   $0x6f682f00,0x63(%esi),%ebp
      92:	6d                   	insl   (%dx),%es:(%edi)
      93:	65 2f                	gs das 
      95:	6b 64 77 39 32       	imul   $0x32,0x39(%edi,%esi,2),%esp
      9a:	34 32                	xor    $0x32,%al
      9c:	2f                   	das    
      9d:	45                   	inc    %ebp
      9e:	72 69                	jb     109 <_scga-0xb7ef7>
      a0:	6b 61 2f 70          	imul   $0x70,0x2f(%ecx),%esp
      a4:	6b 67 2f 74          	imul   $0x74,0x2f(%edi),%esp
      a8:	65 73 74             	gs jae 11f <_scga-0xb7ee1>
      ab:	2f                   	das    
      ac:	61                   	popa   
      ad:	73 73                	jae    122 <_scga-0xb7ede>
      af:	65 72 74             	gs jb  126 <_scga-0xb7eda>
      b2:	2f                   	das    
      b3:	69 6e 63 00 2f 68 6f 	imul   $0x6f682f00,0x63(%esi),%ebp
      ba:	6d                   	insl   (%dx),%es:(%edi)
      bb:	65 2f                	gs das 
      bd:	6b 64 77 39 32       	imul   $0x32,0x39(%edi,%esi,2),%esp
      c2:	34 32                	xor    $0x32,%al
      c4:	2f                   	das    
      c5:	45                   	inc    %ebp
      c6:	72 69                	jb     131 <_scga-0xb7ecf>
      c8:	6b 61 2f 70          	imul   $0x70,0x2f(%ecx),%esp
      cc:	6b 67 2f 6d          	imul   $0x6d,0x2f(%edi),%esp
      d0:	63 75 2f             	arpl   %si,0x2f(%ebp)
      d3:	78 38                	js     10d <_scga-0xb7ef3>
      d5:	36 2f                	ss das 
      d7:	69 6e 63 00 00 63 6f 	imul   $0x6f630000,0x63(%esi),%ebp
      de:	64 65 2e 63 00       	fs gs arpl %ax,%cs:(%eax)
      e3:	01 00                	add    %eax,(%eax)
      e5:	00 65 65             	add    %ah,0x65(%ebp)
      e8:	5f                   	pop    %edi
      e9:	74 79                	je     164 <_scga-0xb7e9c>
      eb:	70 65                	jo     152 <_scga-0xb7eae>
      ed:	73 2e                	jae    11d <_scga-0xb7ee3>
      ef:	68 00 02 00 00       	push   $0x200
      f4:	65 65 5f             	gs gs pop %edi
      f7:	63 70 75             	arpl   %si,0x75(%eax)
      fa:	2e 68 00 03 00 00    	cs push $0x300
     100:	65 65 5f             	gs gs pop %edi
     103:	68 61 6c 5f 73       	push   $0x735f6c61
     108:	74 72                	je     17c <_scga-0xb7e84>
     10a:	75 63                	jne    16f <_scga-0xb7e91>
     10c:	74 73                	je     181 <_scga-0xb7e7f>
     10e:	2e 68 00 02 00 00    	cs push $0x200
     114:	65 65 5f             	gs gs pop %edi
     117:	63 6f 6d             	arpl   %bp,0x6d(%edi)
     11a:	6d                   	insl   (%dx),%es:(%edi)
     11b:	6f                   	outsl  %ds:(%esi),(%dx)
     11c:	6e                   	outsb  %ds:(%esi),(%dx)
     11d:	2e 68 00 04 00 00    	cs push $0x400
     123:	65 65 5f             	gs gs pop %edi
     126:	63 6f 6e             	arpl   %bp,0x6e(%edi)
     129:	74 65                	je     190 <_scga-0xb7e70>
     12b:	78 74                	js     1a1 <_scga-0xb7e5f>
     12d:	2e 68 00 02 00 00    	cs push $0x200
     133:	65 65 5f             	gs gs pop %edi
     136:	70 72                	jo     1aa <_scga-0xb7e56>
     138:	69 6d 69 74 69 76 65 	imul   $0x65766974,0x69(%ebp),%ebp
     13f:	73 2e                	jae    16f <_scga-0xb7e91>
     141:	68 00 02 00 00       	push   $0x200
     146:	65 65 5f             	gs gs pop %edi
     149:	69 72 71 73 74 75 62 	imul   $0x62757473,0x71(%edx),%esi
     150:	2e 68 00 03 00 00    	cs push $0x300
     156:	65 65 5f             	gs gs pop %edi
     159:	61                   	popa   
     15a:	73 73                	jae    1cf <_scga-0xb7e31>
     15c:	65 72 74             	gs jb  1d3 <_scga-0xb7e2d>
     15f:	2e 68 00 05 00 00    	cs push $0x500
     165:	65 65 5f             	gs gs pop %edi
     168:	70 72                	jo     1dc <_scga-0xb7e24>
     16a:	69 6e 74 66 2e 68 00 	imul   $0x682e66,0x74(%esi),%ebp
     171:	06                   	push   %es
     172:	00 00                	add    %al,(%eax)
     174:	00 00                	add    %al,(%eax)
     176:	05 02 00 40 10       	add    $0x10400002,%eax
     17b:	00 03                	add    %al,(%ebx)
     17d:	c6 00 01             	movb   $0x1,(%eax)
     180:	3e 02 02             	add    %ds:(%edx),%al
     183:	00 01                	add    %al,(%ecx)
     185:	01 00                	add    %eax,(%eax)
     187:	05 02 10 3d 10       	add    $0x103d1002,%eax
     18c:	00 03                	add    %al,(%ebx)
     18e:	ce                   	into   
     18f:	00 01                	add    %al,(%ecx)
     191:	08 13                	or     %dl,(%ebx)
     193:	02 0f                	add    (%edi),%cl
     195:	00 01                	add    %al,(%ecx)
     197:	01 3c 01             	add    %edi,(%ecx,%eax,1)
     19a:	00 00                	add    %al,(%eax)
     19c:	02 00                	add    (%eax),%al
     19e:	36 01 00             	add    %eax,%ss:(%eax)
     1a1:	00 01                	add    %al,(%ecx)
     1a3:	01 fb                	add    %edi,%ebx
     1a5:	0e                   	push   %cs
     1a6:	0d 00 01 01 01       	or     $0x1010100,%eax
     1ab:	01 00                	add    %eax,(%eax)
     1ad:	00 00                	add    %al,(%eax)
     1af:	01 00                	add    %eax,(%eax)
     1b1:	00 01                	add    %al,(%ecx)
     1b3:	2f                   	das    
     1b4:	68 6f 6d 65 2f       	push   $0x2f656d6f
     1b9:	6b 64 77 39 32       	imul   $0x32,0x39(%edi,%esi,2),%esp
     1be:	34 32                	xor    $0x32,%al
     1c0:	2f                   	das    
     1c1:	45                   	inc    %ebp
     1c2:	72 69                	jb     22d <_scga-0xb7dd3>
     1c4:	6b 61 2f 70          	imul   $0x70,0x2f(%ecx),%esp
     1c8:	6b 67 2f 63          	imul   $0x63,0x2f(%edi),%esp
     1cc:	70 75                	jo     243 <_scga-0xb7dbd>
     1ce:	2f                   	das    
     1cf:	63 6f 6d             	arpl   %bp,0x6d(%edi)
     1d2:	6d                   	insl   (%dx),%es:(%edi)
     1d3:	6f                   	outsl  %ds:(%esi),(%dx)
     1d4:	6e                   	outsb  %ds:(%esi),(%dx)
     1d5:	2f                   	das    
     1d6:	69 6e 63 00 2f 68 6f 	imul   $0x6f682f00,0x63(%esi),%ebp
     1dd:	6d                   	insl   (%dx),%es:(%edi)
     1de:	65 2f                	gs das 
     1e0:	6b 64 77 39 32       	imul   $0x32,0x39(%edi,%esi,2),%esp
     1e5:	34 32                	xor    $0x32,%al
     1e7:	2f                   	das    
     1e8:	45                   	inc    %ebp
     1e9:	72 69                	jb     254 <_scga-0xb7dac>
     1eb:	6b 61 2f 70          	imul   $0x70,0x2f(%ecx),%esp
     1ef:	6b 67 2f 63          	imul   $0x63,0x2f(%edi),%esp
     1f3:	70 75                	jo     26a <_scga-0xb7d96>
     1f5:	2f                   	das    
     1f6:	78 38                	js     230 <_scga-0xb7dd0>
     1f8:	36 2f                	ss das 
     1fa:	69 6e 63 00 2f 68 6f 	imul   $0x6f682f00,0x63(%esi),%ebp
     201:	6d                   	insl   (%dx),%es:(%edi)
     202:	65 2f                	gs das 
     204:	6b 64 77 39 32       	imul   $0x32,0x39(%edi,%esi,2),%esp
     209:	34 32                	xor    $0x32,%al
     20b:	2f                   	das    
     20c:	45                   	inc    %ebp
     20d:	72 69                	jb     278 <_scga-0xb7d88>
     20f:	6b 61 2f 70          	imul   $0x70,0x2f(%ecx),%esp
     213:	6b 67 2f 6b          	imul   $0x6b,0x2f(%edi),%esp
     217:	65 72 6e             	gs jb  288 <_scga-0xb7d78>
     21a:	65 6c                	gs insb (%dx),%es:(%edi)
     21c:	2f                   	das    
     21d:	66 70 2f             	data16 jo 24f <_scga-0xb7db1>
     220:	69 6e 63 00 2f 68 6f 	imul   $0x6f682f00,0x63(%esi),%ebp
     227:	6d                   	insl   (%dx),%es:(%edi)
     228:	65 2f                	gs das 
     22a:	6b 64 77 39 32       	imul   $0x32,0x39(%edi,%esi,2),%esp
     22f:	34 32                	xor    $0x32,%al
     231:	2f                   	das    
     232:	45                   	inc    %ebp
     233:	72 69                	jb     29e <_scga-0xb7d62>
     235:	6b 61 2f 70          	imul   $0x70,0x2f(%ecx),%esp
     239:	6b 67 2f 74          	imul   $0x74,0x2f(%edi),%esp
     23d:	65 73 74             	gs jae 2b4 <_scga-0xb7d4c>
     240:	2f                   	das    
     241:	61                   	popa   
     242:	73 73                	jae    2b7 <_scga-0xb7d49>
     244:	65 72 74             	gs jb  2bb <_scga-0xb7d45>
     247:	2f                   	das    
     248:	69 6e 63 00 00 65 65 	imul   $0x65650000,0x63(%esi),%ebp
     24f:	5f                   	pop    %edi
     250:	74 79                	je     2cb <_scga-0xb7d35>
     252:	70 65                	jo     2b9 <_scga-0xb7d47>
     254:	73 2e                	jae    284 <_scga-0xb7d7c>
     256:	68 00 01 00 00       	push   $0x100
     25b:	65 65 5f             	gs gs pop %edi
     25e:	63 70 75             	arpl   %si,0x75(%eax)
     261:	2e 68 00 02 00 00    	cs push $0x200
     267:	65 65 5f             	gs gs pop %edi
     26a:	68 61 6c 5f 73       	push   $0x735f6c61
     26f:	74 72                	je     2e3 <_scga-0xb7d1d>
     271:	75 63                	jne    2d6 <_scga-0xb7d2a>
     273:	74 73                	je     2e8 <_scga-0xb7d18>
     275:	2e 68 00 01 00 00    	cs push $0x100
     27b:	65 65 5f             	gs gs pop %edi
     27e:	63 6f 6d             	arpl   %bp,0x6d(%edi)
     281:	6d                   	insl   (%dx),%es:(%edi)
     282:	6f                   	outsl  %ds:(%esi),(%dx)
     283:	6e                   	outsb  %ds:(%esi),(%dx)
     284:	2e 68 00 03 00 00    	cs push $0x300
     28a:	65 65 5f             	gs gs pop %edi
     28d:	63 6f 6e             	arpl   %bp,0x6e(%edi)
     290:	74 65                	je     2f7 <_scga-0xb7d09>
     292:	78 74                	js     308 <_scga-0xb7cf8>
     294:	2e 68 00 01 00 00    	cs push $0x100
     29a:	65 65 5f             	gs gs pop %edi
     29d:	70 72                	jo     311 <_scga-0xb7cef>
     29f:	69 6d 69 74 69 76 65 	imul   $0x65766974,0x69(%ebp),%ebp
     2a6:	73 2e                	jae    2d6 <_scga-0xb7d2a>
     2a8:	68 00 01 00 00       	push   $0x100
     2ad:	65 65 5f             	gs gs pop %edi
     2b0:	69 72 71 73 74 75 62 	imul   $0x62757473,0x71(%edx),%esi
     2b7:	2e 68 00 02 00 00    	cs push $0x200
     2bd:	65 65 5f             	gs gs pop %edi
     2c0:	61                   	popa   
     2c1:	73 73                	jae    336 <_scga-0xb7cca>
     2c3:	65 72 74             	gs jb  33a <_scga-0xb7cc6>
     2c6:	2e 68 00 04 00 00    	cs push $0x400
     2cc:	65 65 63 66 67       	gs arpl %sp,%gs:0x67(%esi)
     2d1:	2e 63 00             	arpl   %ax,%cs:(%eax)
     2d4:	00 00                	add    %al,(%eax)
     2d6:	00 00                	add    %al,(%eax)
     2d8:	5d                   	pop    %ebp
     2d9:	00 00                	add    %al,(%eax)
     2db:	00 02                	add    %al,(%edx)
     2dd:	00 44 00 00          	add    %al,0x0(%eax,%eax,1)
     2e1:	00 01                	add    %al,(%ecx)
     2e3:	01 fb                	add    %edi,%ebx
     2e5:	0e                   	push   %cs
     2e6:	0d 00 01 01 01       	or     $0x1010100,%eax
     2eb:	01 00                	add    %eax,(%eax)
     2ed:	00 00                	add    %al,(%eax)
     2ef:	01 00                	add    %eax,(%eax)
     2f1:	00 01                	add    %al,(%ecx)
     2f3:	2f                   	das    
     2f4:	68 6f 6d 65 2f       	push   $0x2f656d6f
     2f9:	6b 64 77 39 32       	imul   $0x32,0x39(%edi,%esi,2),%esp
     2fe:	34 32                	xor    $0x32,%al
     300:	2f                   	das    
     301:	45                   	inc    %ebp
     302:	72 69                	jb     36d <_scga-0xb7c93>
     304:	6b 61 2f 70          	imul   $0x70,0x2f(%ecx),%esp
     308:	6b 67 2f 63          	imul   $0x63,0x2f(%edi),%esp
     30c:	70 75                	jo     383 <_scga-0xb7c7d>
     30e:	2f                   	das    
     30f:	78 38                	js     349 <_scga-0xb7cb7>
     311:	36 2f                	ss das 
     313:	73 72                	jae    387 <_scga-0xb7c79>
     315:	63 00                	arpl   %ax,(%eax)
     317:	00 73 74             	add    %dh,0x74(%ebx)
     31a:	61                   	popa   
     31b:	72 74                	jb     391 <_scga-0xb7c6f>
     31d:	75 70                	jne    38f <_scga-0xb7c71>
     31f:	2e 53                	cs push %ebx
     321:	00 01                	add    %al,(%ecx)
     323:	00 00                	add    %al,(%eax)
     325:	00 00                	add    %al,(%eax)
     327:	05 02 30 3d 10       	add    $0x103d3002,%eax
     32c:	00 03                	add    %al,(%ebx)
     32e:	26 01 5a 60          	add    %ebx,%es:0x60(%edx)
     332:	21 22                	and    %esp,(%edx)
     334:	02 02                	add    (%edx),%al
     336:	00 01                	add    %al,(%ecx)
     338:	01 78 02             	add    %edi,0x2(%eax)
     33b:	00 00                	add    %al,(%eax)
     33d:	02 00                	add    (%eax),%al
     33f:	ca 01 00             	lret   $0x1
     342:	00 01                	add    %al,(%ecx)
     344:	01 fb                	add    %edi,%ebx
     346:	0e                   	push   %cs
     347:	0d 00 01 01 01       	or     $0x1010100,%eax
     34c:	01 00                	add    %eax,(%eax)
     34e:	00 00                	add    %al,(%eax)
     350:	01 00                	add    %eax,(%eax)
     352:	00 01                	add    %al,(%ecx)
     354:	2f                   	das    
     355:	68 6f 6d 65 2f       	push   $0x2f656d6f
     35a:	6b 64 77 39 32       	imul   $0x32,0x39(%edi,%esi,2),%esp
     35f:	34 32                	xor    $0x32,%al
     361:	2f                   	das    
     362:	45                   	inc    %ebp
     363:	72 69                	jb     3ce <_scga-0xb7c32>
     365:	6b 61 2f 70          	imul   $0x70,0x2f(%ecx),%esp
     369:	6b 67 2f 6d          	imul   $0x6d,0x2f(%edi),%esp
     36d:	63 75 2f             	arpl   %si,0x2f(%ebp)
     370:	78 38                	js     3aa <_scga-0xb7c56>
     372:	36 2f                	ss das 
     374:	73 72                	jae    3e8 <_scga-0xb7c18>
     376:	63 00                	arpl   %ax,(%eax)
     378:	2f                   	das    
     379:	75 73                	jne    3ee <_scga-0xb7c12>
     37b:	72 2f                	jb     3ac <_scga-0xb7c54>
     37d:	6c                   	insb   (%dx),%es:(%edi)
     37e:	69 62 2f 67 63 63 2f 	imul   $0x2f636367,0x2f(%edx),%esp
     385:	78 38                	js     3bf <_scga-0xb7c41>
     387:	36 5f                	ss pop %edi
     389:	36 34 2d             	ss xor $0x2d,%al
     38c:	72 65                	jb     3f3 <_scga-0xb7c0d>
     38e:	64 68 61 74 2d 6c    	fs push $0x6c2d7461
     394:	69 6e 75 78 2f 36 2e 	imul   $0x2e362f78,0x75(%esi),%ebp
     39b:	33 2e                	xor    (%esi),%ebp
     39d:	31 2f                	xor    %ebp,(%edi)
     39f:	69 6e 63 6c 75 64 65 	imul   $0x6564756c,0x63(%esi),%ebp
     3a6:	00 2f                	add    %ch,(%edi)
     3a8:	68 6f 6d 65 2f       	push   $0x2f656d6f
     3ad:	6b 64 77 39 32       	imul   $0x32,0x39(%edi,%esi,2),%esp
     3b2:	34 32                	xor    $0x32,%al
     3b4:	2f                   	das    
     3b5:	45                   	inc    %ebp
     3b6:	72 69                	jb     421 <_scga-0xb7bdf>
     3b8:	6b 61 2f 70          	imul   $0x70,0x2f(%ecx),%esp
     3bc:	6b 67 2f 63          	imul   $0x63,0x2f(%edi),%esp
     3c0:	70 75                	jo     437 <_scga-0xb7bc9>
     3c2:	2f                   	das    
     3c3:	63 6f 6d             	arpl   %bp,0x6d(%edi)
     3c6:	6d                   	insl   (%dx),%es:(%edi)
     3c7:	6f                   	outsl  %ds:(%esi),(%dx)
     3c8:	6e                   	outsb  %ds:(%esi),(%dx)
     3c9:	2f                   	das    
     3ca:	69 6e 63 00 2f 68 6f 	imul   $0x6f682f00,0x63(%esi),%ebp
     3d1:	6d                   	insl   (%dx),%es:(%edi)
     3d2:	65 2f                	gs das 
     3d4:	6b 64 77 39 32       	imul   $0x32,0x39(%edi,%esi,2),%esp
     3d9:	34 32                	xor    $0x32,%al
     3db:	2f                   	das    
     3dc:	45                   	inc    %ebp
     3dd:	72 69                	jb     448 <_scga-0xb7bb8>
     3df:	6b 61 2f 70          	imul   $0x70,0x2f(%ecx),%esp
     3e3:	6b 67 2f 63          	imul   $0x63,0x2f(%edi),%esp
     3e7:	70 75                	jo     45e <_scga-0xb7ba2>
     3e9:	2f                   	das    
     3ea:	78 38                	js     424 <_scga-0xb7bdc>
     3ec:	36 2f                	ss das 
     3ee:	69 6e 63 00 2f 68 6f 	imul   $0x6f682f00,0x63(%esi),%ebp
     3f5:	6d                   	insl   (%dx),%es:(%edi)
     3f6:	65 2f                	gs das 
     3f8:	6b 64 77 39 32       	imul   $0x32,0x39(%edi,%esi,2),%esp
     3fd:	34 32                	xor    $0x32,%al
     3ff:	2f                   	das    
     400:	45                   	inc    %ebp
     401:	72 69                	jb     46c <_scga-0xb7b94>
     403:	6b 61 2f 70          	imul   $0x70,0x2f(%ecx),%esp
     407:	6b 67 2f 6b          	imul   $0x6b,0x2f(%edi),%esp
     40b:	65 72 6e             	gs jb  47c <_scga-0xb7b84>
     40e:	65 6c                	gs insb (%dx),%es:(%edi)
     410:	2f                   	das    
     411:	66 70 2f             	data16 jo 443 <_scga-0xb7bbd>
     414:	69 6e 63 00 2f 68 6f 	imul   $0x6f682f00,0x63(%esi),%ebp
     41b:	6d                   	insl   (%dx),%es:(%edi)
     41c:	65 2f                	gs das 
     41e:	6b 64 77 39 32       	imul   $0x32,0x39(%edi,%esi,2),%esp
     423:	34 32                	xor    $0x32,%al
     425:	2f                   	das    
     426:	45                   	inc    %ebp
     427:	72 69                	jb     492 <_scga-0xb7b6e>
     429:	6b 61 2f 70          	imul   $0x70,0x2f(%ecx),%esp
     42d:	6b 67 2f 74          	imul   $0x74,0x2f(%edi),%esp
     431:	65 73 74             	gs jae 4a8 <_scga-0xb7b58>
     434:	2f                   	das    
     435:	61                   	popa   
     436:	73 73                	jae    4ab <_scga-0xb7b55>
     438:	65 72 74             	gs jb  4af <_scga-0xb7b51>
     43b:	2f                   	das    
     43c:	69 6e 63 00 2f 68 6f 	imul   $0x6f682f00,0x63(%esi),%ebp
     443:	6d                   	insl   (%dx),%es:(%edi)
     444:	65 2f                	gs das 
     446:	6b 64 77 39 32       	imul   $0x32,0x39(%edi,%esi,2),%esp
     44b:	34 32                	xor    $0x32,%al
     44d:	2f                   	das    
     44e:	45                   	inc    %ebp
     44f:	72 69                	jb     4ba <_scga-0xb7b46>
     451:	6b 61 2f 70          	imul   $0x70,0x2f(%ecx),%esp
     455:	6b 67 2f 6d          	imul   $0x6d,0x2f(%edi),%esp
     459:	63 75 2f             	arpl   %si,0x2f(%ebp)
     45c:	78 38                	js     496 <_scga-0xb7b6a>
     45e:	36 2f                	ss das 
     460:	69 6e 63 00 00 65 65 	imul   $0x65650000,0x63(%esi),%ebp
     467:	5f                   	pop    %edi
     468:	70 72                	jo     4dc <_scga-0xb7b24>
     46a:	69 6e 74 66 2e 63 00 	imul   $0x632e66,0x74(%esi),%ebp
     471:	01 00                	add    %eax,(%eax)
     473:	00 73 74             	add    %dh,0x74(%ebx)
     476:	64 61                	fs popa 
     478:	72 67                	jb     4e1 <_scga-0xb7b1f>
     47a:	2e 68 00 02 00 00    	cs push $0x200
     480:	65 65 5f             	gs gs pop %edi
     483:	74 79                	je     4fe <_scga-0xb7b02>
     485:	70 65                	jo     4ec <_scga-0xb7b14>
     487:	73 2e                	jae    4b7 <_scga-0xb7b49>
     489:	68 00 03 00 00       	push   $0x300
     48e:	65 65 5f             	gs gs pop %edi
     491:	63 70 75             	arpl   %si,0x75(%eax)
     494:	2e 68 00 04 00 00    	cs push $0x400
     49a:	65 65 5f             	gs gs pop %edi
     49d:	68 61 6c 5f 73       	push   $0x735f6c61
     4a2:	74 72                	je     516 <_scga-0xb7aea>
     4a4:	75 63                	jne    509 <_scga-0xb7af7>
     4a6:	74 73                	je     51b <_scga-0xb7ae5>
     4a8:	2e 68 00 03 00 00    	cs push $0x300
     4ae:	65 65 5f             	gs gs pop %edi
     4b1:	63 6f 6d             	arpl   %bp,0x6d(%edi)
     4b4:	6d                   	insl   (%dx),%es:(%edi)
     4b5:	6f                   	outsl  %ds:(%esi),(%dx)
     4b6:	6e                   	outsb  %ds:(%esi),(%dx)
     4b7:	2e 68 00 05 00 00    	cs push $0x500
     4bd:	65 65 5f             	gs gs pop %edi
     4c0:	63 6f 6e             	arpl   %bp,0x6e(%edi)
     4c3:	74 65                	je     52a <_scga-0xb7ad6>
     4c5:	78 74                	js     53b <_scga-0xb7ac5>
     4c7:	2e 68 00 03 00 00    	cs push $0x300
     4cd:	65 65 5f             	gs gs pop %edi
     4d0:	70 72                	jo     544 <_scga-0xb7abc>
     4d2:	69 6d 69 74 69 76 65 	imul   $0x65766974,0x69(%ebp),%ebp
     4d9:	73 2e                	jae    509 <_scga-0xb7af7>
     4db:	68 00 03 00 00       	push   $0x300
     4e0:	65 65 5f             	gs gs pop %edi
     4e3:	69 72 71 73 74 75 62 	imul   $0x62757473,0x71(%edx),%esi
     4ea:	2e 68 00 04 00 00    	cs push $0x400
     4f0:	65 65 5f             	gs gs pop %edi
     4f3:	61                   	popa   
     4f4:	73 73                	jae    569 <_scga-0xb7a97>
     4f6:	65 72 74             	gs jb  56d <_scga-0xb7a93>
     4f9:	2e 68 00 06 00 00    	cs push $0x600
     4ff:	65 65 5f             	gs gs pop %edi
     502:	75 61                	jne    565 <_scga-0xb7a9b>
     504:	72 74                	jb     57a <_scga-0xb7a86>
     506:	2e 68 00 07 00 00    	cs push $0x700
     50c:	00 00                	add    %al,(%eax)
     50e:	05 02 05 40 10       	add    $0x10400502,%eax
     513:	00 03                	add    %al,(%ebx)
     515:	24 01                	and    $0x1,%al
     517:	13 65 3d             	adc    0x3d(%ebp),%esp
     51a:	59                   	pop    %ecx
     51b:	1f                   	pop    %ds
     51c:	67 22 21             	and    (%bx,%di),%ah
     51f:	49                   	dec    %ecx
     520:	2f                   	das    
     521:	00 02                	add    %al,(%edx)
     523:	04 01                	add    $0x1,%al
     525:	06                   	push   %es
     526:	2e 00 02             	add    %al,%cs:(%edx)
     529:	04 08                	add    $0x8,%al
     52b:	e4 00                	in     $0x0,%al
     52d:	02 04 08             	add    (%eax,%ecx,1),%al
     530:	06                   	push   %es
     531:	9f                   	lahf   
     532:	00 02                	add    %al,(%edx)
     534:	04 08                	add    $0x8,%al
     536:	75 30                	jne    568 <_scga-0xb7a98>
     538:	14 72                	adc    $0x72,%al
     53a:	21 2d 3f 2d 67 4b    	and    %ebp,0x4b672d3f
     540:	2f                   	das    
     541:	e6 ca                	out    %al,$0xca
     543:	2d 59 03 63 3c       	sub    $0x3c630359,%eax
     548:	67 e5 03             	addr16 in $0x3,%eax
     54b:	1d 58 6b 37 3c       	sbb    $0x3c376b58,%eax
     550:	43                   	inc    %ebx
     551:	ad                   	lods   %ds:(%esi),%eax
     552:	4b                   	dec    %ebx
     553:	64 22 db             	fs and %bl,%bl
     556:	3d 49 3a 6a 3d       	cmp    $0x3d6a3a49,%eax
     55b:	49                   	dec    %ecx
     55c:	3f                   	aas    
     55d:	03 7a 3c             	add    0x3c(%edx),%edi
     560:	34 5a                	xor    $0x5a,%al
     562:	83 75 1f 2f          	xorl   $0x2f,0x1f(%ebp)
     566:	3b 5f 2b             	cmp    0x2b(%edi),%ebx
     569:	a0 75 02 41 17       	mov    0x17410275,%al
     56e:	59                   	pop    %ecx
     56f:	2d 67 00 02 04       	sub    $0x4020067,%eax
     574:	01 06                	add    %eax,(%esi)
     576:	2e 06                	cs push %es
     578:	4b                   	dec    %ebx
     579:	2f                   	das    
     57a:	57                   	push   %edi
     57b:	67 5a                	addr16 pop %edx
     57d:	9f                   	lahf   
     57e:	9f                   	lahf   
     57f:	9f                   	lahf   
     580:	79 2f                	jns    5b1 <_scga-0xb7a4f>
     582:	57                   	push   %edi
     583:	75 59                	jne    5de <_scga-0xb7a22>
     585:	9f                   	lahf   
     586:	9f                   	lahf   
     587:	9f                   	lahf   
     588:	b6 51                	mov    $0x51,%dh
     58a:	cb                   	lret   
     58b:	59                   	pop    %ecx
     58c:	30 03                	xor    %al,(%ebx)
     58e:	5e                   	pop    %esi
     58f:	82                   	(bad)  
     590:	03 22                	add    (%edx),%esp
     592:	58                   	pop    %eax
     593:	03 5e 9e             	add    -0x62(%esi),%ebx
     596:	03 26                	add    (%esi),%esp
     598:	58                   	pop    %eax
     599:	59                   	pop    %ecx
     59a:	65 68 00 02 04 01    	gs push $0x1040200
     5a0:	06                   	push   %es
     5a1:	08 ac 06 08 3f 00 02 	or     %ch,0x2003f08(%esi,%eax,1)
     5a8:	04 04                	add    $0x4,%al
     5aa:	67 08 a0 c9 08       	or     %ah,0x8c9(%bx,%si)
     5af:	42                   	inc    %edx
     5b0:	02 08                	add    (%eax),%cl
     5b2:	00 01                	add    %al,(%ecx)
     5b4:	01 bb 01 00 00 02    	add    %edi,0x2000001(%ebx)
     5ba:	00 8f 01 00 00 01    	add    %cl,0x1000001(%edi)
     5c0:	01 fb                	add    %edi,%ebx
     5c2:	0e                   	push   %cs
     5c3:	0d 00 01 01 01       	or     $0x1010100,%eax
     5c8:	01 00                	add    %eax,(%eax)
     5ca:	00 00                	add    %al,(%eax)
     5cc:	01 00                	add    %eax,(%eax)
     5ce:	00 01                	add    %al,(%ecx)
     5d0:	2f                   	das    
     5d1:	68 6f 6d 65 2f       	push   $0x2f656d6f
     5d6:	6b 64 77 39 32       	imul   $0x32,0x39(%edi,%esi,2),%esp
     5db:	34 32                	xor    $0x32,%al
     5dd:	2f                   	das    
     5de:	45                   	inc    %ebp
     5df:	72 69                	jb     64a <_scga-0xb79b6>
     5e1:	6b 61 2f 70          	imul   $0x70,0x2f(%ecx),%esp
     5e5:	6b 67 2f 63          	imul   $0x63,0x2f(%edi),%esp
     5e9:	70 75                	jo     660 <_scga-0xb79a0>
     5eb:	2f                   	das    
     5ec:	78 38                	js     626 <_scga-0xb79da>
     5ee:	36 2f                	ss das 
     5f0:	73 72                	jae    664 <_scga-0xb799c>
     5f2:	63 00                	arpl   %ax,(%eax)
     5f4:	2f                   	das    
     5f5:	68 6f 6d 65 2f       	push   $0x2f656d6f
     5fa:	6b 64 77 39 32       	imul   $0x32,0x39(%edi,%esi,2),%esp
     5ff:	34 32                	xor    $0x32,%al
     601:	2f                   	das    
     602:	45                   	inc    %ebp
     603:	72 69                	jb     66e <_scga-0xb7992>
     605:	6b 61 2f 70          	imul   $0x70,0x2f(%ecx),%esp
     609:	6b 67 2f 63          	imul   $0x63,0x2f(%edi),%esp
     60d:	70 75                	jo     684 <_scga-0xb797c>
     60f:	2f                   	das    
     610:	63 6f 6d             	arpl   %bp,0x6d(%edi)
     613:	6d                   	insl   (%dx),%es:(%edi)
     614:	6f                   	outsl  %ds:(%esi),(%dx)
     615:	6e                   	outsb  %ds:(%esi),(%dx)
     616:	2f                   	das    
     617:	69 6e 63 00 2f 68 6f 	imul   $0x6f682f00,0x63(%esi),%ebp
     61e:	6d                   	insl   (%dx),%es:(%edi)
     61f:	65 2f                	gs das 
     621:	6b 64 77 39 32       	imul   $0x32,0x39(%edi,%esi,2),%esp
     626:	34 32                	xor    $0x32,%al
     628:	2f                   	das    
     629:	45                   	inc    %ebp
     62a:	72 69                	jb     695 <_scga-0xb796b>
     62c:	6b 61 2f 70          	imul   $0x70,0x2f(%ecx),%esp
     630:	6b 67 2f 63          	imul   $0x63,0x2f(%edi),%esp
     634:	70 75                	jo     6ab <_scga-0xb7955>
     636:	2f                   	das    
     637:	78 38                	js     671 <_scga-0xb798f>
     639:	36 2f                	ss das 
     63b:	69 6e 63 00 2f 68 6f 	imul   $0x6f682f00,0x63(%esi),%ebp
     642:	6d                   	insl   (%dx),%es:(%edi)
     643:	65 2f                	gs das 
     645:	6b 64 77 39 32       	imul   $0x32,0x39(%edi,%esi,2),%esp
     64a:	34 32                	xor    $0x32,%al
     64c:	2f                   	das    
     64d:	45                   	inc    %ebp
     64e:	72 69                	jb     6b9 <_scga-0xb7947>
     650:	6b 61 2f 70          	imul   $0x70,0x2f(%ecx),%esp
     654:	6b 67 2f 6b          	imul   $0x6b,0x2f(%edi),%esp
     658:	65 72 6e             	gs jb  6c9 <_scga-0xb7937>
     65b:	65 6c                	gs insb (%dx),%es:(%edi)
     65d:	2f                   	das    
     65e:	66 70 2f             	data16 jo 690 <_scga-0xb7970>
     661:	69 6e 63 00 2f 68 6f 	imul   $0x6f682f00,0x63(%esi),%ebp
     668:	6d                   	insl   (%dx),%es:(%edi)
     669:	65 2f                	gs das 
     66b:	6b 64 77 39 32       	imul   $0x32,0x39(%edi,%esi,2),%esp
     670:	34 32                	xor    $0x32,%al
     672:	2f                   	das    
     673:	45                   	inc    %ebp
     674:	72 69                	jb     6df <_scga-0xb7921>
     676:	6b 61 2f 70          	imul   $0x70,0x2f(%ecx),%esp
     67a:	6b 67 2f 74          	imul   $0x74,0x2f(%edi),%esp
     67e:	65 73 74             	gs jae 6f5 <_scga-0xb790b>
     681:	2f                   	das    
     682:	61                   	popa   
     683:	73 73                	jae    6f8 <_scga-0xb7908>
     685:	65 72 74             	gs jb  6fc <_scga-0xb7904>
     688:	2f                   	das    
     689:	69 6e 63 00 2f 68 6f 	imul   $0x6f682f00,0x63(%esi),%ebp
     690:	6d                   	insl   (%dx),%es:(%edi)
     691:	65 2f                	gs das 
     693:	6b 64 77 39 32       	imul   $0x32,0x39(%edi,%esi,2),%esp
     698:	34 32                	xor    $0x32,%al
     69a:	2f                   	das    
     69b:	45                   	inc    %ebp
     69c:	72 69                	jb     707 <_scga-0xb78f9>
     69e:	6b 61 2f 70          	imul   $0x70,0x2f(%ecx),%esp
     6a2:	6b 67 2f 6d          	imul   $0x6d,0x2f(%edi),%esp
     6a6:	63 75 2f             	arpl   %si,0x2f(%ebp)
     6a9:	78 38                	js     6e3 <_scga-0xb791d>
     6ab:	36 2f                	ss das 
     6ad:	69 6e 63 00 00 65 65 	imul   $0x65650000,0x63(%esi),%ebp
     6b4:	5f                   	pop    %edi
     6b5:	73 74                	jae    72b <_scga-0xb78d5>
     6b7:	61                   	popa   
     6b8:	72 74                	jb     72e <_scga-0xb78d2>
     6ba:	75 70                	jne    72c <_scga-0xb78d4>
     6bc:	2e 63 00             	arpl   %ax,%cs:(%eax)
     6bf:	01 00                	add    %eax,(%eax)
     6c1:	00 65 65             	add    %ah,0x65(%ebp)
     6c4:	5f                   	pop    %edi
     6c5:	74 79                	je     740 <_scga-0xb78c0>
     6c7:	70 65                	jo     72e <_scga-0xb78d2>
     6c9:	73 2e                	jae    6f9 <_scga-0xb7907>
     6cb:	68 00 02 00 00       	push   $0x200
     6d0:	65 65 5f             	gs gs pop %edi
     6d3:	63 70 75             	arpl   %si,0x75(%eax)
     6d6:	2e 68 00 03 00 00    	cs push $0x300
     6dc:	65 65 5f             	gs gs pop %edi
     6df:	68 61 6c 5f 73       	push   $0x735f6c61
     6e4:	74 72                	je     758 <_scga-0xb78a8>
     6e6:	75 63                	jne    74b <_scga-0xb78b5>
     6e8:	74 73                	je     75d <_scga-0xb78a3>
     6ea:	2e 68 00 02 00 00    	cs push $0x200
     6f0:	65 65 5f             	gs gs pop %edi
     6f3:	63 6f 6d             	arpl   %bp,0x6d(%edi)
     6f6:	6d                   	insl   (%dx),%es:(%edi)
     6f7:	6f                   	outsl  %ds:(%esi),(%dx)
     6f8:	6e                   	outsb  %ds:(%esi),(%dx)
     6f9:	2e 68 00 04 00 00    	cs push $0x400
     6ff:	65 65 5f             	gs gs pop %edi
     702:	63 6f 6e             	arpl   %bp,0x6e(%edi)
     705:	74 65                	je     76c <_scga-0xb7894>
     707:	78 74                	js     77d <_scga-0xb7883>
     709:	2e 68 00 02 00 00    	cs push $0x200
     70f:	65 65 5f             	gs gs pop %edi
     712:	70 72                	jo     786 <_scga-0xb787a>
     714:	69 6d 69 74 69 76 65 	imul   $0x65766974,0x69(%ebp),%ebp
     71b:	73 2e                	jae    74b <_scga-0xb78b5>
     71d:	68 00 02 00 00       	push   $0x200
     722:	65 65 5f             	gs gs pop %edi
     725:	69 72 71 73 74 75 62 	imul   $0x62757473,0x71(%edx),%esi
     72c:	2e 68 00 03 00 00    	cs push $0x300
     732:	65 65 5f             	gs gs pop %edi
     735:	61                   	popa   
     736:	73 73                	jae    7ab <_scga-0xb7855>
     738:	65 72 74             	gs jb  7af <_scga-0xb7851>
     73b:	2e 68 00 05 00 00    	cs push $0x500
     741:	65 65 5f             	gs gs pop %edi
     744:	6d                   	insl   (%dx),%es:(%edi)
     745:	63 75 2e             	arpl   %si,0x2e(%ebp)
     748:	68 00 06 00 00       	push   $0x600
     74d:	00 00                	add    %al,(%eax)
     74f:	05 02 ac 42 10       	add    $0x1042ac02,%eax
     754:	00 19                	add    %bl,(%ecx)
     756:	6b 00 02             	imul   $0x2,(%eax),%eax
     759:	04 01                	add    $0x1,%al
     75b:	06                   	push   %es
     75c:	74 00                	je     75e <_scga-0xb78a2>
     75e:	02 04 03             	add    (%ebx,%eax,1),%al
     761:	06                   	push   %es
     762:	a0 00 02 04 03       	mov    0x3040200,%al
     767:	56                   	push   %esi
     768:	b0 03                	mov    $0x3,%al
     76a:	09 2e                	or     %ebp,(%esi)
     76c:	67 5a                	addr16 pop %edx
     76e:	5b                   	pop    %ebx
     76f:	02 05 00 01 01 24    	add    0x24010100,%al
     775:	02 00                	add    (%eax),%al
     777:	00 02                	add    %al,(%edx)
     779:	00 c3                	add    %al,%bl
     77b:	01 00                	add    %eax,(%eax)
     77d:	00 01                	add    %al,(%ecx)
     77f:	01 fb                	add    %edi,%ebx
     781:	0e                   	push   %cs
     782:	0d 00 01 01 01       	or     $0x1010100,%eax
     787:	01 00                	add    %eax,(%eax)
     789:	00 00                	add    %al,(%eax)
     78b:	01 00                	add    %eax,(%eax)
     78d:	00 01                	add    %al,(%ecx)
     78f:	2f                   	das    
     790:	68 6f 6d 65 2f       	push   $0x2f656d6f
     795:	6b 64 77 39 32       	imul   $0x32,0x39(%edi,%esi,2),%esp
     79a:	34 32                	xor    $0x32,%al
     79c:	2f                   	das    
     79d:	45                   	inc    %ebp
     79e:	72 69                	jb     809 <_scga-0xb77f7>
     7a0:	6b 61 2f 70          	imul   $0x70,0x2f(%ecx),%esp
     7a4:	6b 67 2f 6d          	imul   $0x6d,0x2f(%edi),%esp
     7a8:	63 75 2f             	arpl   %si,0x2f(%ebp)
     7ab:	78 38                	js     7e5 <_scga-0xb781b>
     7ad:	36 2f                	ss das 
     7af:	73 72                	jae    823 <_scga-0xb77dd>
     7b1:	63 00                	arpl   %ax,(%eax)
     7b3:	2f                   	das    
     7b4:	68 6f 6d 65 2f       	push   $0x2f656d6f
     7b9:	6b 64 77 39 32       	imul   $0x32,0x39(%edi,%esi,2),%esp
     7be:	34 32                	xor    $0x32,%al
     7c0:	2f                   	das    
     7c1:	45                   	inc    %ebp
     7c2:	72 69                	jb     82d <_scga-0xb77d3>
     7c4:	6b 61 2f 70          	imul   $0x70,0x2f(%ecx),%esp
     7c8:	6b 67 2f 6d          	imul   $0x6d,0x2f(%edi),%esp
     7cc:	63 75 2f             	arpl   %si,0x2f(%ebp)
     7cf:	78 38                	js     809 <_scga-0xb77f7>
     7d1:	36 2f                	ss das 
     7d3:	69 6e 63 00 2f 68 6f 	imul   $0x6f682f00,0x63(%esi),%ebp
     7da:	6d                   	insl   (%dx),%es:(%edi)
     7db:	65 2f                	gs das 
     7dd:	6b 64 77 39 32       	imul   $0x32,0x39(%edi,%esi,2),%esp
     7e2:	34 32                	xor    $0x32,%al
     7e4:	2f                   	das    
     7e5:	45                   	inc    %ebp
     7e6:	72 69                	jb     851 <_scga-0xb77af>
     7e8:	6b 61 2f 70          	imul   $0x70,0x2f(%ecx),%esp
     7ec:	6b 67 2f 63          	imul   $0x63,0x2f(%edi),%esp
     7f0:	70 75                	jo     867 <_scga-0xb7799>
     7f2:	2f                   	das    
     7f3:	63 6f 6d             	arpl   %bp,0x6d(%edi)
     7f6:	6d                   	insl   (%dx),%es:(%edi)
     7f7:	6f                   	outsl  %ds:(%esi),(%dx)
     7f8:	6e                   	outsb  %ds:(%esi),(%dx)
     7f9:	2f                   	das    
     7fa:	69 6e 63 00 2f 68 6f 	imul   $0x6f682f00,0x63(%esi),%ebp
     801:	6d                   	insl   (%dx),%es:(%edi)
     802:	65 2f                	gs das 
     804:	6b 64 77 39 32       	imul   $0x32,0x39(%edi,%esi,2),%esp
     809:	34 32                	xor    $0x32,%al
     80b:	2f                   	das    
     80c:	45                   	inc    %ebp
     80d:	72 69                	jb     878 <_scga-0xb7788>
     80f:	6b 61 2f 70          	imul   $0x70,0x2f(%ecx),%esp
     813:	6b 67 2f 63          	imul   $0x63,0x2f(%edi),%esp
     817:	70 75                	jo     88e <_scga-0xb7772>
     819:	2f                   	das    
     81a:	78 38                	js     854 <_scga-0xb77ac>
     81c:	36 2f                	ss das 
     81e:	69 6e 63 00 2f 68 6f 	imul   $0x6f682f00,0x63(%esi),%ebp
     825:	6d                   	insl   (%dx),%es:(%edi)
     826:	65 2f                	gs das 
     828:	6b 64 77 39 32       	imul   $0x32,0x39(%edi,%esi,2),%esp
     82d:	34 32                	xor    $0x32,%al
     82f:	2f                   	das    
     830:	45                   	inc    %ebp
     831:	72 69                	jb     89c <_scga-0xb7764>
     833:	6b 61 2f 70          	imul   $0x70,0x2f(%ecx),%esp
     837:	6b 67 2f 6b          	imul   $0x6b,0x2f(%edi),%esp
     83b:	65 72 6e             	gs jb  8ac <_scga-0xb7754>
     83e:	65 6c                	gs insb (%dx),%es:(%edi)
     840:	2f                   	das    
     841:	66 70 2f             	data16 jo 873 <_scga-0xb778d>
     844:	69 6e 63 00 2f 68 6f 	imul   $0x6f682f00,0x63(%esi),%ebp
     84b:	6d                   	insl   (%dx),%es:(%edi)
     84c:	65 2f                	gs das 
     84e:	6b 64 77 39 32       	imul   $0x32,0x39(%edi,%esi,2),%esp
     853:	34 32                	xor    $0x32,%al
     855:	2f                   	das    
     856:	45                   	inc    %ebp
     857:	72 69                	jb     8c2 <_scga-0xb773e>
     859:	6b 61 2f 70          	imul   $0x70,0x2f(%ecx),%esp
     85d:	6b 67 2f 74          	imul   $0x74,0x2f(%edi),%esp
     861:	65 73 74             	gs jae 8d8 <_scga-0xb7728>
     864:	2f                   	das    
     865:	61                   	popa   
     866:	73 73                	jae    8db <_scga-0xb7725>
     868:	65 72 74             	gs jb  8df <_scga-0xb7721>
     86b:	2f                   	das    
     86c:	69 6e 63 00 00 65 65 	imul   $0x65650000,0x63(%esi),%ebp
     873:	5f                   	pop    %edi
     874:	6d                   	insl   (%dx),%es:(%edi)
     875:	63 75 2e             	arpl   %si,0x2e(%ebp)
     878:	63 00                	arpl   %ax,(%eax)
     87a:	01 00                	add    %eax,(%eax)
     87c:	00 65 65             	add    %ah,0x65(%ebp)
     87f:	5f                   	pop    %edi
     880:	69 6f 70 6f 72 74 2e 	imul   $0x2e74726f,0x70(%edi),%ebp
     887:	68 00 02 00 00       	push   $0x200
     88c:	65 65 5f             	gs gs pop %edi
     88f:	6c                   	insb   (%dx),%es:(%edi)
     890:	61                   	popa   
     891:	70 69                	jo     8fc <_scga-0xb7704>
     893:	63 2e                	arpl   %bp,(%esi)
     895:	68 00 02 00 00       	push   $0x200
     89a:	65 65 5f             	gs gs pop %edi
     89d:	74 79                	je     918 <_scga-0xb76e8>
     89f:	70 65                	jo     906 <_scga-0xb76fa>
     8a1:	73 2e                	jae    8d1 <_scga-0xb772f>
     8a3:	68 00 03 00 00       	push   $0x300
     8a8:	65 65 5f             	gs gs pop %edi
     8ab:	63 70 75             	arpl   %si,0x75(%eax)
     8ae:	2e 68 00 04 00 00    	cs push $0x400
     8b4:	65 65 5f             	gs gs pop %edi
     8b7:	68 61 6c 5f 73       	push   $0x735f6c61
     8bc:	74 72                	je     930 <_scga-0xb76d0>
     8be:	75 63                	jne    923 <_scga-0xb76dd>
     8c0:	74 73                	je     935 <_scga-0xb76cb>
     8c2:	2e 68 00 03 00 00    	cs push $0x300
     8c8:	65 65 5f             	gs gs pop %edi
     8cb:	63 6f 6d             	arpl   %bp,0x6d(%edi)
     8ce:	6d                   	insl   (%dx),%es:(%edi)
     8cf:	6f                   	outsl  %ds:(%esi),(%dx)
     8d0:	6e                   	outsb  %ds:(%esi),(%dx)
     8d1:	2e 68 00 05 00 00    	cs push $0x500
     8d7:	65 65 5f             	gs gs pop %edi
     8da:	63 6f 6e             	arpl   %bp,0x6e(%edi)
     8dd:	74 65                	je     944 <_scga-0xb76bc>
     8df:	78 74                	js     955 <_scga-0xb76ab>
     8e1:	2e 68 00 03 00 00    	cs push $0x300
     8e7:	65 65 5f             	gs gs pop %edi
     8ea:	70 72                	jo     95e <_scga-0xb76a2>
     8ec:	69 6d 69 74 69 76 65 	imul   $0x65766974,0x69(%ebp),%ebp
     8f3:	73 2e                	jae    923 <_scga-0xb76dd>
     8f5:	68 00 03 00 00       	push   $0x300
     8fa:	65 65 5f             	gs gs pop %edi
     8fd:	69 72 71 73 74 75 62 	imul   $0x62757473,0x71(%edx),%esi
     904:	2e 68 00 04 00 00    	cs push $0x400
     90a:	65 65 5f             	gs gs pop %edi
     90d:	61                   	popa   
     90e:	73 73                	jae    983 <_scga-0xb767d>
     910:	65 72 74             	gs jb  987 <_scga-0xb7679>
     913:	2e 68 00 06 00 00    	cs push $0x600
     919:	65 65 5f             	gs gs pop %edi
     91c:	70 69                	jo     987 <_scga-0xb7679>
     91e:	63 2e                	arpl   %bp,(%esi)
     920:	68 00 02 00 00       	push   $0x200
     925:	65 65 5f             	gs gs pop %edi
     928:	67 64 74 2e          	addr16 fs je 95a <_scga-0xb76a6>
     92c:	68 00 02 00 00       	push   $0x200
     931:	65 65 5f             	gs gs pop %edi
     934:	69 6f 61 70 69 63 2e 	imul   $0x2e636970,0x61(%edi),%ebp
     93b:	68 00 02 00 00       	push   $0x200
     940:	00 00                	add    %al,(%eax)
     942:	05 02 ea 42 10       	add    $0x1042ea02,%eax
     947:	00 15 68 59 04 02    	add    %dl,0x2045968
     94d:	03 3b                	add    (%ebx),%edi
     94f:	58                   	pop    %eax
     950:	03 73 82             	add    -0x7e(%ebx),%esi
     953:	03 16                	add    (%esi),%edx
     955:	4a                   	dec    %edx
     956:	03 6a 2e             	add    0x2e(%edx),%ebp
     959:	03 16                	add    (%esi),%edx
     95b:	2e 03 6a 2e          	add    %cs:0x2e(%edx),%ebp
     95f:	03 16                	add    (%esi),%edx
     961:	4a                   	dec    %edx
     962:	03 6a 2e             	add    0x2e(%edx),%ebp
     965:	03 16                	add    (%esi),%edx
     967:	4a                   	dec    %edx
     968:	03 6a 2e             	add    0x2e(%edx),%ebp
     96b:	03 16                	add    (%esi),%edx
     96d:	4a                   	dec    %edx
     96e:	03 6a 2e             	add    0x2e(%edx),%ebp
     971:	03 16                	add    (%esi),%edx
     973:	4a                   	dec    %edx
     974:	03 6a 2e             	add    0x2e(%edx),%ebp
     977:	03 16                	add    (%esi),%edx
     979:	4a                   	dec    %edx
     97a:	03 6a 2e             	add    0x2e(%edx),%ebp
     97d:	03 16                	add    (%esi),%edx
     97f:	2e 03 6a 2e          	add    %cs:0x2e(%edx),%ebp
     983:	04 03                	add    $0x3,%al
     985:	03 15 82 5e 03 76    	add    0x76035e82,%edx
     98b:	3c 04                	cmp    $0x4,%al
     98d:	02 03                	add    (%ebx),%al
     98f:	6f                   	outsl  %ds:(%esi),(%dx)
     990:	58                   	pop    %eax
     991:	04 01                	add    $0x1,%al
     993:	03 5b 66             	add    0x66(%ebx),%ebx
     996:	1d 02 05 00 01       	sbb    $0x1000502,%eax
     99b:	01 a5 01 00 00 02    	add    %esp,0x2000001(%ebp)
     9a1:	00 5b 01             	add    %bl,0x1(%ebx)
     9a4:	00 00                	add    %al,(%eax)
     9a6:	01 01                	add    %eax,(%ecx)
     9a8:	fb                   	sti    
     9a9:	0e                   	push   %cs
     9aa:	0d 00 01 01 01       	or     $0x1010100,%eax
     9af:	01 00                	add    %eax,(%eax)
     9b1:	00 00                	add    %al,(%eax)
     9b3:	01 00                	add    %eax,(%eax)
     9b5:	00 01                	add    %al,(%ecx)
     9b7:	2f                   	das    
     9b8:	68 6f 6d 65 2f       	push   $0x2f656d6f
     9bd:	6b 64 77 39 32       	imul   $0x32,0x39(%edi,%esi,2),%esp
     9c2:	34 32                	xor    $0x32,%al
     9c4:	2f                   	das    
     9c5:	45                   	inc    %ebp
     9c6:	72 69                	jb     a31 <_scga-0xb75cf>
     9c8:	6b 61 2f 70          	imul   $0x70,0x2f(%ecx),%esp
     9cc:	6b 67 2f 6d          	imul   $0x6d,0x2f(%edi),%esp
     9d0:	63 75 2f             	arpl   %si,0x2f(%ebp)
     9d3:	78 38                	js     a0d <_scga-0xb75f3>
     9d5:	36 2f                	ss das 
     9d7:	73 72                	jae    a4b <_scga-0xb75b5>
     9d9:	63 00                	arpl   %ax,(%eax)
     9db:	2f                   	das    
     9dc:	68 6f 6d 65 2f       	push   $0x2f656d6f
     9e1:	6b 64 77 39 32       	imul   $0x32,0x39(%edi,%esi,2),%esp
     9e6:	34 32                	xor    $0x32,%al
     9e8:	2f                   	das    
     9e9:	45                   	inc    %ebp
     9ea:	72 69                	jb     a55 <_scga-0xb75ab>
     9ec:	6b 61 2f 70          	imul   $0x70,0x2f(%ecx),%esp
     9f0:	6b 67 2f 63          	imul   $0x63,0x2f(%edi),%esp
     9f4:	70 75                	jo     a6b <_scga-0xb7595>
     9f6:	2f                   	das    
     9f7:	63 6f 6d             	arpl   %bp,0x6d(%edi)
     9fa:	6d                   	insl   (%dx),%es:(%edi)
     9fb:	6f                   	outsl  %ds:(%esi),(%dx)
     9fc:	6e                   	outsb  %ds:(%esi),(%dx)
     9fd:	2f                   	das    
     9fe:	69 6e 63 00 2f 68 6f 	imul   $0x6f682f00,0x63(%esi),%ebp
     a05:	6d                   	insl   (%dx),%es:(%edi)
     a06:	65 2f                	gs das 
     a08:	6b 64 77 39 32       	imul   $0x32,0x39(%edi,%esi,2),%esp
     a0d:	34 32                	xor    $0x32,%al
     a0f:	2f                   	das    
     a10:	45                   	inc    %ebp
     a11:	72 69                	jb     a7c <_scga-0xb7584>
     a13:	6b 61 2f 70          	imul   $0x70,0x2f(%ecx),%esp
     a17:	6b 67 2f 63          	imul   $0x63,0x2f(%edi),%esp
     a1b:	70 75                	jo     a92 <_scga-0xb756e>
     a1d:	2f                   	das    
     a1e:	78 38                	js     a58 <_scga-0xb75a8>
     a20:	36 2f                	ss das 
     a22:	69 6e 63 00 2f 68 6f 	imul   $0x6f682f00,0x63(%esi),%ebp
     a29:	6d                   	insl   (%dx),%es:(%edi)
     a2a:	65 2f                	gs das 
     a2c:	6b 64 77 39 32       	imul   $0x32,0x39(%edi,%esi,2),%esp
     a31:	34 32                	xor    $0x32,%al
     a33:	2f                   	das    
     a34:	45                   	inc    %ebp
     a35:	72 69                	jb     aa0 <_scga-0xb7560>
     a37:	6b 61 2f 70          	imul   $0x70,0x2f(%ecx),%esp
     a3b:	6b 67 2f 6b          	imul   $0x6b,0x2f(%edi),%esp
     a3f:	65 72 6e             	gs jb  ab0 <_scga-0xb7550>
     a42:	65 6c                	gs insb (%dx),%es:(%edi)
     a44:	2f                   	das    
     a45:	66 70 2f             	data16 jo a77 <_scga-0xb7589>
     a48:	69 6e 63 00 2f 68 6f 	imul   $0x6f682f00,0x63(%esi),%ebp
     a4f:	6d                   	insl   (%dx),%es:(%edi)
     a50:	65 2f                	gs das 
     a52:	6b 64 77 39 32       	imul   $0x32,0x39(%edi,%esi,2),%esp
     a57:	34 32                	xor    $0x32,%al
     a59:	2f                   	das    
     a5a:	45                   	inc    %ebp
     a5b:	72 69                	jb     ac6 <_scga-0xb753a>
     a5d:	6b 61 2f 70          	imul   $0x70,0x2f(%ecx),%esp
     a61:	6b 67 2f 74          	imul   $0x74,0x2f(%edi),%esp
     a65:	65 73 74             	gs jae adc <_scga-0xb7524>
     a68:	2f                   	das    
     a69:	61                   	popa   
     a6a:	73 73                	jae    adf <_scga-0xb7521>
     a6c:	65 72 74             	gs jb  ae3 <_scga-0xb751d>
     a6f:	2f                   	das    
     a70:	69 6e 63 00 00 65 65 	imul   $0x65650000,0x63(%esi),%ebp
     a77:	5f                   	pop    %edi
     a78:	67 64 74 2e          	addr16 fs je aaa <_scga-0xb7556>
     a7c:	63 00                	arpl   %ax,(%eax)
     a7e:	01 00                	add    %eax,(%eax)
     a80:	00 65 65             	add    %ah,0x65(%ebp)
     a83:	5f                   	pop    %edi
     a84:	74 79                	je     aff <_scga-0xb7501>
     a86:	70 65                	jo     aed <_scga-0xb7513>
     a88:	73 2e                	jae    ab8 <_scga-0xb7548>
     a8a:	68 00 02 00 00       	push   $0x200
     a8f:	65 65 5f             	gs gs pop %edi
     a92:	63 70 75             	arpl   %si,0x75(%eax)
     a95:	2e 68 00 03 00 00    	cs push $0x300
     a9b:	65 65 5f             	gs gs pop %edi
     a9e:	68 61 6c 5f 73       	push   $0x735f6c61
     aa3:	74 72                	je     b17 <_scga-0xb74e9>
     aa5:	75 63                	jne    b0a <_scga-0xb74f6>
     aa7:	74 73                	je     b1c <_scga-0xb74e4>
     aa9:	2e 68 00 02 00 00    	cs push $0x200
     aaf:	65 65 5f             	gs gs pop %edi
     ab2:	63 6f 6d             	arpl   %bp,0x6d(%edi)
     ab5:	6d                   	insl   (%dx),%es:(%edi)
     ab6:	6f                   	outsl  %ds:(%esi),(%dx)
     ab7:	6e                   	outsb  %ds:(%esi),(%dx)
     ab8:	2e 68 00 04 00 00    	cs push $0x400
     abe:	65 65 5f             	gs gs pop %edi
     ac1:	63 6f 6e             	arpl   %bp,0x6e(%edi)
     ac4:	74 65                	je     b2b <_scga-0xb74d5>
     ac6:	78 74                	js     b3c <_scga-0xb74c4>
     ac8:	2e 68 00 02 00 00    	cs push $0x200
     ace:	65 65 5f             	gs gs pop %edi
     ad1:	70 72                	jo     b45 <_scga-0xb74bb>
     ad3:	69 6d 69 74 69 76 65 	imul   $0x65766974,0x69(%ebp),%ebp
     ada:	73 2e                	jae    b0a <_scga-0xb74f6>
     adc:	68 00 02 00 00       	push   $0x200
     ae1:	65 65 5f             	gs gs pop %edi
     ae4:	69 72 71 73 74 75 62 	imul   $0x62757473,0x71(%edx),%esi
     aeb:	2e 68 00 03 00 00    	cs push $0x300
     af1:	65 65 5f             	gs gs pop %edi
     af4:	61                   	popa   
     af5:	73 73                	jae    b6a <_scga-0xb7496>
     af7:	65 72 74             	gs jb  b6e <_scga-0xb7492>
     afa:	2e 68 00 05 00 00    	cs push $0x500
     b00:	00 00                	add    %al,(%eax)
     b02:	05 02 4f 43 10       	add    $0x10434f02,%eax
     b07:	00 03                	add    %al,(%ebx)
     b09:	3a 01                	cmp    (%ecx),%al
     b0b:	22 91 03 6f 9e 03    	and    0x39e6f03(%ecx),%dl
     b11:	0e                   	push   %cs
     b12:	90                   	nop
     b13:	03 73 2e             	add    0x2e(%ebx),%esi
     b16:	75 77                	jne    b8f <_scga-0xb7471>
     b18:	94                   	xchg   %eax,%esp
     b19:	75 03                	jne    b1e <_scga-0xb74e2>
     b1b:	76 74                	jbe    b91 <_scga-0xb746f>
     b1d:	91                   	xchg   %eax,%ecx
     b1e:	75 77                	jne    b97 <_scga-0xb7469>
     b20:	94                   	xchg   %eax,%esp
     b21:	75 03                	jne    b26 <_scga-0xb74da>
     b23:	76 74                	jbe    b99 <_scga-0xb7467>
     b25:	91                   	xchg   %eax,%ecx
     b26:	75 77                	jne    b9f <_scga-0xb7461>
     b28:	94                   	xchg   %eax,%esp
     b29:	75 03                	jne    b2e <_scga-0xb74d2>
     b2b:	76 74                	jbe    ba1 <_scga-0xb745f>
     b2d:	91                   	xchg   %eax,%ecx
     b2e:	75 77                	jne    ba7 <_scga-0xb7459>
     b30:	94                   	xchg   %eax,%esp
     b31:	75 03                	jne    b36 <_scga-0xb74ca>
     b33:	76 74                	jbe    ba9 <_scga-0xb7457>
     b35:	91                   	xchg   %eax,%ecx
     b36:	75 77                	jne    baf <_scga-0xb7451>
     b38:	94                   	xchg   %eax,%esp
     b39:	75 03                	jne    b3e <_scga-0xb74c2>
     b3b:	23 74 77 e8          	and    -0x18(%edi,%esi,2),%esi
     b3f:	76 02                	jbe    b43 <_scga-0xb74bd>
     b41:	02 00                	add    (%eax),%al
     b43:	01 01                	add    %eax,(%ecx)
     b45:	bd 01 00 00 02       	mov    $0x2000001,%ebp
     b4a:	00 91 01 00 00 01    	add    %dl,0x1000001(%ecx)
     b50:	01 fb                	add    %edi,%ebx
     b52:	0e                   	push   %cs
     b53:	0d 00 01 01 01       	or     $0x1010100,%eax
     b58:	01 00                	add    %eax,(%eax)
     b5a:	00 00                	add    %al,(%eax)
     b5c:	01 00                	add    %eax,(%eax)
     b5e:	00 01                	add    %al,(%ecx)
     b60:	2f                   	das    
     b61:	68 6f 6d 65 2f       	push   $0x2f656d6f
     b66:	6b 64 77 39 32       	imul   $0x32,0x39(%edi,%esi,2),%esp
     b6b:	34 32                	xor    $0x32,%al
     b6d:	2f                   	das    
     b6e:	45                   	inc    %ebp
     b6f:	72 69                	jb     bda <_scga-0xb7426>
     b71:	6b 61 2f 70          	imul   $0x70,0x2f(%ecx),%esp
     b75:	6b 67 2f 6d          	imul   $0x6d,0x2f(%edi),%esp
     b79:	63 75 2f             	arpl   %si,0x2f(%ebp)
     b7c:	78 38                	js     bb6 <_scga-0xb744a>
     b7e:	36 2f                	ss das 
     b80:	73 72                	jae    bf4 <_scga-0xb740c>
     b82:	63 00                	arpl   %ax,(%eax)
     b84:	2f                   	das    
     b85:	68 6f 6d 65 2f       	push   $0x2f656d6f
     b8a:	6b 64 77 39 32       	imul   $0x32,0x39(%edi,%esi,2),%esp
     b8f:	34 32                	xor    $0x32,%al
     b91:	2f                   	das    
     b92:	45                   	inc    %ebp
     b93:	72 69                	jb     bfe <_scga-0xb7402>
     b95:	6b 61 2f 70          	imul   $0x70,0x2f(%ecx),%esp
     b99:	6b 67 2f 63          	imul   $0x63,0x2f(%edi),%esp
     b9d:	70 75                	jo     c14 <_scga-0xb73ec>
     b9f:	2f                   	das    
     ba0:	63 6f 6d             	arpl   %bp,0x6d(%edi)
     ba3:	6d                   	insl   (%dx),%es:(%edi)
     ba4:	6f                   	outsl  %ds:(%esi),(%dx)
     ba5:	6e                   	outsb  %ds:(%esi),(%dx)
     ba6:	2f                   	das    
     ba7:	69 6e 63 00 2f 68 6f 	imul   $0x6f682f00,0x63(%esi),%ebp
     bae:	6d                   	insl   (%dx),%es:(%edi)
     baf:	65 2f                	gs das 
     bb1:	6b 64 77 39 32       	imul   $0x32,0x39(%edi,%esi,2),%esp
     bb6:	34 32                	xor    $0x32,%al
     bb8:	2f                   	das    
     bb9:	45                   	inc    %ebp
     bba:	72 69                	jb     c25 <_scga-0xb73db>
     bbc:	6b 61 2f 70          	imul   $0x70,0x2f(%ecx),%esp
     bc0:	6b 67 2f 63          	imul   $0x63,0x2f(%edi),%esp
     bc4:	70 75                	jo     c3b <_scga-0xb73c5>
     bc6:	2f                   	das    
     bc7:	78 38                	js     c01 <_scga-0xb73ff>
     bc9:	36 2f                	ss das 
     bcb:	69 6e 63 00 2f 68 6f 	imul   $0x6f682f00,0x63(%esi),%ebp
     bd2:	6d                   	insl   (%dx),%es:(%edi)
     bd3:	65 2f                	gs das 
     bd5:	6b 64 77 39 32       	imul   $0x32,0x39(%edi,%esi,2),%esp
     bda:	34 32                	xor    $0x32,%al
     bdc:	2f                   	das    
     bdd:	45                   	inc    %ebp
     bde:	72 69                	jb     c49 <_scga-0xb73b7>
     be0:	6b 61 2f 70          	imul   $0x70,0x2f(%ecx),%esp
     be4:	6b 67 2f 6b          	imul   $0x6b,0x2f(%edi),%esp
     be8:	65 72 6e             	gs jb  c59 <_scga-0xb73a7>
     beb:	65 6c                	gs insb (%dx),%es:(%edi)
     bed:	2f                   	das    
     bee:	66 70 2f             	data16 jo c20 <_scga-0xb73e0>
     bf1:	69 6e 63 00 2f 68 6f 	imul   $0x6f682f00,0x63(%esi),%ebp
     bf8:	6d                   	insl   (%dx),%es:(%edi)
     bf9:	65 2f                	gs das 
     bfb:	6b 64 77 39 32       	imul   $0x32,0x39(%edi,%esi,2),%esp
     c00:	34 32                	xor    $0x32,%al
     c02:	2f                   	das    
     c03:	45                   	inc    %ebp
     c04:	72 69                	jb     c6f <_scga-0xb7391>
     c06:	6b 61 2f 70          	imul   $0x70,0x2f(%ecx),%esp
     c0a:	6b 67 2f 74          	imul   $0x74,0x2f(%edi),%esp
     c0e:	65 73 74             	gs jae c85 <_scga-0xb737b>
     c11:	2f                   	das    
     c12:	61                   	popa   
     c13:	73 73                	jae    c88 <_scga-0xb7378>
     c15:	65 72 74             	gs jb  c8c <_scga-0xb7374>
     c18:	2f                   	das    
     c19:	69 6e 63 00 2f 68 6f 	imul   $0x6f682f00,0x63(%esi),%ebp
     c20:	6d                   	insl   (%dx),%es:(%edi)
     c21:	65 2f                	gs das 
     c23:	6b 64 77 39 32       	imul   $0x32,0x39(%edi,%esi,2),%esp
     c28:	34 32                	xor    $0x32,%al
     c2a:	2f                   	das    
     c2b:	45                   	inc    %ebp
     c2c:	72 69                	jb     c97 <_scga-0xb7369>
     c2e:	6b 61 2f 70          	imul   $0x70,0x2f(%ecx),%esp
     c32:	6b 67 2f 6d          	imul   $0x6d,0x2f(%edi),%esp
     c36:	63 75 2f             	arpl   %si,0x2f(%ebp)
     c39:	78 38                	js     c73 <_scga-0xb738d>
     c3b:	36 2f                	ss das 
     c3d:	69 6e 63 00 00 65 65 	imul   $0x65650000,0x63(%esi),%ebp
     c44:	5f                   	pop    %edi
     c45:	69 6f 61 70 69 63 2e 	imul   $0x2e636970,0x61(%edi),%ebp
     c4c:	63 00                	arpl   %ax,(%eax)
     c4e:	01 00                	add    %eax,(%eax)
     c50:	00 65 65             	add    %ah,0x65(%ebp)
     c53:	5f                   	pop    %edi
     c54:	74 79                	je     ccf <_scga-0xb7331>
     c56:	70 65                	jo     cbd <_scga-0xb7343>
     c58:	73 2e                	jae    c88 <_scga-0xb7378>
     c5a:	68 00 02 00 00       	push   $0x200
     c5f:	65 65 5f             	gs gs pop %edi
     c62:	63 70 75             	arpl   %si,0x75(%eax)
     c65:	2e 68 00 03 00 00    	cs push $0x300
     c6b:	65 65 5f             	gs gs pop %edi
     c6e:	68 61 6c 5f 73       	push   $0x735f6c61
     c73:	74 72                	je     ce7 <_scga-0xb7319>
     c75:	75 63                	jne    cda <_scga-0xb7326>
     c77:	74 73                	je     cec <_scga-0xb7314>
     c79:	2e 68 00 02 00 00    	cs push $0x200
     c7f:	65 65 5f             	gs gs pop %edi
     c82:	63 6f 6d             	arpl   %bp,0x6d(%edi)
     c85:	6d                   	insl   (%dx),%es:(%edi)
     c86:	6f                   	outsl  %ds:(%esi),(%dx)
     c87:	6e                   	outsb  %ds:(%esi),(%dx)
     c88:	2e 68 00 04 00 00    	cs push $0x400
     c8e:	65 65 5f             	gs gs pop %edi
     c91:	63 6f 6e             	arpl   %bp,0x6e(%edi)
     c94:	74 65                	je     cfb <_scga-0xb7305>
     c96:	78 74                	js     d0c <_scga-0xb72f4>
     c98:	2e 68 00 02 00 00    	cs push $0x200
     c9e:	65 65 5f             	gs gs pop %edi
     ca1:	70 72                	jo     d15 <_scga-0xb72eb>
     ca3:	69 6d 69 74 69 76 65 	imul   $0x65766974,0x69(%ebp),%ebp
     caa:	73 2e                	jae    cda <_scga-0xb7326>
     cac:	68 00 02 00 00       	push   $0x200
     cb1:	65 65 5f             	gs gs pop %edi
     cb4:	69 72 71 73 74 75 62 	imul   $0x62757473,0x71(%edx),%esi
     cbb:	2e 68 00 03 00 00    	cs push $0x300
     cc1:	65 65 5f             	gs gs pop %edi
     cc4:	61                   	popa   
     cc5:	73 73                	jae    d3a <_scga-0xb72c6>
     cc7:	65 72 74             	gs jb  d3e <_scga-0xb72c2>
     cca:	2e 68 00 05 00 00    	cs push $0x500
     cd0:	65 65 5f             	gs gs pop %edi
     cd3:	69 6f 61 70 69 63 2e 	imul   $0x2e636970,0x61(%edi),%ebp
     cda:	68 00 06 00 00       	push   $0x600
     cdf:	00 00                	add    %al,(%eax)
     ce1:	05 02 6a 44 10       	add    $0x10446a02,%eax
     ce6:	00 03                	add    %al,(%ebx)
     ce8:	15 01 3e 30 3d       	adc    $0x3d303e01,%eax
     ced:	51                   	push   %ecx
     cee:	48                   	dec    %eax
     cef:	03 6c 4a 9f          	add    -0x61(%edx,%ecx,2),%ebp
     cf3:	03 0f                	add    (%edi),%ecx
     cf5:	66 31 3f             	xor    %di,(%edi)
     cf8:	08 48 03             	or     %cl,0x3(%eax)
     cfb:	6c                   	insb   (%dx),%es:(%edi)
     cfc:	82                   	(bad)  
     cfd:	bb 03 16 58 02       	mov    $0x2581603,%ebx
     d02:	02 00                	add    (%eax),%al
     d04:	01 01                	add    %eax,(%ecx)
     d06:	e9 01 00 00 02       	jmp    2000d0c <gdt+0x1dfecac>
     d0b:	00 8f 01 00 00 01    	add    %cl,0x1000001(%edi)
     d11:	01 fb                	add    %edi,%ebx
     d13:	0e                   	push   %cs
     d14:	0d 00 01 01 01       	or     $0x1010100,%eax
     d19:	01 00                	add    %eax,(%eax)
     d1b:	00 00                	add    %al,(%eax)
     d1d:	01 00                	add    %eax,(%eax)
     d1f:	00 01                	add    %al,(%ecx)
     d21:	2f                   	das    
     d22:	68 6f 6d 65 2f       	push   $0x2f656d6f
     d27:	6b 64 77 39 32       	imul   $0x32,0x39(%edi,%esi,2),%esp
     d2c:	34 32                	xor    $0x32,%al
     d2e:	2f                   	das    
     d2f:	45                   	inc    %ebp
     d30:	72 69                	jb     d9b <_scga-0xb7265>
     d32:	6b 61 2f 70          	imul   $0x70,0x2f(%ecx),%esp
     d36:	6b 67 2f 6d          	imul   $0x6d,0x2f(%edi),%esp
     d3a:	63 75 2f             	arpl   %si,0x2f(%ebp)
     d3d:	78 38                	js     d77 <_scga-0xb7289>
     d3f:	36 2f                	ss das 
     d41:	73 72                	jae    db5 <_scga-0xb724b>
     d43:	63 00                	arpl   %ax,(%eax)
     d45:	2f                   	das    
     d46:	68 6f 6d 65 2f       	push   $0x2f656d6f
     d4b:	6b 64 77 39 32       	imul   $0x32,0x39(%edi,%esi,2),%esp
     d50:	34 32                	xor    $0x32,%al
     d52:	2f                   	das    
     d53:	45                   	inc    %ebp
     d54:	72 69                	jb     dbf <_scga-0xb7241>
     d56:	6b 61 2f 70          	imul   $0x70,0x2f(%ecx),%esp
     d5a:	6b 67 2f 6d          	imul   $0x6d,0x2f(%edi),%esp
     d5e:	63 75 2f             	arpl   %si,0x2f(%ebp)
     d61:	78 38                	js     d9b <_scga-0xb7265>
     d63:	36 2f                	ss das 
     d65:	69 6e 63 00 2f 68 6f 	imul   $0x6f682f00,0x63(%esi),%ebp
     d6c:	6d                   	insl   (%dx),%es:(%edi)
     d6d:	65 2f                	gs das 
     d6f:	6b 64 77 39 32       	imul   $0x32,0x39(%edi,%esi,2),%esp
     d74:	34 32                	xor    $0x32,%al
     d76:	2f                   	das    
     d77:	45                   	inc    %ebp
     d78:	72 69                	jb     de3 <_scga-0xb721d>
     d7a:	6b 61 2f 70          	imul   $0x70,0x2f(%ecx),%esp
     d7e:	6b 67 2f 63          	imul   $0x63,0x2f(%edi),%esp
     d82:	70 75                	jo     df9 <_scga-0xb7207>
     d84:	2f                   	das    
     d85:	63 6f 6d             	arpl   %bp,0x6d(%edi)
     d88:	6d                   	insl   (%dx),%es:(%edi)
     d89:	6f                   	outsl  %ds:(%esi),(%dx)
     d8a:	6e                   	outsb  %ds:(%esi),(%dx)
     d8b:	2f                   	das    
     d8c:	69 6e 63 00 2f 68 6f 	imul   $0x6f682f00,0x63(%esi),%ebp
     d93:	6d                   	insl   (%dx),%es:(%edi)
     d94:	65 2f                	gs das 
     d96:	6b 64 77 39 32       	imul   $0x32,0x39(%edi,%esi,2),%esp
     d9b:	34 32                	xor    $0x32,%al
     d9d:	2f                   	das    
     d9e:	45                   	inc    %ebp
     d9f:	72 69                	jb     e0a <_scga-0xb71f6>
     da1:	6b 61 2f 70          	imul   $0x70,0x2f(%ecx),%esp
     da5:	6b 67 2f 63          	imul   $0x63,0x2f(%edi),%esp
     da9:	70 75                	jo     e20 <_scga-0xb71e0>
     dab:	2f                   	das    
     dac:	78 38                	js     de6 <_scga-0xb721a>
     dae:	36 2f                	ss das 
     db0:	69 6e 63 00 2f 68 6f 	imul   $0x6f682f00,0x63(%esi),%ebp
     db7:	6d                   	insl   (%dx),%es:(%edi)
     db8:	65 2f                	gs das 
     dba:	6b 64 77 39 32       	imul   $0x32,0x39(%edi,%esi,2),%esp
     dbf:	34 32                	xor    $0x32,%al
     dc1:	2f                   	das    
     dc2:	45                   	inc    %ebp
     dc3:	72 69                	jb     e2e <_scga-0xb71d2>
     dc5:	6b 61 2f 70          	imul   $0x70,0x2f(%ecx),%esp
     dc9:	6b 67 2f 6b          	imul   $0x6b,0x2f(%edi),%esp
     dcd:	65 72 6e             	gs jb  e3e <_scga-0xb71c2>
     dd0:	65 6c                	gs insb (%dx),%es:(%edi)
     dd2:	2f                   	das    
     dd3:	66 70 2f             	data16 jo e05 <_scga-0xb71fb>
     dd6:	69 6e 63 00 2f 68 6f 	imul   $0x6f682f00,0x63(%esi),%ebp
     ddd:	6d                   	insl   (%dx),%es:(%edi)
     dde:	65 2f                	gs das 
     de0:	6b 64 77 39 32       	imul   $0x32,0x39(%edi,%esi,2),%esp
     de5:	34 32                	xor    $0x32,%al
     de7:	2f                   	das    
     de8:	45                   	inc    %ebp
     de9:	72 69                	jb     e54 <_scga-0xb71ac>
     deb:	6b 61 2f 70          	imul   $0x70,0x2f(%ecx),%esp
     def:	6b 67 2f 74          	imul   $0x74,0x2f(%edi),%esp
     df3:	65 73 74             	gs jae e6a <_scga-0xb7196>
     df6:	2f                   	das    
     df7:	61                   	popa   
     df8:	73 73                	jae    e6d <_scga-0xb7193>
     dfa:	65 72 74             	gs jb  e71 <_scga-0xb718f>
     dfd:	2f                   	das    
     dfe:	69 6e 63 00 00 65 65 	imul   $0x65650000,0x63(%esi),%ebp
     e05:	5f                   	pop    %edi
     e06:	75 61                	jne    e69 <_scga-0xb7197>
     e08:	72 74                	jb     e7e <_scga-0xb7182>
     e0a:	2e 63 00             	arpl   %ax,%cs:(%eax)
     e0d:	01 00                	add    %eax,(%eax)
     e0f:	00 65 65             	add    %ah,0x65(%ebp)
     e12:	5f                   	pop    %edi
     e13:	69 6f 70 6f 72 74 2e 	imul   $0x2e74726f,0x70(%edi),%ebp
     e1a:	68 00 02 00 00       	push   $0x200
     e1f:	65 65 5f             	gs gs pop %edi
     e22:	74 79                	je     e9d <_scga-0xb7163>
     e24:	70 65                	jo     e8b <_scga-0xb7175>
     e26:	73 2e                	jae    e56 <_scga-0xb71aa>
     e28:	68 00 03 00 00       	push   $0x300
     e2d:	65 65 5f             	gs gs pop %edi
     e30:	63 70 75             	arpl   %si,0x75(%eax)
     e33:	2e 68 00 04 00 00    	cs push $0x400
     e39:	65 65 5f             	gs gs pop %edi
     e3c:	68 61 6c 5f 73       	push   $0x735f6c61
     e41:	74 72                	je     eb5 <_scga-0xb714b>
     e43:	75 63                	jne    ea8 <_scga-0xb7158>
     e45:	74 73                	je     eba <_scga-0xb7146>
     e47:	2e 68 00 03 00 00    	cs push $0x300
     e4d:	65 65 5f             	gs gs pop %edi
     e50:	63 6f 6d             	arpl   %bp,0x6d(%edi)
     e53:	6d                   	insl   (%dx),%es:(%edi)
     e54:	6f                   	outsl  %ds:(%esi),(%dx)
     e55:	6e                   	outsb  %ds:(%esi),(%dx)
     e56:	2e 68 00 05 00 00    	cs push $0x500
     e5c:	65 65 5f             	gs gs pop %edi
     e5f:	63 6f 6e             	arpl   %bp,0x6e(%edi)
     e62:	74 65                	je     ec9 <_scga-0xb7137>
     e64:	78 74                	js     eda <_scga-0xb7126>
     e66:	2e 68 00 03 00 00    	cs push $0x300
     e6c:	65 65 5f             	gs gs pop %edi
     e6f:	70 72                	jo     ee3 <_scga-0xb711d>
     e71:	69 6d 69 74 69 76 65 	imul   $0x65766974,0x69(%ebp),%ebp
     e78:	73 2e                	jae    ea8 <_scga-0xb7158>
     e7a:	68 00 03 00 00       	push   $0x300
     e7f:	65 65 5f             	gs gs pop %edi
     e82:	69 72 71 73 74 75 62 	imul   $0x62757473,0x71(%edx),%esi
     e89:	2e 68 00 04 00 00    	cs push $0x400
     e8f:	65 65 5f             	gs gs pop %edi
     e92:	61                   	popa   
     e93:	73 73                	jae    f08 <_scga-0xb70f8>
     e95:	65 72 74             	gs jb  f0c <_scga-0xb70f4>
     e98:	2e 68 00 06 00 00    	cs push $0x600
     e9e:	00 00                	add    %al,(%eax)
     ea0:	05 02 c3 44 10       	add    $0x1044c302,%eax
     ea5:	00 03                	add    %al,(%ebx)
     ea7:	32 01                	xor    (%ecx),%al
     ea9:	04 02                	add    $0x2,%al
     eab:	22 04 01             	and    (%ecx,%eax,1),%al
     eae:	2c 4a                	sub    $0x4a,%al
     eb0:	3d 04 02 3d 04       	cmp    $0x43d0204,%eax
     eb5:	01 3c 04             	add    %edi,(%esp,%eax,1)
     eb8:	02 3c 04             	add    (%esp,%eax,1),%bh
     ebb:	01 08                	add    %ecx,(%eax)
     ebd:	5c                   	pop    %esp
     ebe:	04 02                	add    $0x2,%al
     ec0:	38 04 01             	cmp    %al,(%ecx,%eax,1)
     ec3:	41                   	inc    %ecx
     ec4:	04 02                	add    $0x2,%al
     ec6:	37                   	aaa    
     ec7:	04 01                	add    $0x1,%al
     ec9:	27                   	daa    
     eca:	6a 4a                	push   $0x4a
     ecc:	6a 04                	push   $0x4
     ece:	02 00                	add    (%eax),%al
     ed0:	02 04 01             	add    (%ecx,%eax,1),%al
     ed3:	3a 04 01             	cmp    (%ecx,%eax,1),%al
     ed6:	00 02                	add    %al,(%edx)
     ed8:	04 01                	add    $0x1,%al
     eda:	23 04 02             	and    (%edx,%eax,1),%eax
     edd:	03 70 4a             	add    0x4a(%eax),%esi
     ee0:	04 01                	add    $0x1,%al
     ee2:	03 15 58 5a 66 68    	add    0x68665a58,%edx
     ee8:	3b 75 bc             	cmp    -0x44(%ebp),%esi
     eeb:	ad                   	lods   %ds:(%esi),%eax
     eec:	bb 73 02 02 00       	mov    $0x20273,%ebx
     ef1:	01 01                	add    %eax,(%ecx)
     ef3:	e4 01                	in     $0x1,%al
     ef5:	00 00                	add    %al,(%eax)
     ef7:	02 00                	add    (%eax),%al
     ef9:	b0 01                	mov    $0x1,%al
     efb:	00 00                	add    %al,(%eax)
     efd:	01 01                	add    %eax,(%ecx)
     eff:	fb                   	sti    
     f00:	0e                   	push   %cs
     f01:	0d 00 01 01 01       	or     $0x1010100,%eax
     f06:	01 00                	add    %eax,(%eax)
     f08:	00 00                	add    %al,(%eax)
     f0a:	01 00                	add    %eax,(%eax)
     f0c:	00 01                	add    %al,(%ecx)
     f0e:	2f                   	das    
     f0f:	68 6f 6d 65 2f       	push   $0x2f656d6f
     f14:	6b 64 77 39 32       	imul   $0x32,0x39(%edi,%esi,2),%esp
     f19:	34 32                	xor    $0x32,%al
     f1b:	2f                   	das    
     f1c:	45                   	inc    %ebp
     f1d:	72 69                	jb     f88 <_scga-0xb7078>
     f1f:	6b 61 2f 70          	imul   $0x70,0x2f(%ecx),%esp
     f23:	6b 67 2f 63          	imul   $0x63,0x2f(%edi),%esp
     f27:	70 75                	jo     f9e <_scga-0xb7062>
     f29:	2f                   	das    
     f2a:	78 38                	js     f64 <_scga-0xb709c>
     f2c:	36 2f                	ss das 
     f2e:	73 72                	jae    fa2 <_scga-0xb705e>
     f30:	63 00                	arpl   %ax,(%eax)
     f32:	2f                   	das    
     f33:	68 6f 6d 65 2f       	push   $0x2f656d6f
     f38:	6b 64 77 39 32       	imul   $0x32,0x39(%edi,%esi,2),%esp
     f3d:	34 32                	xor    $0x32,%al
     f3f:	2f                   	das    
     f40:	45                   	inc    %ebp
     f41:	72 69                	jb     fac <_scga-0xb7054>
     f43:	6b 61 2f 70          	imul   $0x70,0x2f(%ecx),%esp
     f47:	6b 67 2f 63          	imul   $0x63,0x2f(%edi),%esp
     f4b:	70 75                	jo     fc2 <_scga-0xb703e>
     f4d:	2f                   	das    
     f4e:	63 6f 6d             	arpl   %bp,0x6d(%edi)
     f51:	6d                   	insl   (%dx),%es:(%edi)
     f52:	6f                   	outsl  %ds:(%esi),(%dx)
     f53:	6e                   	outsb  %ds:(%esi),(%dx)
     f54:	2f                   	das    
     f55:	69 6e 63 00 2f 68 6f 	imul   $0x6f682f00,0x63(%esi),%ebp
     f5c:	6d                   	insl   (%dx),%es:(%edi)
     f5d:	65 2f                	gs das 
     f5f:	6b 64 77 39 32       	imul   $0x32,0x39(%edi,%esi,2),%esp
     f64:	34 32                	xor    $0x32,%al
     f66:	2f                   	das    
     f67:	45                   	inc    %ebp
     f68:	72 69                	jb     fd3 <_scga-0xb702d>
     f6a:	6b 61 2f 70          	imul   $0x70,0x2f(%ecx),%esp
     f6e:	6b 67 2f 63          	imul   $0x63,0x2f(%edi),%esp
     f72:	70 75                	jo     fe9 <_scga-0xb7017>
     f74:	2f                   	das    
     f75:	78 38                	js     faf <_scga-0xb7051>
     f77:	36 2f                	ss das 
     f79:	69 6e 63 00 2f 68 6f 	imul   $0x6f682f00,0x63(%esi),%ebp
     f80:	6d                   	insl   (%dx),%es:(%edi)
     f81:	65 2f                	gs das 
     f83:	6b 64 77 39 32       	imul   $0x32,0x39(%edi,%esi,2),%esp
     f88:	34 32                	xor    $0x32,%al
     f8a:	2f                   	das    
     f8b:	45                   	inc    %ebp
     f8c:	72 69                	jb     ff7 <_scga-0xb7009>
     f8e:	6b 61 2f 70          	imul   $0x70,0x2f(%ecx),%esp
     f92:	6b 67 2f 6b          	imul   $0x6b,0x2f(%edi),%esp
     f96:	65 72 6e             	gs jb  1007 <_scga-0xb6ff9>
     f99:	65 6c                	gs insb (%dx),%es:(%edi)
     f9b:	2f                   	das    
     f9c:	66 70 2f             	data16 jo fce <_scga-0xb7032>
     f9f:	69 6e 63 00 2f 68 6f 	imul   $0x6f682f00,0x63(%esi),%ebp
     fa6:	6d                   	insl   (%dx),%es:(%edi)
     fa7:	65 2f                	gs das 
     fa9:	6b 64 77 39 32       	imul   $0x32,0x39(%edi,%esi,2),%esp
     fae:	34 32                	xor    $0x32,%al
     fb0:	2f                   	das    
     fb1:	45                   	inc    %ebp
     fb2:	72 69                	jb     101d <_scga-0xb6fe3>
     fb4:	6b 61 2f 70          	imul   $0x70,0x2f(%ecx),%esp
     fb8:	6b 67 2f 74          	imul   $0x74,0x2f(%edi),%esp
     fbc:	65 73 74             	gs jae 1033 <_scga-0xb6fcd>
     fbf:	2f                   	das    
     fc0:	61                   	popa   
     fc1:	73 73                	jae    1036 <_scga-0xb6fca>
     fc3:	65 72 74             	gs jb  103a <_scga-0xb6fc6>
     fc6:	2f                   	das    
     fc7:	69 6e 63 00 2f 68 6f 	imul   $0x6f682f00,0x63(%esi),%ebp
     fce:	6d                   	insl   (%dx),%es:(%edi)
     fcf:	65 2f                	gs das 
     fd1:	6b 64 77 39 32       	imul   $0x32,0x39(%edi,%esi,2),%esp
     fd6:	34 32                	xor    $0x32,%al
     fd8:	2f                   	das    
     fd9:	45                   	inc    %ebp
     fda:	72 69                	jb     1045 <_scga-0xb6fbb>
     fdc:	6b 61 2f 70          	imul   $0x70,0x2f(%ecx),%esp
     fe0:	6b 67 2f 6d          	imul   $0x6d,0x2f(%edi),%esp
     fe4:	63 75 2f             	arpl   %si,0x2f(%ebp)
     fe7:	78 38                	js     1021 <_scga-0xb6fdf>
     fe9:	36 2f                	ss das 
     feb:	69 6e 63 00 00 65 65 	imul   $0x65650000,0x63(%esi),%ebp
     ff2:	5f                   	pop    %edi
     ff3:	69 72 71 73 74 75 62 	imul   $0x62757473,0x71(%edx),%esi
     ffa:	2e 63 00             	arpl   %ax,%cs:(%eax)
     ffd:	01 00                	add    %eax,(%eax)
     fff:	00 65 65             	add    %ah,0x65(%ebp)
    1002:	5f                   	pop    %edi
    1003:	69 72 71 73 74 75 62 	imul   $0x62757473,0x71(%edx),%esi
    100a:	2e 68 00 02 00 00    	cs push $0x200
    1010:	65 65 5f             	gs gs pop %edi
    1013:	63 70 75             	arpl   %si,0x75(%eax)
    1016:	2e 68 00 03 00 00    	cs push $0x300
    101c:	65 65 5f             	gs gs pop %edi
    101f:	74 79                	je     109a <_scga-0xb6f66>
    1021:	70 65                	jo     1088 <_scga-0xb6f78>
    1023:	73 2e                	jae    1053 <_scga-0xb6fad>
    1025:	68 00 02 00 00       	push   $0x200
    102a:	65 65 5f             	gs gs pop %edi
    102d:	68 61 6c 5f 73       	push   $0x735f6c61
    1032:	74 72                	je     10a6 <_scga-0xb6f5a>
    1034:	75 63                	jne    1099 <_scga-0xb6f67>
    1036:	74 73                	je     10ab <_scga-0xb6f55>
    1038:	2e 68 00 02 00 00    	cs push $0x200
    103e:	65 65 5f             	gs gs pop %edi
    1041:	63 6f 6d             	arpl   %bp,0x6d(%edi)
    1044:	6d                   	insl   (%dx),%es:(%edi)
    1045:	6f                   	outsl  %ds:(%esi),(%dx)
    1046:	6e                   	outsb  %ds:(%esi),(%dx)
    1047:	2e 68 00 04 00 00    	cs push $0x400
    104d:	65 65 5f             	gs gs pop %edi
    1050:	63 6f 6e             	arpl   %bp,0x6e(%edi)
    1053:	74 65                	je     10ba <_scga-0xb6f46>
    1055:	78 74                	js     10cb <_scga-0xb6f35>
    1057:	2e 68 00 02 00 00    	cs push $0x200
    105d:	65 65 5f             	gs gs pop %edi
    1060:	70 72                	jo     10d4 <_scga-0xb6f2c>
    1062:	69 6d 69 74 69 76 65 	imul   $0x65766974,0x69(%ebp),%ebp
    1069:	73 2e                	jae    1099 <_scga-0xb6f67>
    106b:	68 00 02 00 00       	push   $0x200
    1070:	65 65 5f             	gs gs pop %edi
    1073:	69 72 71 73 74 75 62 	imul   $0x62757473,0x71(%edx),%esi
    107a:	2e 68 00 03 00 00    	cs push $0x300
    1080:	65 65 5f             	gs gs pop %edi
    1083:	61                   	popa   
    1084:	73 73                	jae    10f9 <_scga-0xb6f07>
    1086:	65 72 74             	gs jb  10fd <_scga-0xb6f03>
    1089:	2e 68 00 05 00 00    	cs push $0x500
    108f:	65 65 5f             	gs gs pop %edi
    1092:	6c                   	insb   (%dx),%es:(%edi)
    1093:	61                   	popa   
    1094:	70 69                	jo     10ff <_scga-0xb6f01>
    1096:	63 2e                	arpl   %bp,(%esi)
    1098:	68 00 06 00 00       	push   $0x600
    109d:	65 65 5f             	gs gs pop %edi
    10a0:	70 72                	jo     1114 <_scga-0xb6eec>
    10a2:	69 6e 74 66 2e 68 00 	imul   $0x682e66,0x74(%esi),%ebp
    10a9:	06                   	push   %es
    10aa:	00 00                	add    %al,(%eax)
    10ac:	00 00                	add    %al,(%eax)
    10ae:	05 02 5a 45 10       	add    $0x10455a02,%eax
    10b3:	00 03                	add    %al,(%ebx)
    10b5:	0a 01                	or     (%ecx),%al
    10b7:	04 02                	add    $0x2,%al
    10b9:	03 ca                	add    %edx,%ecx
    10bb:	00 66 04             	add    %ah,0x4(%esi)
    10be:	01 03                	add    %eax,(%ebx)
    10c0:	b8 7f 9e 04 03       	mov    $0x3049e7f,%eax
    10c5:	03 cd                	add    %ebp,%ecx
    10c7:	01 c8                	add    %ecx,%eax
    10c9:	e7 04                	out    %eax,$0x4
    10cb:	01 03                	add    %eax,(%ebx)
    10cd:	d9 7e 3c             	fnstcw 0x3c(%esi)
    10d0:	03 09                	add    (%ecx),%ecx
    10d2:	66 67 75 4b          	data16 addr16 jne 1121 <_scga-0xb6edf>
    10d6:	02 02                	add    (%edx),%al
    10d8:	00 01                	add    %al,(%ecx)
    10da:	01 9b 00 00 00 02    	add    %ebx,0x2000000(%ebx)
    10e0:	00 4c 00 00          	add    %cl,0x0(%eax,%eax,1)
    10e4:	00 01                	add    %al,(%ecx)
    10e6:	01 fb                	add    %edi,%ebx
    10e8:	0e                   	push   %cs
    10e9:	0d 00 01 01 01       	or     $0x1010100,%eax
    10ee:	01 00                	add    %eax,(%eax)
    10f0:	00 00                	add    %al,(%eax)
    10f2:	01 00                	add    %eax,(%eax)
    10f4:	00 01                	add    %al,(%ecx)
    10f6:	2f                   	das    
    10f7:	68 6f 6d 65 2f       	push   $0x2f656d6f
    10fc:	6b 64 77 39 32       	imul   $0x32,0x39(%edi,%esi,2),%esp
    1101:	34 32                	xor    $0x32,%al
    1103:	2f                   	das    
    1104:	45                   	inc    %ebp
    1105:	72 69                	jb     1170 <_scga-0xb6e90>
    1107:	6b 61 2f 70          	imul   $0x70,0x2f(%ecx),%esp
    110b:	6b 67 2f 63          	imul   $0x63,0x2f(%edi),%esp
    110f:	70 75                	jo     1186 <_scga-0xb6e7a>
    1111:	2f                   	das    
    1112:	78 38                	js     114c <_scga-0xb6eb4>
    1114:	36 2f                	ss das 
    1116:	73 72                	jae    118a <_scga-0xb6e76>
    1118:	63 00                	arpl   %ax,(%eax)
    111a:	00 65 65             	add    %ah,0x65(%ebp)
    111d:	5f                   	pop    %edi
    111e:	69 64 74 5f 68 61 6e 	imul   $0x646e6168,0x5f(%esp,%esi,2),%esp
    1125:	64 
    1126:	6c                   	insb   (%dx),%es:(%edi)
    1127:	65 72 73             	gs jb  119d <_scga-0xb6e63>
    112a:	2e 53                	cs push %ebx
    112c:	00 01                	add    %al,(%ecx)
    112e:	00 00                	add    %al,(%eax)
    1130:	00 00                	add    %al,(%eax)
    1132:	05 02 00 10 10       	add    $0x10100002,%eax
    1137:	00 03                	add    %al,(%ebx)
    1139:	df 00                	fild   (%eax)
    113b:	01 08                	add    %ecx,(%eax)
    113d:	e5 08                	in     $0x8,%eax
    113f:	e5 08                	in     $0x8,%eax
    1141:	e5 08                	in     $0x8,%eax
    1143:	e5 08                	in     $0x8,%eax
    1145:	e5 08                	in     $0x8,%eax
    1147:	e5 08                	in     $0x8,%eax
    1149:	e5 08                	in     $0x8,%eax
    114b:	e5 08                	in     $0x8,%eax
    114d:	e5 08                	in     $0x8,%eax
    114f:	e5 08                	in     $0x8,%eax
    1151:	e5 08                	in     $0x8,%eax
    1153:	e5 08                	in     $0x8,%eax
    1155:	e5 08                	in     $0x8,%eax
    1157:	e5 08                	in     $0x8,%eax
    1159:	e5 08                	in     $0x8,%eax
    115b:	e5 08                	in     $0x8,%eax
    115d:	e5 08                	in     $0x8,%eax
    115f:	e7 02                	out    %eax,$0x2
    1161:	c0 03 17             	rolb   $0x17,(%ebx)
    1164:	02 80 04 17 03 0a    	add    0xa031704(%eax),%al
    116a:	02 f4                	add    %ah,%dh
    116c:	33 01                	xor    (%ecx),%eax
    116e:	3e 23 3f             	and    %ds:(%edi),%edi
    1171:	03 09                	add    (%ecx),%ecx
    1173:	20 23                	and    %ah,(%ebx)
    1175:	02 01                	add    (%ecx),%al
    1177:	00 01                	add    %al,(%ecx)
    1179:	01 7d 01             	add    %edi,0x1(%ebp)
    117c:	00 00                	add    %al,(%eax)
    117e:	02 00                	add    (%eax),%al
    1180:	77 01                	ja     1183 <_scga-0xb6e7d>
    1182:	00 00                	add    %al,(%eax)
    1184:	01 01                	add    %eax,(%ecx)
    1186:	fb                   	sti    
    1187:	0e                   	push   %cs
    1188:	0d 00 01 01 01       	or     $0x1010100,%eax
    118d:	01 00                	add    %eax,(%eax)
    118f:	00 00                	add    %al,(%eax)
    1191:	01 00                	add    %eax,(%eax)
    1193:	00 01                	add    %al,(%ecx)
    1195:	2f                   	das    
    1196:	68 6f 6d 65 2f       	push   $0x2f656d6f
    119b:	6b 64 77 39 32       	imul   $0x32,0x39(%edi,%esi,2),%esp
    11a0:	34 32                	xor    $0x32,%al
    11a2:	2f                   	das    
    11a3:	45                   	inc    %ebp
    11a4:	72 69                	jb     120f <_scga-0xb6df1>
    11a6:	6b 61 2f 70          	imul   $0x70,0x2f(%ecx),%esp
    11aa:	6b 67 2f 63          	imul   $0x63,0x2f(%edi),%esp
    11ae:	70 75                	jo     1225 <_scga-0xb6ddb>
    11b0:	2f                   	das    
    11b1:	63 6f 6d             	arpl   %bp,0x6d(%edi)
    11b4:	6d                   	insl   (%dx),%es:(%edi)
    11b5:	6f                   	outsl  %ds:(%esi),(%dx)
    11b6:	6e                   	outsb  %ds:(%esi),(%dx)
    11b7:	2f                   	das    
    11b8:	69 6e 63 00 2f 68 6f 	imul   $0x6f682f00,0x63(%esi),%ebp
    11bf:	6d                   	insl   (%dx),%es:(%edi)
    11c0:	65 2f                	gs das 
    11c2:	6b 64 77 39 32       	imul   $0x32,0x39(%edi,%esi,2),%esp
    11c7:	34 32                	xor    $0x32,%al
    11c9:	2f                   	das    
    11ca:	45                   	inc    %ebp
    11cb:	72 69                	jb     1236 <_scga-0xb6dca>
    11cd:	6b 61 2f 70          	imul   $0x70,0x2f(%ecx),%esp
    11d1:	6b 67 2f 63          	imul   $0x63,0x2f(%edi),%esp
    11d5:	70 75                	jo     124c <_scga-0xb6db4>
    11d7:	2f                   	das    
    11d8:	78 38                	js     1212 <_scga-0xb6dee>
    11da:	36 2f                	ss das 
    11dc:	69 6e 63 00 2f 68 6f 	imul   $0x6f682f00,0x63(%esi),%ebp
    11e3:	6d                   	insl   (%dx),%es:(%edi)
    11e4:	65 2f                	gs das 
    11e6:	6b 64 77 39 32       	imul   $0x32,0x39(%edi,%esi,2),%esp
    11eb:	34 32                	xor    $0x32,%al
    11ed:	2f                   	das    
    11ee:	45                   	inc    %ebp
    11ef:	72 69                	jb     125a <_scga-0xb6da6>
    11f1:	6b 61 2f 70          	imul   $0x70,0x2f(%ecx),%esp
    11f5:	6b 67 2f 6b          	imul   $0x6b,0x2f(%edi),%esp
    11f9:	65 72 6e             	gs jb  126a <_scga-0xb6d96>
    11fc:	65 6c                	gs insb (%dx),%es:(%edi)
    11fe:	2f                   	das    
    11ff:	66 70 2f             	data16 jo 1231 <_scga-0xb6dcf>
    1202:	69 6e 63 00 2f 68 6f 	imul   $0x6f682f00,0x63(%esi),%ebp
    1209:	6d                   	insl   (%dx),%es:(%edi)
    120a:	65 2f                	gs das 
    120c:	6b 64 77 39 32       	imul   $0x32,0x39(%edi,%esi,2),%esp
    1211:	34 32                	xor    $0x32,%al
    1213:	2f                   	das    
    1214:	45                   	inc    %ebp
    1215:	72 69                	jb     1280 <_scga-0xb6d80>
    1217:	6b 61 2f 70          	imul   $0x70,0x2f(%ecx),%esp
    121b:	6b 67 2f 74          	imul   $0x74,0x2f(%edi),%esp
    121f:	65 73 74             	gs jae 1296 <_scga-0xb6d6a>
    1222:	2f                   	das    
    1223:	61                   	popa   
    1224:	73 73                	jae    1299 <_scga-0xb6d67>
    1226:	65 72 74             	gs jb  129d <_scga-0xb6d63>
    1229:	2f                   	das    
    122a:	69 6e 63 00 2f 68 6f 	imul   $0x6f682f00,0x63(%esi),%ebp
    1231:	6d                   	insl   (%dx),%es:(%edi)
    1232:	65 2f                	gs das 
    1234:	6b 64 77 39 32       	imul   $0x32,0x39(%edi,%esi,2),%esp
    1239:	34 32                	xor    $0x32,%al
    123b:	2f                   	das    
    123c:	45                   	inc    %ebp
    123d:	72 69                	jb     12a8 <_scga-0xb6d58>
    123f:	6b 61 2f 70          	imul   $0x70,0x2f(%ecx),%esp
    1243:	6b 67 2f 63          	imul   $0x63,0x2f(%edi),%esp
    1247:	70 75                	jo     12be <_scga-0xb6d42>
    1249:	2f                   	das    
    124a:	63 6f 6d             	arpl   %bp,0x6d(%edi)
    124d:	6d                   	insl   (%dx),%es:(%edi)
    124e:	6f                   	outsl  %ds:(%esi),(%dx)
    124f:	6e                   	outsb  %ds:(%esi),(%dx)
    1250:	2f                   	das    
    1251:	73 72                	jae    12c5 <_scga-0xb6d3b>
    1253:	63 00                	arpl   %ax,(%eax)
    1255:	00 65 65             	add    %ah,0x65(%ebp)
    1258:	5f                   	pop    %edi
    1259:	74 79                	je     12d4 <_scga-0xb6d2c>
    125b:	70 65                	jo     12c2 <_scga-0xb6d3e>
    125d:	73 2e                	jae    128d <_scga-0xb6d73>
    125f:	68 00 01 00 00       	push   $0x100
    1264:	65 65 5f             	gs gs pop %edi
    1267:	63 70 75             	arpl   %si,0x75(%eax)
    126a:	2e 68 00 02 00 00    	cs push $0x200
    1270:	65 65 5f             	gs gs pop %edi
    1273:	68 61 6c 5f 73       	push   $0x735f6c61
    1278:	74 72                	je     12ec <_scga-0xb6d14>
    127a:	75 63                	jne    12df <_scga-0xb6d21>
    127c:	74 73                	je     12f1 <_scga-0xb6d0f>
    127e:	2e 68 00 01 00 00    	cs push $0x100
    1284:	65 65 5f             	gs gs pop %edi
    1287:	63 6f 6d             	arpl   %bp,0x6d(%edi)
    128a:	6d                   	insl   (%dx),%es:(%edi)
    128b:	6f                   	outsl  %ds:(%esi),(%dx)
    128c:	6e                   	outsb  %ds:(%esi),(%dx)
    128d:	2e 68 00 03 00 00    	cs push $0x300
    1293:	65 65 5f             	gs gs pop %edi
    1296:	63 6f 6e             	arpl   %bp,0x6e(%edi)
    1299:	74 65                	je     1300 <_scga-0xb6d00>
    129b:	78 74                	js     1311 <_scga-0xb6cef>
    129d:	2e 68 00 01 00 00    	cs push $0x100
    12a3:	65 65 5f             	gs gs pop %edi
    12a6:	70 72                	jo     131a <_scga-0xb6ce6>
    12a8:	69 6d 69 74 69 76 65 	imul   $0x65766974,0x69(%ebp),%ebp
    12af:	73 2e                	jae    12df <_scga-0xb6d21>
    12b1:	68 00 01 00 00       	push   $0x100
    12b6:	65 65 5f             	gs gs pop %edi
    12b9:	69 72 71 73 74 75 62 	imul   $0x62757473,0x71(%edx),%esi
    12c0:	2e 68 00 02 00 00    	cs push $0x200
    12c6:	65 65 5f             	gs gs pop %edi
    12c9:	61                   	popa   
    12ca:	73 73                	jae    133f <_scga-0xb6cc1>
    12cc:	65 72 74             	gs jb  1343 <_scga-0xb6cbd>
    12cf:	2e 68 00 04 00 00    	cs push $0x400
    12d5:	65 65 5f             	gs gs pop %edi
    12d8:	69 6e 74 65 72 6e 61 	imul   $0x616e7265,0x74(%esi),%ebp
    12df:	6c                   	insb   (%dx),%es:(%edi)
    12e0:	2e 68 00 02 00 00    	cs push $0x200
    12e6:	65 65 5f             	gs gs pop %edi
    12e9:	68 61 6c 5f 73       	push   $0x735f6c61
    12ee:	74 72                	je     1362 <_scga-0xb6c9e>
    12f0:	75 63                	jne    1355 <_scga-0xb6cab>
    12f2:	74 73                	je     1367 <_scga-0xb6c99>
    12f4:	2e 63 00             	arpl   %ax,%cs:(%eax)
    12f7:	05                   	.byte 0x5
    12f8:	00 00                	add    %al,(%eax)
	...

Disassembly of section .debug_str:

00000000 <.debug_str>:
   0:	72 65                	jb     67 <_scga-0xb7f99>
   2:	73 75                	jae    79 <_scga-0xb7f87>
   4:	6c                   	insb   (%dx),%es:(%edi)
   5:	74 00                	je     7 <_scga-0xb7ff9>
   7:	45                   	inc    %ebp
   8:	45                   	inc    %ebp
   9:	5f                   	pop    %edi
   a:	55                   	push   %ebp
   b:	52                   	push   %edx
   c:	45                   	inc    %ebp
   d:	47                   	inc    %edi
   e:	00 73 68             	add    %dh,0x68(%ebx)
  11:	6f                   	outsl  %ds:(%esi),(%dx)
  12:	72 74                	jb     88 <_scga-0xb7f78>
  14:	20 69 6e             	and    %ch,0x6e(%ecx)
  17:	74 00                	je     19 <_scga-0xb7fe7>
  19:	45                   	inc    %ebp
  1a:	45                   	inc    %ebp
  1b:	5f                   	pop    %edi
  1c:	72 71                	jb     8f <_scga-0xb7f71>
  1e:	66 69 72 73 74 00    	imul   $0x74,0x73(%edx),%si
  24:	73 69                	jae    8f <_scga-0xb7f71>
  26:	7a 65                	jp     8d <_scga-0xb7f73>
  28:	74 79                	je     a3 <_scga-0xb7f5d>
  2a:	70 65                	jo     91 <_scga-0xb7f6f>
  2c:	00 45 45             	add    %al,0x45(%ebp)
  2f:	5f                   	pop    %edi
  30:	41                   	inc    %ecx
  31:	53                   	push   %ebx
  32:	53                   	push   %ebx
  33:	45                   	inc    %ebp
  34:	52                   	push   %edx
  35:	54                   	push   %esp
  36:	49                   	dec    %ecx
  37:	4f                   	dec    %edi
  38:	4e                   	dec    %esi
  39:	53                   	push   %ebx
  3a:	00 6d 61             	add    %ch,0x61(%ebp)
  3d:	69 6e 00 45 45 5f 41 	imul   $0x415f4545,0x0(%esi),%ebp
  44:	53                   	push   %ebx
  45:	53                   	push   %ebx
  46:	45                   	inc    %ebp
  47:	52                   	push   %edx
  48:	54                   	push   %esp
  49:	5f                   	pop    %edi
  4a:	49                   	dec    %ecx
  4b:	4e                   	dec    %esi
  4c:	49                   	dec    %ecx
  4d:	54                   	push   %esp
  4e:	00 45 45             	add    %al,0x45(%ebp)
  51:	5f                   	pop    %edi
  52:	55                   	push   %ebp
  53:	49                   	dec    %ecx
  54:	4e                   	dec    %esi
  55:	54                   	push   %esp
  56:	33 32                	xor    (%edx),%esi
  58:	00 45 45             	add    %al,0x45(%ebp)
  5b:	5f                   	pop    %edi
  5c:	74 68                	je     c6 <_scga-0xb7f3a>
  5e:	5f                   	pop    %edi
  5f:	72 65                	jb     c6 <_scga-0xb7f3a>
  61:	61                   	popa   
  62:	64 79 5f             	fs jns c4 <_scga-0xb7f3c>
  65:	70 72                	jo     d9 <_scga-0xb7f27>
  67:	69 6f 00 45 45 5f 54 	imul   $0x545f4545,0x0(%edi),%ebp
  6e:	49                   	dec    %ecx
  6f:	44                   	inc    %esp
  70:	00 45 45             	add    %al,0x45(%ebp)
  73:	5f                   	pop    %edi
  74:	61                   	popa   
  75:	73 73                	jae    ea <_scga-0xb7f16>
  77:	65 72 74             	gs jb  ee <_scga-0xb7f12>
  7a:	69 6f 6e 73 00 45 45 	imul   $0x45450073,0x6e(%edi),%ebp
  81:	5f                   	pop    %edi
  82:	49                   	dec    %ecx
  83:	52                   	push   %edx
  84:	51                   	push   %ecx
  85:	5f                   	pop    %edi
  86:	6e                   	outsb  %ds:(%esi),(%dx)
  87:	65 73 74             	gs jae fe <_scga-0xb7f02>
  8a:	69 6e 67 5f 6c 65 76 	imul   $0x76656c5f,0x67(%esi),%ebp
  91:	65 6c                	gs insb (%dx),%es:(%edi)
  93:	00 45 45             	add    %al,0x45(%ebp)
  96:	5f                   	pop    %edi
  97:	68 61 6c 5f 74       	push   $0x745f6c61
  9c:	68 72 65 61 64       	push   $0x64616572
  a1:	5f                   	pop    %edi
  a2:	62 6f 64             	bound  %ebp,0x64(%edi)
  a5:	79 00                	jns    a7 <_scga-0xb7f59>
  a7:	45                   	inc    %ebp
  a8:	45                   	inc    %ebp
  a9:	5f                   	pop    %edi
  aa:	49                   	dec    %ecx
  ab:	4e                   	dec    %esi
  ac:	54                   	push   %esp
  ad:	38 00                	cmp    %al,(%eax)
  af:	6c                   	insb   (%dx),%es:(%edi)
  b0:	6f                   	outsl  %ds:(%esi),(%dx)
  b1:	6e                   	outsb  %ds:(%esi),(%dx)
  b2:	67 20 69 6e          	and    %ch,0x6e(%bx,%di)
  b6:	74 00                	je     b8 <_scga-0xb7f48>
  b8:	46                   	inc    %esi
  b9:	75 6e                	jne    129 <_scga-0xb7ed7>
  bb:	63 54 61 73          	arpl   %dx,0x73(%ecx,%eiz,2)
  bf:	6b 31 00             	imul   $0x0,(%ecx),%esi
  c2:	45                   	inc    %ebp
  c3:	45                   	inc    %ebp
  c4:	5f                   	pop    %edi
  c5:	73 79                	jae    140 <_scga-0xb7ec0>
  c7:	73 5f                	jae    128 <_scga-0xb7ed8>
  c9:	63 65 69             	arpl   %sp,0x69(%ebp)
  cc:	6c                   	insb   (%dx),%es:(%edi)
  cd:	69 6e 67 00 75 6e 73 	imul   $0x736e7500,0x67(%esi),%ebp
  d4:	69 67 6e 65 64 20 63 	imul   $0x63206465,0x6e(%edi),%esp
  db:	68 61 72 00 63       	push   $0x63007261
  e0:	6f                   	outsl  %ds:(%esi),(%dx)
  e1:	75 6e                	jne    151 <_scga-0xb7eaf>
  e3:	74 65                	je     14a <_scga-0xb7eb6>
  e5:	72 00                	jb     e7 <_scga-0xb7f19>
  e7:	45                   	inc    %ebp
  e8:	45                   	inc    %ebp
  e9:	5f                   	pop    %edi
  ea:	41                   	inc    %ecx
  eb:	53                   	push   %ebx
  ec:	53                   	push   %ebx
  ed:	45                   	inc    %ebp
  ee:	52                   	push   %edx
  ef:	54                   	push   %esp
  f0:	5f                   	pop    %edi
  f1:	46                   	inc    %esi
  f2:	49                   	dec    %ecx
  f3:	4e                   	dec    %esi
  f4:	00 6c 6f 6e          	add    %ch,0x6e(%edi,%ebp,2)
  f8:	67 20 6c 6f          	and    %ch,0x6f(%si)
  fc:	6e                   	outsb  %ds:(%esi),(%dx)
  fd:	67 20 75 6e          	and    %dh,0x6e(%di)
 101:	73 69                	jae    16c <_scga-0xb7e94>
 103:	67 6e                	outsb  %ds:(%si),(%dx)
 105:	65 64 20 69 6e       	gs and %ch,%fs:0x6e(%ecx)
 10a:	74 00                	je     10c <_scga-0xb7ef4>
 10c:	45                   	inc    %ebp
 10d:	45                   	inc    %ebp
 10e:	5f                   	pop    %edi
 10f:	73 74                	jae    185 <_scga-0xb7e7b>
 111:	64 5f                	fs pop %edi
 113:	65 6e                	outsb  %gs:(%esi),(%dx)
 115:	64 63 79 63          	arpl   %di,%fs:0x63(%ecx)
 119:	6c                   	insb   (%dx),%es:(%edi)
 11a:	65 5f                	gs pop %edi
 11c:	6e                   	outsb  %ds:(%esi),(%dx)
 11d:	65 78 74             	gs js  194 <_scga-0xb7e6c>
 120:	5f                   	pop    %edi
 121:	74 69                	je     18c <_scga-0xb7e74>
 123:	64 00 45 45          	add    %al,%fs:0x45(%ebp)
 127:	5f                   	pop    %edi
 128:	49                   	dec    %ecx
 129:	4e                   	dec    %esi
 12a:	54                   	push   %esp
 12b:	33 32                	xor    (%edx),%esi
 12d:	00 74 66 70          	add    %dh,0x70(%esi,%eiz,2)
 131:	5f                   	pop    %edi
 132:	70 72                	jo     1a6 <_scga-0xb7e5a>
 134:	69 6e 74 66 00 45 45 	imul   $0x45450066,0x74(%esi),%ebp
 13b:	5f                   	pop    %edi
 13c:	78 38                	js     176 <_scga-0xb7e8a>
 13e:	36 5f                	ss pop %edi
 140:	63 68 61             	arpl   %bp,0x61(%eax)
 143:	6e                   	outsb  %ds:(%esi),(%dx)
 144:	67 65 5f             	addr16 gs pop %edi
 147:	63 6f 6e             	arpl   %bp,0x6e(%edi)
 14a:	74 65                	je     1b1 <_scga-0xb7e4f>
 14c:	78 74                	js     1c2 <_scga-0xb7e3e>
 14e:	5f                   	pop    %edi
 14f:	61                   	popa   
 150:	63 74 69 76          	arpl   %si,0x76(%ecx,%ebp,2)
 154:	65 00 73 68          	add    %dh,%gs:0x68(%ebx)
 158:	6f                   	outsl  %ds:(%esi),(%dx)
 159:	72 74                	jb     1cf <_scga-0xb7e31>
 15b:	20 75 6e             	and    %dh,0x6e(%ebp)
 15e:	73 69                	jae    1c9 <_scga-0xb7e37>
 160:	67 6e                	outsb  %ds:(%si),(%dx)
 162:	65 64 20 69 6e       	gs and %ch,%fs:0x6e(%ecx)
 167:	74 00                	je     169 <_scga-0xb7e97>
 169:	2f                   	das    
 16a:	72 65                	jb     1d1 <_scga-0xb7e2f>
 16c:	73 65                	jae    1d3 <_scga-0xb7e2d>
 16e:	61                   	popa   
 16f:	72 63                	jb     1d4 <_scga-0xb7e2c>
 171:	68 2f 45 72 69       	push   $0x6972452f
 176:	6b 61 2f 65          	imul   $0x65,0x2f(%ecx),%esp
 17a:	78 61                	js     1dd <_scga-0xb7e23>
 17c:	6d                   	insl   (%dx),%es:(%edi)
 17d:	70 6c                	jo     1eb <_scga-0xb7e15>
 17f:	65 73 2f             	gs jae 1b1 <_scga-0xb7e4f>
 182:	78 38                	js     1bc <_scga-0xb7e44>
 184:	36 2f                	ss das 
 186:	70 6f                	jo     1f7 <_scga-0xb7e09>
 188:	72 74                	jb     1fe <_scga-0xb7e02>
 18a:	69 6e 67 5f 65 78 61 	imul   $0x6178655f,0x67(%esi),%ebp
 191:	6d                   	insl   (%dx),%es:(%edi)
 192:	70 6c                	jo     200 <_scga-0xb7e00>
 194:	65 73 2f             	gs jae 1c6 <_scga-0xb7e3a>
 197:	6d                   	insl   (%dx),%es:(%edi)
 198:	6f                   	outsl  %ds:(%esi),(%dx)
 199:	6e                   	outsb  %ds:(%esi),(%dx)
 19a:	6f                   	outsl  %ds:(%esi),(%dx)
 19b:	73 74                	jae    211 <_scga-0xb7def>
 19d:	61                   	popa   
 19e:	63 6b 2f             	arpl   %bp,0x2f(%ebx)
 1a1:	45                   	inc    %ebp
 1a2:	45                   	inc    %ebp
 1a3:	74 65                	je     20a <_scga-0xb7df6>
 1a5:	73 74                	jae    21b <_scga-0xb7de5>
 1a7:	30 30                	xor    %dh,(%eax)
 1a9:	2f                   	das    
 1aa:	44                   	inc    %esp
 1ab:	65 62 75 67          	bound  %esi,%gs:0x67(%ebp)
 1af:	00 47 4e             	add    %al,0x4e(%edi)
 1b2:	55                   	push   %ebp
 1b3:	20 43 39             	and    %al,0x39(%ebx)
 1b6:	39 20                	cmp    %esp,(%eax)
 1b8:	36 2e 33 2e          	ss xor %cs:(%esi),%ebp
 1bc:	31 20                	xor    %esp,(%eax)
 1be:	32 30                	xor    (%eax),%dh
 1c0:	31 36                	xor    %esi,(%esi)
 1c2:	31 32                	xor    %esi,(%edx)
 1c4:	32 31                	xor    (%ecx),%dh
 1c6:	20 28                	and    %ch,(%eax)
 1c8:	52                   	push   %edx
 1c9:	65 64 20 48 61       	gs and %cl,%fs:0x61(%eax)
 1ce:	74 20                	je     1f0 <_scga-0xb7e10>
 1d0:	36 2e 33 2e          	ss xor %cs:(%esi),%ebp
 1d4:	31 2d 31 29 20 2d    	xor    %ebp,0x2d202931
 1da:	6d                   	insl   (%dx),%es:(%edi)
 1db:	33 32                	xor    (%edx),%esi
 1dd:	20 2d 6d 74 75 6e    	and    %ch,0x6e75746d
 1e3:	65 3d 67 65 6e 65    	gs cmp $0x656e6567,%eax
 1e9:	72 69                	jb     254 <_scga-0xb7dac>
 1eb:	63 20                	arpl   %sp,(%eax)
 1ed:	2d 6d 61 72 63       	sub    $0x6372616d,%eax
 1f2:	68 3d 69 36 38       	push   $0x3836693d
 1f7:	36 20 2d 67 20 2d 4f 	and    %ch,%ss:0x4f2d2067
 1fe:	73 20                	jae    220 <_scga-0xb7de0>
 200:	2d 73 74 64 3d       	sub    $0x3d647473,%eax
 205:	67 6e                	outsb  %ds:(%si),(%dx)
 207:	75 39                	jne    242 <_scga-0xb7dbe>
 209:	39 20                	cmp    %esp,(%eax)
 20b:	2d 66 66 72 65       	sub    $0x65726666,%eax
 210:	65 73 74             	gs jae 287 <_scga-0xb7d79>
 213:	61                   	popa   
 214:	6e                   	outsb  %ds:(%esi),(%dx)
 215:	64 69 6e 67 00 45 45 	imul   $0x5f454500,%fs:0x67(%esi),%ebp
 21c:	5f 
 21d:	54                   	push   %esp
 21e:	48                   	dec    %eax
 21f:	52                   	push   %edx
 220:	45                   	inc    %ebp
 221:	41                   	inc    %ecx
 222:	44                   	inc    %esp
 223:	5f                   	pop    %edi
 224:	50                   	push   %eax
 225:	54                   	push   %esp
 226:	52                   	push   %edx
 227:	00 2e                	add    %ch,(%esi)
 229:	2e 2f                	cs das 
 22b:	63 6f 64             	arpl   %bp,0x64(%edi)
 22e:	65 2e 63 00          	gs arpl %ax,%cs:(%eax)
 232:	45                   	inc    %ebp
 233:	45                   	inc    %ebp
 234:	5f                   	pop    %edi
 235:	41                   	inc    %ecx
 236:	53                   	push   %ebx
 237:	53                   	push   %ebx
 238:	45                   	inc    %ebp
 239:	52                   	push   %edx
 23a:	54                   	push   %esp
 23b:	5f                   	pop    %edi
 23c:	44                   	inc    %esp
 23d:	49                   	dec    %ecx
 23e:	4d                   	dec    %ebp
 23f:	00 45 45             	add    %al,0x45(%ebp)
 242:	5f                   	pop    %edi
 243:	74 68                	je     2ad <_scga-0xb7d53>
 245:	5f                   	pop    %edi
 246:	6e                   	outsb  %ds:(%esi),(%dx)
 247:	61                   	popa   
 248:	63 74 00 45          	arpl   %si,0x45(%eax,%eax,1)
 24c:	45                   	inc    %ebp
 24d:	5f                   	pop    %edi
 24e:	73 74                	jae    2c4 <_scga-0xb7d3c>
 250:	6b 66 69 72          	imul   $0x72,0x69(%esi),%esp
 254:	73 74                	jae    2ca <_scga-0xb7d36>
 256:	00 45 45             	add    %al,0x45(%ebp)
 259:	5f                   	pop    %edi
 25a:	74 68                	je     2c4 <_scga-0xb7d3c>
 25c:	5f                   	pop    %edi
 25d:	64 69 73 70 61 74 63 	imul   $0x68637461,%fs:0x70(%ebx),%esi
 264:	68 
 265:	5f                   	pop    %edi
 266:	70 72                	jo     2da <_scga-0xb7d26>
 268:	69 6f 00 45 45 5f 74 	imul   $0x745f4545,0x0(%edi),%ebp
 26f:	68 5f 6e 65 78       	push   $0x78656e5f
 274:	74 00                	je     276 <_scga-0xb7d8a>
 276:	65 65 63 66 67       	gs arpl %sp,%gs:0x67(%esi)
 27b:	2e 63 00             	arpl   %ax,%cs:(%eax)
 27e:	45                   	inc    %ebp
 27f:	45                   	inc    %ebp
 280:	5f                   	pop    %edi
 281:	46                   	inc    %esi
 282:	41                   	inc    %ecx
 283:	44                   	inc    %esp
 284:	44                   	inc    %esp
 285:	52                   	push   %edx
 286:	00 70 75             	add    %dh,0x75(%eax)
 289:	74 63                	je     2ee <_scga-0xb7d12>
 28b:	68 61 72 00 2f       	push   $0x2f007261
 290:	68 6f 6d 65 2f       	push   $0x2f656d6f
 295:	6b 64 77 39 32       	imul   $0x32,0x39(%edi,%esi,2),%esp
 29a:	34 32                	xor    $0x32,%al
 29c:	2f                   	das    
 29d:	45                   	inc    %ebp
 29e:	72 69                	jb     309 <_scga-0xb7cf7>
 2a0:	6b 61 2f 70          	imul   $0x70,0x2f(%ecx),%esp
 2a4:	6b 67 2f 6d          	imul   $0x6d,0x2f(%edi),%esp
 2a8:	63 75 2f             	arpl   %si,0x2f(%ebp)
 2ab:	78 38                	js     2e5 <_scga-0xb7d1b>
 2ad:	36 2f                	ss das 
 2af:	73 72                	jae    323 <_scga-0xb7cdd>
 2b1:	63 2f                	arpl   %bp,(%edi)
 2b3:	65 65 5f             	gs gs pop %edi
 2b6:	70 72                	jo     32a <_scga-0xb7cd6>
 2b8:	69 6e 74 66 2e 63 00 	imul   $0x632e66,0x74(%esi),%ebp
 2bf:	6f                   	outsl  %ds:(%esi),(%dx)
 2c0:	75 74                	jne    336 <_scga-0xb7cca>
 2c2:	44                   	inc    %esp
 2c3:	67 74 00             	addr16 je 2c6 <_scga-0xb7d3a>
 2c6:	61                   	popa   
 2c7:	62 6f 72             	bound  %ebp,0x72(%edi)
 2ca:	74 00                	je     2cc <_scga-0xb7d34>
 2cc:	64 69 76 4f 75 74 00 	imul   $0x45007475,%fs:0x4f(%esi),%esi
 2d3:	45 
 2d4:	45                   	inc    %ebp
 2d5:	5f                   	pop    %edi
 2d6:	75 61                	jne    339 <_scga-0xb7cc7>
 2d8:	72 74                	jb     34e <_scga-0xb7cb2>
 2da:	5f                   	pop    %edi
 2db:	77 72                	ja     34f <_scga-0xb7cb1>
 2dd:	69 74 65 5f 62 79 74 	imul   $0x65747962,0x5f(%ebp,%eiz,2),%esi
 2e4:	65 
 2e5:	00 5f 5f             	add    %bl,0x5f(%edi)
 2e8:	62 75 69             	bound  %esi,0x69(%ebp)
 2eb:	6c                   	insb   (%dx),%es:(%edi)
 2ec:	74 69                	je     357 <_scga-0xb7ca9>
 2ee:	6e                   	outsb  %ds:(%esi),(%dx)
 2ef:	5f                   	pop    %edi
 2f0:	76 61                	jbe    353 <_scga-0xb7cad>
 2f2:	5f                   	pop    %edi
 2f3:	6c                   	insb   (%dx),%es:(%edi)
 2f4:	69 73 74 00 5f 5f 67 	imul   $0x675f5f00,0x74(%ebx),%esi
 2fb:	6e                   	outsb  %ds:(%esi),(%dx)
 2fc:	75 63                	jne    361 <_scga-0xb7c9f>
 2fe:	5f                   	pop    %edi
 2ff:	76 61                	jbe    362 <_scga-0xb7c9e>
 301:	5f                   	pop    %edi
 302:	6c                   	insb   (%dx),%es:(%edi)
 303:	69 73 74 00 2f 68 6f 	imul   $0x6f682f00,0x74(%ebx),%esi
 30a:	6d                   	insl   (%dx),%es:(%edi)
 30b:	65 2f                	gs das 
 30d:	6b 64 77 39 32       	imul   $0x32,0x39(%edi,%esi,2),%esp
 312:	34 32                	xor    $0x32,%al
 314:	2f                   	das    
 315:	45                   	inc    %ebp
 316:	72 69                	jb     381 <_scga-0xb7c7f>
 318:	6b 61 2f 70          	imul   $0x70,0x2f(%ecx),%esp
 31c:	6b 67 2f 63          	imul   $0x63,0x2f(%edi),%esp
 320:	70 75                	jo     397 <_scga-0xb7c69>
 322:	2f                   	das    
 323:	78 38                	js     35d <_scga-0xb7ca3>
 325:	36 2f                	ss das 
 327:	73 72                	jae    39b <_scga-0xb7c65>
 329:	63 2f                	arpl   %bp,(%edi)
 32b:	65 65 5f             	gs gs pop %edi
 32e:	73 74                	jae    3a4 <_scga-0xb7c5c>
 330:	61                   	popa   
 331:	72 74                	jb     3a7 <_scga-0xb7c59>
 333:	75 70                	jne    3a5 <_scga-0xb7c5b>
 335:	2e 63 00             	arpl   %ax,%cs:(%eax)
 338:	45                   	inc    %ebp
 339:	45                   	inc    %ebp
 33a:	5f                   	pop    %edi
 33b:	6d                   	insl   (%dx),%es:(%edi)
 33c:	63 75 5f             	arpl   %si,0x5f(%ebp)
 33f:	78 38                	js     379 <_scga-0xb7c87>
 341:	36 5f                	ss pop %edi
 343:	69 6e 69 74 00 5f 5f 	imul   $0x5f5f0074,0x69(%esi),%ebp
 34a:	43                   	inc    %ebx
 34b:	54                   	push   %esp
 34c:	4f                   	dec    %edi
 34d:	52                   	push   %edx
 34e:	53                   	push   %ebx
 34f:	5f                   	pop    %edi
 350:	53                   	push   %ebx
 351:	54                   	push   %esp
 352:	41                   	inc    %ecx
 353:	52                   	push   %edx
 354:	54                   	push   %esp
 355:	00 5f 5f             	add    %bl,0x5f(%edi)
 358:	43                   	inc    %ebx
 359:	54                   	push   %esp
 35a:	4f                   	dec    %edi
 35b:	52                   	push   %edx
 35c:	53                   	push   %ebx
 35d:	5f                   	pop    %edi
 35e:	45                   	inc    %ebp
 35f:	4e                   	dec    %esi
 360:	44                   	inc    %esp
 361:	00 61 72             	add    %ah,0x72(%ecx)
 364:	63 68 5f             	arpl   %bp,0x5f(%eax)
 367:	73 74                	jae    3dd <_scga-0xb7c23>
 369:	61                   	popa   
 36a:	72 74                	jb     3e0 <_scga-0xb7c20>
 36c:	75 70                	jne    3de <_scga-0xb7c22>
 36e:	00 72 75             	add    %dh,0x75(%edx)
 371:	6e                   	outsb  %ds:(%esi),(%dx)
 372:	5f                   	pop    %edi
 373:	63 6f 6e             	arpl   %bp,0x6e(%edi)
 376:	73 74                	jae    3ec <_scga-0xb7c14>
 378:	72 75                	jb     3ef <_scga-0xb7c11>
 37a:	63 74 6f 72          	arpl   %si,0x72(%edi,%ebp,2)
 37e:	73 00                	jae    380 <_scga-0xb7c80>
 380:	45                   	inc    %ebp
 381:	45                   	inc    %ebp
 382:	5f                   	pop    %edi
 383:	55                   	push   %ebp
 384:	49                   	dec    %ecx
 385:	4e                   	dec    %esi
 386:	54                   	push   %esp
 387:	38 00                	cmp    %al,(%eax)
 389:	50                   	push   %eax
 38a:	49                   	dec    %ecx
 38b:	43                   	inc    %ebx
 38c:	31 00                	xor    %eax,(%eax)
 38e:	6f                   	outsl  %ds:(%esi),(%dx)
 38f:	66 66 73 65          	data16 data16 jae 3f8 <_scga-0xb7c08>
 393:	74 31                	je     3c6 <_scga-0xb7c3a>
 395:	00 6f 66             	add    %ch,0x66(%edi)
 398:	66 73 65             	data16 jae 400 <_scga-0xb7c00>
 39b:	74 32                	je     3cf <_scga-0xb7c31>
 39d:	00 6c 61 70          	add    %ch,0x70(%ecx,%eiz,2)
 3a1:	69 63 5f 77 72 69 74 	imul   $0x74697277,0x5f(%ebx),%esp
 3a8:	65 5f                	gs pop %edi
 3aa:	72 65                	jb     411 <_scga-0xb7bef>
 3ac:	67 00 50 49          	add    %dl,0x49(%bx,%si)
 3b0:	43                   	inc    %ebx
 3b1:	31 5f 43             	xor    %ebx,0x43(%edi)
 3b4:	4f                   	dec    %edi
 3b5:	4d                   	dec    %ebp
 3b6:	4d                   	dec    %ebp
 3b7:	41                   	inc    %ecx
 3b8:	4e                   	dec    %esi
 3b9:	44                   	inc    %esp
 3ba:	00 50 49             	add    %dl,0x49(%eax)
 3bd:	43                   	inc    %ebx
 3be:	32 5f 43             	xor    0x43(%edi),%bl
 3c1:	4f                   	dec    %edi
 3c2:	4d                   	dec    %ebp
 3c3:	4d                   	dec    %ebp
 3c4:	41                   	inc    %ecx
 3c5:	4e                   	dec    %esi
 3c6:	44                   	inc    %esp
 3c7:	00 45 45             	add    %al,0x45(%ebp)
 3ca:	5f                   	pop    %edi
 3cb:	70 69                	jo     436 <_scga-0xb7bca>
 3cd:	63 5f 72             	arpl   %bx,0x72(%edi)
 3d0:	65 6d                	gs insl (%dx),%es:(%edi)
 3d2:	61                   	popa   
 3d3:	70 00                	jo     3d5 <_scga-0xb7c2b>
 3d5:	45                   	inc    %ebp
 3d6:	45                   	inc    %ebp
 3d7:	5f                   	pop    %edi
 3d8:	69 6f 61 70 69 63 5f 	imul   $0x5f636970,0x61(%edi),%ebp
 3df:	69 6e 69 74 00 6c 61 	imul   $0x616c0074,0x69(%esi),%ebp
 3e6:	70 69                	jo     451 <_scga-0xb7baf>
 3e8:	63 5f 72             	arpl   %bx,0x72(%edi)
 3eb:	65 61                	gs popa 
 3ed:	64 5f                	fs pop %edi
 3ef:	72 65                	jb     456 <_scga-0xb7baa>
 3f1:	67 00 50 49          	add    %dl,0x49(%bx,%si)
 3f5:	43                   	inc    %ebx
 3f6:	31 5f 44             	xor    %ebx,0x44(%edi)
 3f9:	41                   	inc    %ecx
 3fa:	54                   	push   %esp
 3fb:	41                   	inc    %ecx
 3fc:	00 49 43             	add    %cl,0x43(%ecx)
 3ff:	52                   	push   %edx
 400:	5f                   	pop    %edi
 401:	48                   	dec    %eax
 402:	49                   	dec    %ecx
 403:	00 49 43             	add    %cl,0x43(%ecx)
 406:	52                   	push   %edx
 407:	5f                   	pop    %edi
 408:	4c                   	dec    %esp
 409:	4f                   	dec    %edi
 40a:	00 69 6f             	add    %ch,0x6f(%ecx)
 40d:	5f                   	pop    %edi
 40e:	77 61                	ja     471 <_scga-0xb7b8f>
 410:	69 74 00 45 45 5f 70 	imul   $0x69705f45,0x45(%eax,%eax,1),%esi
 417:	69 
 418:	63 5f 69             	arpl   %bx,0x69(%edi)
 41b:	6e                   	outsb  %ds:(%esi),(%dx)
 41c:	69 74 00 45 45 5f 70 	imul   $0x69705f45,0x45(%eax,%eax,1),%esi
 423:	69 
 424:	63 5f 64             	arpl   %bx,0x64(%edi)
 427:	69 73 61 62 6c 65 00 	imul   $0x656c62,0x61(%ebx),%esi
 42e:	45                   	inc    %ebp
 42f:	45                   	inc    %ebp
 430:	5f                   	pop    %edi
 431:	6c                   	insb   (%dx),%es:(%edi)
 432:	61                   	popa   
 433:	70 69                	jo     49e <_scga-0xb7b62>
 435:	63 5f 65             	arpl   %bx,0x65(%edi)
 438:	6e                   	outsb  %ds:(%esi),(%dx)
 439:	61                   	popa   
 43a:	62 6c 65 00          	bound  %ebp,0x0(%ebp,%eiz,2)
 43e:	42                   	inc    %edx
 43f:	41                   	inc    %ecx
 440:	53                   	push   %ebx
 441:	45                   	inc    %ebp
 442:	00 50 49             	add    %dl,0x49(%eax)
 445:	43                   	inc    %ebx
 446:	32 5f 44             	xor    0x44(%edi),%bl
 449:	41                   	inc    %ecx
 44a:	54                   	push   %esp
 44b:	41                   	inc    %ecx
 44c:	00 45 45             	add    %al,0x45(%ebp)
 44f:	5f                   	pop    %edi
 450:	6c                   	insb   (%dx),%es:(%edi)
 451:	61                   	popa   
 452:	70 69                	jo     4bd <_scga-0xb7b43>
 454:	63 5f 69             	arpl   %bx,0x69(%edi)
 457:	6e                   	outsb  %ds:(%esi),(%dx)
 458:	69 74 00 70 6f 72 74 	imul   $0x74726f,0x70(%eax,%eax,1),%esi
 45f:	00 
 460:	45                   	inc    %ebp
 461:	45                   	inc    %ebp
 462:	5f                   	pop    %edi
 463:	67 64 74 5f          	addr16 fs je 4c6 <_scga-0xb7b3a>
 467:	69 6e 69 74 00 6d 61 	imul   $0x616d0074,0x69(%esi),%ebp
 46e:	73 6b                	jae    4db <_scga-0xb7b25>
 470:	31 00                	xor    %eax,(%eax)
 472:	50                   	push   %eax
 473:	49                   	dec    %ecx
 474:	43                   	inc    %ebx
 475:	32 00                	xor    (%eax),%al
 477:	45                   	inc    %ebp
 478:	45                   	inc    %ebp
 479:	5f                   	pop    %edi
 47a:	78 38                	js     4b4 <_scga-0xb7b4c>
 47c:	36 5f                	ss pop %edi
 47e:	6c                   	insb   (%dx),%es:(%edi)
 47f:	61                   	popa   
 480:	70 69                	jo     4eb <_scga-0xb7b15>
 482:	63 5f 72             	arpl   %bx,0x72(%edi)
 485:	65 67 73 00          	gs addr16 jae 489 <_scga-0xb7b77>
 489:	50                   	push   %eax
 48a:	49                   	dec    %ecx
 48b:	43                   	inc    %ebx
 48c:	5f                   	pop    %edi
 48d:	4f                   	dec    %edi
 48e:	46                   	inc    %esi
 48f:	46                   	inc    %esi
 490:	53                   	push   %ebx
 491:	45                   	inc    %ebp
 492:	54                   	push   %esp
 493:	00 6d 61             	add    %ch,0x61(%ebp)
 496:	73 6b                	jae    503 <_scga-0xb7afd>
 498:	32 00                	xor    (%eax),%al
 49a:	53                   	push   %ebx
 49b:	49                   	dec    %ecx
 49c:	4e                   	dec    %esi
 49d:	54                   	push   %esp
 49e:	00 49 53             	add    %cl,0x53(%ecx)
 4a1:	52                   	push   %edx
 4a2:	52                   	push   %edx
 4a3:	45                   	inc    %ebp
 4a4:	47                   	inc    %edi
 4a5:	00 50 49             	add    %dl,0x49(%eax)
 4a8:	43                   	inc    %ebx
 4a9:	5f                   	pop    %edi
 4aa:	45                   	inc    %ebp
 4ab:	4f                   	dec    %edi
 4ac:	49                   	dec    %ecx
 4ad:	00 2f                	add    %ch,(%edi)
 4af:	68 6f 6d 65 2f       	push   $0x2f656d6f
 4b4:	6b 64 77 39 32       	imul   $0x32,0x39(%edi,%esi,2),%esp
 4b9:	34 32                	xor    $0x32,%al
 4bb:	2f                   	das    
 4bc:	45                   	inc    %ebp
 4bd:	72 69                	jb     528 <_scga-0xb7ad8>
 4bf:	6b 61 2f 70          	imul   $0x70,0x2f(%ecx),%esp
 4c3:	6b 67 2f 6d          	imul   $0x6d,0x2f(%edi),%esp
 4c7:	63 75 2f             	arpl   %si,0x2f(%ebp)
 4ca:	78 38                	js     504 <_scga-0xb7afc>
 4cc:	36 2f                	ss das 
 4ce:	73 72                	jae    542 <_scga-0xb7abe>
 4d0:	63 2f                	arpl   %bp,(%edi)
 4d2:	65 65 5f             	gs gs pop %edi
 4d5:	6d                   	insl   (%dx),%es:(%edi)
 4d6:	63 75 2e             	arpl   %si,0x2e(%ebp)
 4d9:	63 00                	arpl   %ax,(%eax)
 4db:	45                   	inc    %ebp
 4dc:	45                   	inc    %ebp
 4dd:	5f                   	pop    %edi
 4de:	69 64 74 5f 69 6e 69 	imul   $0x74696e69,0x5f(%esp,%esi,2),%esp
 4e5:	74 
 4e6:	00 6f 75             	add    %ch,0x75(%edi)
 4e9:	74 62                	je     54d <_scga-0xb7ab3>
 4eb:	00 6c 69 6d          	add    %ch,0x6d(%ecx,%ebp,2)
 4ef:	69 74 00 62 61 73 65 	imul   $0x5f657361,0x62(%eax,%eax,1),%esi
 4f6:	5f 
 4f7:	6d                   	insl   (%dx),%es:(%edi)
 4f8:	69 64 64 6c 65 00 2f 	imul   $0x682f0065,0x6c(%esp,%eiz,2),%esp
 4ff:	68 
 500:	6f                   	outsl  %ds:(%esi),(%dx)
 501:	6d                   	insl   (%dx),%es:(%edi)
 502:	65 2f                	gs das 
 504:	6b 64 77 39 32       	imul   $0x32,0x39(%edi,%esi,2),%esp
 509:	34 32                	xor    $0x32,%al
 50b:	2f                   	das    
 50c:	45                   	inc    %ebp
 50d:	72 69                	jb     578 <_scga-0xb7a88>
 50f:	6b 61 2f 70          	imul   $0x70,0x2f(%ecx),%esp
 513:	6b 67 2f 6d          	imul   $0x6d,0x2f(%edi),%esp
 517:	63 75 2f             	arpl   %si,0x2f(%ebp)
 51a:	78 38                	js     554 <_scga-0xb7aac>
 51c:	36 2f                	ss das 
 51e:	73 72                	jae    592 <_scga-0xb7a6e>
 520:	63 2f                	arpl   %bp,(%edi)
 522:	65 65 5f             	gs gs pop %edi
 525:	67 64 74 2e          	addr16 fs je 557 <_scga-0xb7aa9>
 529:	63 00                	arpl   %ax,(%eax)
 52b:	67 72 61             	addr16 jb 58f <_scga-0xb7a71>
 52e:	6e                   	outsb  %ds:(%esi),(%dx)
 52f:	75 6c                	jne    59d <_scga-0xb7a63>
 531:	61                   	popa   
 532:	72 69                	jb     59d <_scga-0xb7a63>
 534:	74 79                	je     5af <_scga-0xb7a51>
 536:	00 6c 69 6d          	add    %ch,0x6d(%ecx,%ebp,2)
 53a:	69 74 5f 6c 6f 77 00 	imul   $0x6100776f,0x6c(%edi,%ebx,2),%esi
 541:	61 
 542:	63 63 65             	arpl   %sp,0x65(%ebx)
 545:	73 73                	jae    5ba <_scga-0xb7a46>
 547:	00 67 72             	add    %ah,0x72(%edi)
 54a:	61                   	popa   
 54b:	6e                   	outsb  %ds:(%esi),(%dx)
 54c:	00 45 45             	add    %al,0x45(%ebp)
 54f:	5f                   	pop    %edi
 550:	55                   	push   %ebp
 551:	49                   	dec    %ecx
 552:	4e                   	dec    %esi
 553:	54                   	push   %esp
 554:	31 36                	xor    %esi,(%esi)
 556:	00 62 61             	add    %ah,0x61(%edx)
 559:	73 65                	jae    5c0 <_scga-0xb7a40>
 55b:	5f                   	pop    %edi
 55c:	68 69 67 68 00       	push   $0x686769
 561:	67 64 74 5f          	addr16 fs je 5c4 <_scga-0xb7a3c>
 565:	73 65                	jae    5cc <_scga-0xb7a34>
 567:	74 5f                	je     5c8 <_scga-0xb7a38>
 569:	67 61                	addr16 popa 
 56b:	74 65                	je     5d2 <_scga-0xb7a2e>
 56d:	00 62 61             	add    %ah,0x61(%edx)
 570:	73 65                	jae    5d7 <_scga-0xb7a29>
 572:	5f                   	pop    %edi
 573:	6c                   	insb   (%dx),%es:(%edi)
 574:	6f                   	outsl  %ds:(%esi),(%dx)
 575:	77 00                	ja     577 <_scga-0xb7a89>
 577:	67 64 74 5f          	addr16 fs je 5da <_scga-0xb7a26>
 57b:	65 6e                	outsb  %gs:(%esi),(%dx)
 57d:	74 72                	je     5f1 <_scga-0xb7a0f>
 57f:	79 00                	jns    581 <_scga-0xb7a7f>
 581:	62 61 73             	bound  %esp,0x73(%ecx)
 584:	65 00 67 64          	add    %ah,%gs:0x64(%edi)
 588:	74 5f                	je     5e9 <_scga-0xb7a17>
 58a:	70 74                	jo     600 <_scga-0xb7a00>
 58c:	72 00                	jb     58e <_scga-0xb7a72>
 58e:	46                   	inc    %esi
 58f:	49                   	dec    %ecx
 590:	58                   	pop    %eax
 591:	45                   	inc    %ebp
 592:	44                   	inc    %esp
 593:	00 49 4f             	add    %cl,0x4f(%ecx)
 596:	52                   	push   %edx
 597:	45                   	inc    %ebp
 598:	47                   	inc    %edi
 599:	53                   	push   %ebx
 59a:	45                   	inc    %ebp
 59b:	4c                   	dec    %esp
 59c:	00 76 65             	add    %dh,0x65(%esi)
 59f:	63 74 6f 72          	arpl   %si,0x72(%edi,%ebp,2)
 5a3:	00 45 45             	add    %al,0x45(%ebp)
 5a6:	5f                   	pop    %edi
 5a7:	69 6f 61 70 69 63 5f 	imul   $0x5f636970,0x61(%edi),%ebp
 5ae:	73 65                	jae    615 <_scga-0xb79eb>
 5b0:	74 75                	je     627 <_scga-0xb79d9>
 5b2:	70 5f                	jo     613 <_scga-0xb79ed>
 5b4:	69 72 71 5f 65 78 74 	imul   $0x7478655f,0x71(%edx),%esi
 5bb:	65 6e                	outsb  %gs:(%esi),(%dx)
 5bd:	64 65 64 00 61 63    	fs gs add %ah,%fs:0x63(%ecx)
 5c3:	74 69                	je     62e <_scga-0xb79d2>
 5c5:	76 65                	jbe    62c <_scga-0xb79d4>
 5c7:	5f                   	pop    %edi
 5c8:	6c                   	insb   (%dx),%es:(%edi)
 5c9:	6f                   	outsl  %ds:(%esi),(%dx)
 5ca:	77 00                	ja     5cc <_scga-0xb7a34>
 5cc:	72 65                	jb     633 <_scga-0xb79cd>
 5ce:	67 5f                	addr16 pop %edi
 5d0:	6c                   	insb   (%dx),%es:(%edi)
 5d1:	6f                   	outsl  %ds:(%esi),(%dx)
 5d2:	00 69 6f             	add    %ch,0x6f(%ecx)
 5d5:	61                   	popa   
 5d6:	70 69                	jo     641 <_scga-0xb79bf>
 5d8:	63 5f 72             	arpl   %bx,0x72(%edi)
 5db:	65 67 73 00          	gs addr16 jae 5df <_scga-0xb7a21>
 5df:	49                   	dec    %ecx
 5e0:	4f                   	dec    %edi
 5e1:	52                   	push   %edx
 5e2:	45                   	inc    %ebp
 5e3:	44                   	inc    %esp
 5e4:	54                   	push   %esp
 5e5:	42                   	inc    %edx
 5e6:	4c                   	dec    %esp
 5e7:	00 4c 4f 57          	add    %cl,0x57(%edi,%ecx,2)
 5eb:	45                   	inc    %ebp
 5ec:	53                   	push   %ebx
 5ed:	54                   	push   %esp
 5ee:	5f                   	pop    %edi
 5ef:	50                   	push   %eax
 5f0:	52                   	push   %edx
 5f1:	49                   	dec    %ecx
 5f2:	4f                   	dec    %edi
 5f3:	52                   	push   %edx
 5f4:	49                   	dec    %ecx
 5f5:	54                   	push   %esp
 5f6:	59                   	pop    %ecx
 5f7:	00 69 6f             	add    %ch,0x6f(%ecx)
 5fa:	61                   	popa   
 5fb:	70 69                	jo     666 <_scga-0xb799a>
 5fd:	63 5f 77             	arpl   %bx,0x77(%edi)
 600:	72 69                	jb     66b <_scga-0xb7995>
 602:	74 65                	je     669 <_scga-0xb7997>
 604:	5f                   	pop    %edi
 605:	72 65                	jb     66c <_scga-0xb7994>
 607:	67 00 49 4f          	add    %cl,0x4f(%bx,%di)
 60b:	57                   	push   %edi
 60c:	49                   	dec    %ecx
 60d:	4e                   	dec    %esi
 60e:	00 45 58             	add    %al,0x58(%ebp)
 611:	54                   	push   %esp
 612:	49                   	dec    %ecx
 613:	4e                   	dec    %esi
 614:	54                   	push   %esp
 615:	00 2f                	add    %ch,(%edi)
 617:	68 6f 6d 65 2f       	push   $0x2f656d6f
 61c:	6b 64 77 39 32       	imul   $0x32,0x39(%edi,%esi,2),%esp
 621:	34 32                	xor    $0x32,%al
 623:	2f                   	das    
 624:	45                   	inc    %ebp
 625:	72 69                	jb     690 <_scga-0xb7970>
 627:	6b 61 2f 70          	imul   $0x70,0x2f(%ecx),%esp
 62b:	6b 67 2f 6d          	imul   $0x6d,0x2f(%edi),%esp
 62f:	63 75 2f             	arpl   %si,0x2f(%ebp)
 632:	78 38                	js     66c <_scga-0xb7994>
 634:	36 2f                	ss das 
 636:	73 72                	jae    6aa <_scga-0xb7956>
 638:	63 2f                	arpl   %bp,(%edi)
 63a:	65 65 5f             	gs gs pop %edi
 63d:	69 6f 61 70 69 63 2e 	imul   $0x2e636970,0x61(%edi),%ebp
 644:	63 00                	arpl   %ax,(%eax)
 646:	45                   	inc    %ebp
 647:	45                   	inc    %ebp
 648:	5f                   	pop    %edi
 649:	69 6f 61 70 69 63 5f 	imul   $0x5f636970,0x61(%edi),%ebp
 650:	73 65                	jae    6b7 <_scga-0xb7949>
 652:	74 75                	je     6c9 <_scga-0xb7937>
 654:	70 5f                	jo     6b5 <_scga-0xb794b>
 656:	69 72 71 00 65 65 5f 	imul   $0x5f656500,0x71(%edx),%esi
 65d:	69 6f 61 70 69 63 5f 	imul   $0x5f636970,0x61(%edi),%ebp
 664:	64 65 6c             	fs gs insb (%dx),%es:(%edi)
 667:	69 76 65 72 79 5f 6d 	imul   $0x6d5f7972,0x65(%esi),%esi
 66e:	6f                   	outsl  %ds:(%esi),(%dx)
 66f:	64 65 00 45 45       	fs add %al,%gs:0x45(%ebp)
 674:	5f                   	pop    %edi
 675:	75 61                	jne    6d8 <_scga-0xb7928>
 677:	72 74                	jb     6ed <_scga-0xb7913>
 679:	5f                   	pop    %edi
 67a:	70 75                	jo     6f1 <_scga-0xb790f>
 67c:	74 73                	je     6f1 <_scga-0xb790f>
 67e:	00 45 45             	add    %al,0x45(%ebp)
 681:	5f                   	pop    %edi
 682:	75 61                	jne    6e5 <_scga-0xb791b>
 684:	72 74                	jb     6fa <_scga-0xb7906>
 686:	5f                   	pop    %edi
 687:	69 6e 69 74 00 2f 68 	imul   $0x682f0074,0x69(%esi),%ebp
 68e:	6f                   	outsl  %ds:(%esi),(%dx)
 68f:	6d                   	insl   (%dx),%es:(%edi)
 690:	65 2f                	gs das 
 692:	6b 64 77 39 32       	imul   $0x32,0x39(%edi,%esi,2),%esp
 697:	34 32                	xor    $0x32,%al
 699:	2f                   	das    
 69a:	45                   	inc    %ebp
 69b:	72 69                	jb     706 <_scga-0xb78fa>
 69d:	6b 61 2f 70          	imul   $0x70,0x2f(%ecx),%esp
 6a1:	6b 67 2f 6d          	imul   $0x6d,0x2f(%edi),%esp
 6a5:	63 75 2f             	arpl   %si,0x2f(%ebp)
 6a8:	78 38                	js     6e2 <_scga-0xb791e>
 6aa:	36 2f                	ss das 
 6ac:	73 72                	jae    720 <_scga-0xb78e0>
 6ae:	63 2f                	arpl   %bp,(%edi)
 6b0:	65 65 5f             	gs gs pop %edi
 6b3:	75 61                	jne    716 <_scga-0xb78ea>
 6b5:	72 74                	jb     72b <_scga-0xb78d5>
 6b7:	2e 63 00             	arpl   %ax,%cs:(%eax)
 6ba:	64 61                	fs popa 
 6bc:	74 61                	je     71f <_scga-0xb78e1>
 6be:	00 65 6d             	add    %ah,0x6d(%ebp)
 6c1:	70 74                	jo     737 <_scga-0xb78c9>
 6c3:	79 00                	jns    6c5 <_scga-0xb793b>
 6c5:	69 64 74 5f 64 65 73 	imul   $0x63736564,0x5f(%esp,%esi,2),%esp
 6cc:	63 
 6cd:	72 69                	jb     738 <_scga-0xb78c8>
 6cf:	70 74                	jo     745 <_scga-0xb78bb>
 6d1:	6f                   	outsl  %ds:(%esi),(%dx)
 6d2:	72 00                	jb     6d4 <_scga-0xb792c>
 6d4:	45                   	inc    %ebp
 6d5:	45                   	inc    %ebp
 6d6:	5f                   	pop    %edi
 6d7:	73 74                	jae    74d <_scga-0xb78b3>
 6d9:	64 5f                	fs pop %edi
 6db:	61                   	popa   
 6dc:	66 74 65             	data16 je 744 <_scga-0xb78bc>
 6df:	72 5f                	jb     740 <_scga-0xb78c0>
 6e1:	49                   	dec    %ecx
 6e2:	52                   	push   %edx
 6e3:	51                   	push   %ecx
 6e4:	5f                   	pop    %edi
 6e5:	73 63                	jae    74a <_scga-0xb78b6>
 6e7:	68 65 64 75 6c       	push   $0x6c756465
 6ec:	65 00 69 73          	add    %ch,%gs:0x73(%ecx)
 6f0:	72 5f                	jb     751 <_scga-0xb78af>
 6f2:	69 6d 70 6c 5f 75 6e 	imul   $0x6e755f6c,0x70(%ebp),%ebp
 6f9:	68 61 6e 64 6c       	push   $0x6c646e61
 6fe:	65 64 00 45 45       	gs add %al,%fs:0x45(%ebp)
 703:	5f                   	pop    %edi
 704:	68 61 6c 5f 65       	push   $0x655f6c61
 709:	6e                   	outsb  %ds:(%esi),(%dx)
 70a:	61                   	popa   
 70b:	62 6c 65 49          	bound  %ebp,0x49(%ebp,%eiz,2)
 70f:	52                   	push   %edx
 710:	51                   	push   %ecx
 711:	00 69 73             	add    %ch,0x73(%ecx)
 714:	72 5f                	jb     775 <_scga-0xb788b>
 716:	6f                   	outsl  %ds:(%esi),(%dx)
 717:	66 66 73 65          	data16 data16 jae 780 <_scga-0xb7880>
 71b:	74 5f                	je     77c <_scga-0xb7884>
 71d:	33 31                	xor    (%ecx),%esi
 71f:	5f                   	pop    %edi
 720:	31 36                	xor    %esi,(%esi)
 722:	00 45 45             	add    %al,0x45(%ebp)
 725:	5f                   	pop    %edi
 726:	49                   	dec    %ecx
 727:	53                   	push   %ebx
 728:	52                   	push   %edx
 729:	32 5f 70             	xor    0x70(%edi),%bl
 72c:	6f                   	outsl  %ds:(%esi),(%dx)
 72d:	73 74                	jae    7a3 <_scga-0xb785d>
 72f:	73 74                	jae    7a5 <_scga-0xb785b>
 731:	75 62                	jne    795 <_scga-0xb786b>
 733:	00 65 66             	add    %ah,0x66(%ebp)
 736:	6c                   	insb   (%dx),%es:(%edi)
 737:	61                   	popa   
 738:	67 73 00             	addr16 jae 73b <_scga-0xb78c5>
 73b:	74 61                	je     79e <_scga-0xb7862>
 73d:	73 6b                	jae    7aa <_scga-0xb7856>
 73f:	00 75 73             	add    %dh,0x73(%ebp)
 742:	65 72 5f             	gs jb  7a4 <_scga-0xb785c>
 745:	65 73 70             	gs jae 7b8 <_scga-0xb7848>
 748:	00 45 45             	add    %al,0x45(%ebp)
 74b:	5f                   	pop    %edi
 74c:	68 61 6c 5f 73       	push   $0x735f6c61
 751:	68 75 74 64 6f       	push   $0x6f647475
 756:	77 6e                	ja     7c6 <_scga-0xb783a>
 758:	5f                   	pop    %edi
 759:	73 79                	jae    7d4 <_scga-0xb782c>
 75b:	73 74                	jae    7d1 <_scga-0xb782f>
 75d:	65 6d                	gs insl (%dx),%es:(%edi)
 75f:	00 65 72             	add    %ah,0x72(%ebp)
 762:	72 6f                	jb     7d3 <_scga-0xb782d>
 764:	72 5f                	jb     7c5 <_scga-0xb783b>
 766:	63 6f 64             	arpl   %bp,0x64(%edi)
 769:	65 00 69 64          	add    %ch,%gs:0x64(%ecx)
 76d:	74 64                	je     7d3 <_scga-0xb782d>
 76f:	65 73 63             	gs jae 7d5 <_scga-0xb782b>
 772:	00 63 70             	add    %ah,0x70(%ebx)
 775:	75 5f                	jne    7d6 <_scga-0xb782a>
 777:	63 6f 6e             	arpl   %bp,0x6e(%edi)
 77a:	74 65                	je     7e1 <_scga-0xb781f>
 77c:	78 74                	js     7f2 <_scga-0xb780e>
 77e:	00 2f                	add    %ch,(%edi)
 780:	68 6f 6d 65 2f       	push   $0x2f656d6f
 785:	6b 64 77 39 32       	imul   $0x32,0x39(%edi,%esi,2),%esp
 78a:	34 32                	xor    $0x32,%al
 78c:	2f                   	das    
 78d:	45                   	inc    %ebp
 78e:	72 69                	jb     7f9 <_scga-0xb7807>
 790:	6b 61 2f 70          	imul   $0x70,0x2f(%ecx),%esp
 794:	6b 67 2f 63          	imul   $0x63,0x2f(%edi),%esp
 798:	70 75                	jo     80f <_scga-0xb77f1>
 79a:	2f                   	das    
 79b:	78 38                	js     7d5 <_scga-0xb782b>
 79d:	36 2f                	ss das 
 79f:	73 72                	jae    813 <_scga-0xb77ed>
 7a1:	63 2f                	arpl   %bp,(%edi)
 7a3:	65 65 5f             	gs gs pop %edi
 7a6:	69 72 71 73 74 75 62 	imul   $0x62757473,0x71(%edx),%esi
 7ad:	2e 63 00             	arpl   %ax,%cs:(%eax)
 7b0:	69 64 74 5f 64 65 73 	imul   $0x63736564,0x5f(%esp,%esi,2),%esp
 7b7:	63 
 7b8:	00 61 64             	add    %ah,0x64(%ecx)
 7bb:	64 72 00             	fs jb  7be <_scga-0xb7842>
 7be:	74 61                	je     821 <_scga-0xb77df>
 7c0:	73 6b                	jae    82d <_scga-0xb77d3>
 7c2:	5f                   	pop    %edi
 7c3:	63 6f 6e             	arpl   %bp,0x6e(%edi)
 7c6:	74 65                	je     82d <_scga-0xb77d3>
 7c8:	78 74                	js     83e <_scga-0xb77c2>
 7ca:	00 45 45             	add    %al,0x45(%ebp)
 7cd:	5f                   	pop    %edi
 7ce:	73 74                	jae    844 <_scga-0xb77bc>
 7d0:	64 5f                	fs pop %edi
 7d2:	63 68 61             	arpl   %bp,0x61(%eax)
 7d5:	6e                   	outsb  %ds:(%esi),(%dx)
 7d6:	67 65 5f             	addr16 gs pop %edi
 7d9:	63 6f 6e             	arpl   %bp,0x6e(%edi)
 7dc:	74 65                	je     843 <_scga-0xb77bd>
 7de:	78 74                	js     854 <_scga-0xb77ac>
 7e0:	00 74 68 65          	add    %dh,0x65(%eax,%ebp,2)
 7e4:	69 64 74 00 45 45 5f 	imul   $0x495f4545,0x0(%esp,%esi,2),%esp
 7eb:	49 
 7ec:	53                   	push   %ebx
 7ed:	52                   	push   %edx
 7ee:	32 5f 70             	xor    0x70(%edi),%bl
 7f1:	72 65                	jb     858 <_scga-0xb77a8>
 7f3:	73 74                	jae    869 <_scga-0xb7797>
 7f5:	75 62                	jne    859 <_scga-0xb77a7>
 7f7:	00 45 45             	add    %al,0x45(%ebp)
 7fa:	5f                   	pop    %edi
 7fb:	69 6e 63 72 65 6d 65 	imul   $0x656d6572,0x63(%esi),%ebp
 802:	6e                   	outsb  %ds:(%esi),(%dx)
 803:	74 5f                	je     864 <_scga-0xb779c>
 805:	49                   	dec    %ecx
 806:	52                   	push   %edx
 807:	51                   	push   %ecx
 808:	5f                   	pop    %edi
 809:	6e                   	outsb  %ds:(%esi),(%dx)
 80a:	65 73 74             	gs jae 881 <_scga-0xb777f>
 80d:	69 6e 67 5f 6c 65 76 	imul   $0x76656c5f,0x67(%esi),%ebp
 814:	65 6c                	gs insb (%dx),%es:(%edi)
 816:	00 73 69             	add    %dh,0x69(%ebx)
 819:	7a 65                	jp     880 <_scga-0xb7780>
 81b:	00 69 73             	add    %ch,0x73(%ecx)
 81e:	72 5f                	jb     87f <_scga-0xb7781>
 820:	6f                   	outsl  %ds:(%esi),(%dx)
 821:	66 66 73 65          	data16 data16 jae 88a <_scga-0xb7776>
 825:	74 5f                	je     886 <_scga-0xb777a>
 827:	31 35 5f 30 00 69    	xor    %esi,0x6900305f
 82d:	72 71                	jb     8a0 <_scga-0xb7760>
 82f:	5f                   	pop    %edi
 830:	63 6f 6e             	arpl   %bp,0x6e(%edi)
 833:	74 65                	je     89a <_scga-0xb7766>
 835:	78 74                	js     8ab <_scga-0xb7755>
 837:	00 45 45             	add    %al,0x45(%ebp)
 83a:	5f                   	pop    %edi
 83b:	78 38                	js     875 <_scga-0xb778b>
 83d:	36 5f                	ss pop %edi
 83f:	65 6e                	outsb  %gs:(%esi),(%dx)
 841:	61                   	popa   
 842:	62 6c 65 49          	bound  %ebp,0x49(%ebp,%eiz,2)
 846:	52                   	push   %edx
 847:	51                   	push   %ecx
 848:	00 45 45             	add    %al,0x45(%ebp)
 84b:	5f                   	pop    %edi
 84c:	6c                   	insb   (%dx),%es:(%edi)
 84d:	61                   	popa   
 84e:	70 69                	jo     8b9 <_scga-0xb7747>
 850:	63 5f 73             	arpl   %bx,0x73(%edi)
 853:	65 6e                	outsb  %gs:(%esi),(%dx)
 855:	64 5f                	fs pop %edi
 857:	65 6f                	outsl  %gs:(%esi),(%dx)
 859:	69 00 69 73 72 5f    	imul   $0x5f727369,(%eax),%eax
 85f:	75 6e                	jne    8cf <_scga-0xb7731>
 861:	68 61 6e 64 6c       	push   $0x6c646e61
 866:	65 64 00 7a 65       	gs add %bh,%fs:0x65(%edx)
 86b:	72 6f                	jb     8dc <_scga-0xb7724>
 86d:	00 45 45             	add    %al,0x45(%ebp)
 870:	5f                   	pop    %edi
 871:	64 65 63 72 65       	fs arpl %si,%gs:0x65(%edx)
 876:	6d                   	insl   (%dx),%es:(%edi)
 877:	65 6e                	outsb  %gs:(%esi),(%dx)
 879:	74 5f                	je     8da <_scga-0xb7726>
 87b:	49                   	dec    %ecx
 87c:	52                   	push   %edx
 87d:	51                   	push   %ecx
 87e:	5f                   	pop    %edi
 87f:	6e                   	outsb  %ds:(%esi),(%dx)
 880:	65 73 74             	gs jae 8f7 <_scga-0xb7709>
 883:	69 6e 67 5f 6c 65 76 	imul   $0x76656c5f,0x67(%esi),%ebp
 88a:	65 6c                	gs insb (%dx),%es:(%edi)
 88c:	00 45 45             	add    %al,0x45(%ebp)
 88f:	5f                   	pop    %edi
 890:	78 38                	js     8ca <_scga-0xb7736>
 892:	36 5f                	ss pop %edi
 894:	73 79                	jae    90f <_scga-0xb76f1>
 896:	73 5f                	jae    8f7 <_scga-0xb7709>
 898:	73 74                	jae    90e <_scga-0xb76f2>
 89a:	61                   	popa   
 89b:	63 6b 00             	arpl   %bp,0x0(%ebx)
 89e:	45                   	inc    %ebp
 89f:	45                   	inc    %ebp
 8a0:	5f                   	pop    %edi
 8a1:	53                   	push   %ebx
 8a2:	54                   	push   %esp
 8a3:	41                   	inc    %ecx
 8a4:	43                   	inc    %ebx
 8a5:	4b                   	dec    %ebx
 8a6:	5f                   	pop    %edi
 8a7:	54                   	push   %esp
 8a8:	00 2f                	add    %ch,(%edi)
 8aa:	68 6f 6d 65 2f       	push   $0x2f656d6f
 8af:	6b 64 77 39 32       	imul   $0x32,0x39(%edi,%esi,2),%esp
 8b4:	34 32                	xor    $0x32,%al
 8b6:	2f                   	das    
 8b7:	45                   	inc    %ebp
 8b8:	72 69                	jb     923 <_scga-0xb76dd>
 8ba:	6b 61 2f 70          	imul   $0x70,0x2f(%ecx),%esp
 8be:	6b 67 2f 63          	imul   $0x63,0x2f(%edi),%esp
 8c2:	70 75                	jo     939 <_scga-0xb76c7>
 8c4:	2f                   	das    
 8c5:	63 6f 6d             	arpl   %bp,0x6d(%edi)
 8c8:	6d                   	insl   (%dx),%es:(%edi)
 8c9:	6f                   	outsl  %ds:(%esi),(%dx)
 8ca:	6e                   	outsb  %ds:(%esi),(%dx)
 8cb:	2f                   	das    
 8cc:	73 72                	jae    940 <_scga-0xb76c0>
 8ce:	63 2f                	arpl   %bp,(%edi)
 8d0:	65 65 5f             	gs gs pop %edi
 8d3:	68 61 6c 5f 73       	push   $0x735f6c61
 8d8:	74 72                	je     94c <_scga-0xb76b4>
 8da:	75 63                	jne    93f <_scga-0xb76c1>
 8dc:	74 73                	je     951 <_scga-0xb76af>
 8de:	2e 63 00             	arpl   %ax,%cs:(%eax)

Disassembly of section .debug_loc:

00000000 <.debug_loc>:
   0:	9c                   	pushf  
   1:	00 00                	add    %al,(%eax)
   3:	00 ab 00 00 00 02    	add    %ch,0x2000000(%ebx)
   9:	00 91 00 ab 00 00    	add    %dl,0xab00(%ecx)
   f:	00 c1                	add    %al,%cl
  11:	00 00                	add    %al,(%eax)
  13:	00 03                	add    %al,(%ebx)
  15:	00 73 01             	add    %dh,0x1(%ebx)
  18:	9f                   	lahf   
  19:	c1 00 00             	roll   $0x0,(%eax)
  1c:	00 cf                	add    %cl,%bh
  1e:	00 00                	add    %al,(%eax)
  20:	00 01                	add    %al,(%ecx)
  22:	00 53 cf             	add    %dl,-0x31(%ebx)
  25:	00 00                	add    %al,(%eax)
  27:	00 d9                	add    %bl,%cl
  29:	00 00                	add    %al,(%eax)
  2b:	00 03                	add    %al,(%ebx)
  2d:	00 73 02             	add    %dh,0x2(%ebx)
  30:	9f                   	lahf   
  31:	d9 00                	flds   (%eax)
  33:	00 00                	add    %al,(%eax)
  35:	df 00                	fild   (%eax)
  37:	00 00                	add    %al,(%eax)
  39:	01 00                	add    %eax,(%eax)
  3b:	53                   	push   %ebx
  3c:	df 00                	fild   (%eax)
  3e:	00 00                	add    %al,(%eax)
  40:	e9 00 00 00 03       	jmp    3000045 <gdt+0x2dfdfe5>
  45:	00 73 03             	add    %dh,0x3(%ebx)
  48:	9f                   	lahf   
  49:	e9 00 00 00 03       	jmp    300004e <gdt+0x2dfdfee>
  4e:	01 00                	add    %eax,(%eax)
  50:	00 01                	add    %al,(%ecx)
  52:	00 53 03             	add    %dl,0x3(%ebx)
  55:	01 00                	add    %eax,(%eax)
  57:	00 0b                	add    %cl,(%ebx)
  59:	01 00                	add    %eax,(%eax)
  5b:	00 03                	add    %al,(%ebx)
  5d:	00 73 7f             	add    %dh,0x7f(%ebx)
  60:	9f                   	lahf   
  61:	0b 01                	or     (%ecx),%eax
  63:	00 00                	add    %al,(%eax)
  65:	9f                   	lahf   
  66:	02 00                	add    (%eax),%al
  68:	00 01                	add    %al,(%ecx)
  6a:	00 53 00             	add    %dl,0x0(%ebx)
  6d:	00 00                	add    %al,(%eax)
  6f:	00 00                	add    %al,(%eax)
  71:	00 00                	add    %al,(%eax)
  73:	00 a5 00 00 00 c6    	add    %ah,-0x3a000000(%ebp)
  79:	00 00                	add    %al,(%eax)
  7b:	00 01                	add    %al,(%ecx)
  7d:	00 52 c6             	add    %dl,-0x3a(%edx)
  80:	00 00                	add    %al,(%eax)
  82:	00 cf                	add    %cl,%bh
  84:	00 00                	add    %al,(%eax)
  86:	00 02                	add    %al,(%edx)
  88:	00 91 5c cf 00 00    	add    %dl,0xcf5c(%ecx)
  8e:	00 64 01 00          	add    %ah,0x0(%ecx,%eax,1)
  92:	00 01                	add    %al,(%ecx)
  94:	00 52 64             	add    %dl,0x64(%edx)
  97:	01 00                	add    %eax,(%eax)
  99:	00 ab 01 00 00 01    	add    %ch,0x1000001(%ebx)
  9f:	00 57 ab             	add    %dl,-0x55(%edi)
  a2:	01 00                	add    %eax,(%eax)
  a4:	00 b2 01 00 00 01    	add    %dh,0x1000001(%edx)
  aa:	00 52 b2             	add    %dl,-0x4e(%edx)
  ad:	01 00                	add    %eax,(%eax)
  af:	00 ec                	add    %ch,%ah
  b1:	01 00                	add    %eax,(%eax)
  b3:	00 01                	add    %al,(%ecx)
  b5:	00 57 ec             	add    %dl,-0x14(%edi)
  b8:	01 00                	add    %eax,(%eax)
  ba:	00 f2                	add    %dh,%dl
  bc:	01 00                	add    %eax,(%eax)
  be:	00 01                	add    %al,(%ecx)
  c0:	00 52 f2             	add    %dl,-0xe(%edx)
  c3:	01 00                	add    %eax,(%eax)
  c5:	00 f9                	add    %bh,%cl
  c7:	01 00                	add    %eax,(%eax)
  c9:	00 01                	add    %al,(%ecx)
  cb:	00 57 f9             	add    %dl,-0x7(%edi)
  ce:	01 00                	add    %eax,(%eax)
  d0:	00 fe                	add    %bh,%dh
  d2:	01 00                	add    %eax,(%eax)
  d4:	00 03                	add    %al,(%ebx)
  d6:	00 72 04             	add    %dh,0x4(%edx)
  d9:	9f                   	lahf   
  da:	fe 01                	incb   (%ecx)
  dc:	00 00                	add    %al,(%eax)
  de:	11 02                	adc    %eax,(%edx)
  e0:	00 00                	add    %al,(%eax)
  e2:	01 00                	add    %eax,(%eax)
  e4:	52                   	push   %edx
  e5:	11 02                	adc    %eax,(%edx)
  e7:	00 00                	add    %al,(%eax)
  e9:	17                   	pop    %ss
  ea:	02 00                	add    (%eax),%al
  ec:	00 02                	add    %al,(%edx)
  ee:	00 91 58 17 02 00    	add    %dl,0x21758(%ecx)
  f4:	00 5d 02             	add    %bl,0x2(%ebp)
  f7:	00 00                	add    %al,(%eax)
  f9:	01 00                	add    %eax,(%eax)
  fb:	52                   	push   %edx
  fc:	9f                   	lahf   
  fd:	02 00                	add    (%eax),%al
  ff:	00 a7 02 00 00 01    	add    %ah,0x1000002(%edi)
 105:	00 52 00             	add    %dl,0x0(%edx)
 108:	00 00                	add    %al,(%eax)
 10a:	00 00                	add    %al,(%eax)
 10c:	00 00                	add    %al,(%eax)
 10e:	00 ae 00 00 00 c6    	add    %ch,-0x3a000000(%esi)
 114:	00 00                	add    %al,(%eax)
 116:	00 01                	add    %al,(%ecx)
 118:	00 50 cf             	add    %dl,-0x31(%eax)
 11b:	00 00                	add    %al,(%eax)
 11d:	00 df                	add    %bl,%bh
 11f:	00 00                	add    %al,(%eax)
 121:	00 01                	add    %al,(%ecx)
 123:	00 50 df             	add    %dl,-0x21(%eax)
 126:	00 00                	add    %al,(%eax)
 128:	00 e9                	add    %ch,%cl
 12a:	00 00                	add    %al,(%eax)
 12c:	00 02                	add    %al,(%edx)
 12e:	00 73 02             	add    %dh,0x2(%ebx)
 131:	e9 00 00 00 02       	jmp    2000136 <gdt+0x1dfe0d6>
 136:	01 00                	add    %eax,(%eax)
 138:	00 01                	add    %al,(%ecx)
 13a:	00 50 0b             	add    %dl,0xb(%eax)
 13d:	01 00                	add    %eax,(%eax)
 13f:	00 7b 01             	add    %bh,0x1(%ebx)
 142:	00 00                	add    %al,(%eax)
 144:	01 00                	add    %eax,(%eax)
 146:	50                   	push   %eax
 147:	ab                   	stos   %eax,%es:(%edi)
 148:	01 00                	add    %eax,(%eax)
 14a:	00 af 01 00 00 01    	add    %ch,0x1000001(%edi)
 150:	00 50 ec             	add    %dl,-0x14(%eax)
 153:	01 00                	add    %eax,(%eax)
 155:	00 ef                	add    %ch,%bh
 157:	01 00                	add    %eax,(%eax)
 159:	00 01                	add    %al,(%ecx)
 15b:	00 50 f9             	add    %dl,-0x7(%eax)
 15e:	01 00                	add    %eax,(%eax)
 160:	00 05 02 00 00 01    	add    %al,0x1000002
 166:	00 50 83             	add    %dl,-0x7d(%eax)
 169:	02 00                	add    (%eax),%al
 16b:	00 96 02 00 00 01    	add    %dl,0x1000002(%esi)
 171:	00 50 00             	add    %dl,0x0(%eax)
 174:	00 00                	add    %al,(%eax)
 176:	00 00                	add    %al,(%eax)
 178:	00 00                	add    %al,(%eax)
 17a:	00 19                	add    %bl,(%ecx)
 17c:	01 00                	add    %eax,(%eax)
 17e:	00 fb                	add    %bh,%bl
 180:	01 00                	add    %eax,(%eax)
 182:	00 06                	add    %al,(%esi)
 184:	00 03                	add    %al,(%ebx)
 186:	30 20                	xor    %ah,(%eax)
 188:	20 00                	and    %al,(%eax)
 18a:	9f                   	lahf   
 18b:	00 02                	add    %al,(%edx)
 18d:	00 00                	add    %al,(%eax)
 18f:	1c 02                	sbb    $0x2,%al
 191:	00 00                	add    %al,(%eax)
 193:	06                   	push   %es
 194:	00 03                	add    %al,(%ebx)
 196:	30 20                	xor    %ah,(%eax)
 198:	20 00                	and    %al,(%eax)
 19a:	9f                   	lahf   
 19b:	1c 02                	sbb    $0x2,%al
 19d:	00 00                	add    %al,(%eax)
 19f:	9f                   	lahf   
 1a0:	02 00                	add    (%eax),%al
 1a2:	00 01                	add    %al,(%ecx)
 1a4:	00 57 00             	add    %dl,0x0(%edi)
 1a7:	00 00                	add    %al,(%eax)
 1a9:	00 00                	add    %al,(%eax)
 1ab:	00 00                	add    %al,(%eax)
 1ad:	00 cf                	add    %cl,%bh
 1af:	00 00                	add    %al,(%eax)
 1b1:	00 e2                	add    %ah,%dl
 1b3:	00 00                	add    %al,(%eax)
 1b5:	00 02                	add    %al,(%edx)
 1b7:	00 30                	add    %dh,(%eax)
 1b9:	9f                   	lahf   
 1ba:	e2 00                	loop   1bc <_scga-0xb7e44>
 1bc:	00 00                	add    %al,(%eax)
 1be:	e9 00 00 00 02       	jmp    20001c3 <gdt+0x1dfe163>
 1c3:	00 31                	add    %dh,(%ecx)
 1c5:	9f                   	lahf   
 1c6:	e9 00 00 00 5d       	jmp    5d0001cb <gdt+0x5cdfe16b>
 1cb:	02 00                	add    (%eax),%al
 1cd:	00 02                	add    %al,(%edx)
 1cf:	00 91 5c 00 00 00    	add    %dl,0x5c(%ecx)
 1d5:	00 00                	add    %al,(%eax)
 1d7:	00 00                	add    %al,(%eax)
 1d9:	00 cf                	add    %cl,%bh
 1db:	00 00                	add    %al,(%eax)
 1dd:	00 f3                	add    %dh,%bl
 1df:	00 00                	add    %al,(%eax)
 1e1:	00 02                	add    %al,(%edx)
 1e3:	00 30                	add    %dh,(%eax)
 1e5:	9f                   	lahf   
 1e6:	f3 00 00             	repz add %al,(%eax)
 1e9:	00 05 01 00 00 01    	add    %al,0x1000001
 1ef:	00 56 0b             	add    %dl,0xb(%esi)
 1f2:	01 00                	add    %eax,(%eax)
 1f4:	00 50 02             	add    %dl,0x2(%eax)
 1f7:	00 00                	add    %al,(%eax)
 1f9:	01 00                	add    %eax,(%eax)
 1fb:	56                   	push   %esi
 1fc:	50                   	push   %eax
 1fd:	02 00                	add    (%eax),%al
 1ff:	00 51 02             	add    %dl,0x2(%ecx)
 202:	00 00                	add    %al,(%eax)
 204:	01 00                	add    %eax,(%eax)
 206:	51                   	push   %ecx
 207:	51                   	push   %ecx
 208:	02 00                	add    (%eax),%al
 20a:	00 53 02             	add    %dl,0x2(%ebx)
 20d:	00 00                	add    %al,(%eax)
 20f:	01 00                	add    %eax,(%eax)
 211:	56                   	push   %esi
 212:	53                   	push   %ebx
 213:	02 00                	add    (%eax),%al
 215:	00 5d 02             	add    %bl,0x2(%ebp)
 218:	00 00                	add    %al,(%eax)
 21a:	01 00                	add    %eax,(%eax)
 21c:	51                   	push   %ecx
 21d:	5d                   	pop    %ebp
 21e:	02 00                	add    (%eax),%al
 220:	00 6e 02             	add    %ch,0x2(%esi)
 223:	00 00                	add    %al,(%eax)
 225:	03 00                	add    (%eax),%eax
 227:	76 7f                	jbe    2a8 <_scga-0xb7d58>
 229:	9f                   	lahf   
 22a:	6e                   	outsb  %ds:(%esi),(%dx)
 22b:	02 00                	add    (%eax),%al
 22d:	00 72 02             	add    %dh,0x2(%edx)
 230:	00 00                	add    %al,(%eax)
 232:	03 00                	add    (%eax),%eax
 234:	71 7f                	jno    2b5 <_scga-0xb7d4b>
 236:	9f                   	lahf   
	...
 23f:	41                   	inc    %ecx
 240:	00 00                	add    %al,(%eax)
 242:	00 7d 00             	add    %bh,0x0(%ebp)
 245:	00 00                	add    %al,(%eax)
 247:	01 00                	add    %eax,(%eax)
 249:	50                   	push   %eax
 24a:	7d 00                	jge    24c <_scga-0xb7db4>
 24c:	00 00                	add    %al,(%eax)
 24e:	7f 00                	jg     250 <_scga-0xb7db0>
 250:	00 00                	add    %al,(%eax)
 252:	04 00                	add    $0x0,%al
 254:	f3 01 50 9f          	repz add %edx,-0x61(%eax)
 258:	7f 00                	jg     25a <_scga-0xb7da6>
 25a:	00 00                	add    %al,(%eax)
 25c:	82                   	(bad)  
 25d:	00 00                	add    %al,(%eax)
 25f:	00 01                	add    %al,(%ecx)
 261:	00 50 00             	add    %dl,0x0(%eax)
 264:	00 00                	add    %al,(%eax)
 266:	00 00                	add    %al,(%eax)
 268:	00 00                	add    %al,(%eax)
 26a:	00 41 00             	add    %al,0x0(%ecx)
 26d:	00 00                	add    %al,(%eax)
 26f:	56                   	push   %esi
 270:	00 00                	add    %al,(%eax)
 272:	00 02                	add    %al,(%edx)
 274:	00 30                	add    %dh,(%eax)
 276:	9f                   	lahf   
 277:	56                   	push   %esi
 278:	00 00                	add    %al,(%eax)
 27a:	00 7e 00             	add    %bh,0x0(%esi)
 27d:	00 00                	add    %al,(%eax)
 27f:	01 00                	add    %eax,(%eax)
 281:	52                   	push   %edx
 282:	7f 00                	jg     284 <_scga-0xb7d7c>
 284:	00 00                	add    %al,(%eax)
 286:	82                   	(bad)  
 287:	00 00                	add    %al,(%eax)
 289:	00 01                	add    %al,(%ecx)
 28b:	00 52 00             	add    %dl,0x0(%edx)
 28e:	00 00                	add    %al,(%eax)
 290:	00 00                	add    %al,(%eax)
 292:	00 00                	add    %al,(%eax)
 294:	00 16                	add    %dl,(%esi)
 296:	00 00                	add    %al,(%eax)
 298:	00 30                	add    %dh,(%eax)
 29a:	00 00                	add    %al,(%eax)
 29c:	00 01                	add    %al,(%ecx)
 29e:	00 50 30             	add    %dl,0x30(%eax)
 2a1:	00 00                	add    %al,(%eax)
 2a3:	00 41 00             	add    %al,0x0(%ecx)
 2a6:	00 00                	add    %al,(%eax)
 2a8:	04 00                	add    $0x0,%al
 2aa:	f3 01 50 9f          	repz add %edx,-0x61(%eax)
	...
 2b6:	10 00                	adc    %al,(%eax)
 2b8:	00 00                	add    %al,(%eax)
 2ba:	4c                   	dec    %esp
 2bb:	00 00                	add    %al,(%eax)
 2bd:	00 03                	add    %al,(%ebx)
 2bf:	00 08                	add    %cl,(%eax)
 2c1:	38 9f 00 00 00 00    	cmp    %bl,0x0(%edi)
 2c7:	00 00                	add    %al,(%eax)
 2c9:	00 00                	add    %al,(%eax)
 2cb:	10 00                	adc    %al,(%eax)
 2cd:	00 00                	add    %al,(%eax)
 2cf:	4c                   	dec    %esp
 2d0:	00 00                	add    %al,(%eax)
 2d2:	00 03                	add    %al,(%ebx)
 2d4:	00 08                	add    %cl,(%eax)
 2d6:	30 9f 00 00 00 00    	xor    %bl,0x0(%edi)
 2dc:	00 00                	add    %al,(%eax)
 2de:	00 00                	add    %al,(%eax)
 2e0:	10 00                	adc    %al,(%eax)
 2e2:	00 00                	add    %al,(%eax)
 2e4:	14 00                	adc    $0x0,%al
 2e6:	00 00                	add    %al,(%eax)
 2e8:	03 00                	add    (%eax),%eax
 2ea:	08 21                	or     %ah,(%ecx)
 2ec:	9f                   	lahf   
	...
 2f5:	14 00                	adc    $0x0,%al
 2f7:	00 00                	add    %al,(%eax)
 2f9:	18 00                	sbb    %al,(%eax)
 2fb:	00 00                	add    %al,(%eax)
 2fd:	03 00                	add    (%eax),%eax
 2ff:	08 a1 9f 00 00 00    	or     %ah,0x9f(%ecx)
 305:	00 00                	add    %al,(%eax)
 307:	00 00                	add    %al,(%eax)
 309:	00 18                	add    %bl,(%eax)
 30b:	00 00                	add    %al,(%eax)
 30d:	00 1c 00             	add    %bl,(%eax,%eax,1)
 310:	00 00                	add    %al,(%eax)
 312:	02 00                	add    (%eax),%al
 314:	41                   	inc    %ecx
 315:	9f                   	lahf   
	...
 31e:	18 00                	sbb    %al,(%eax)
 320:	00 00                	add    %al,(%eax)
 322:	1c 00                	sbb    $0x0,%al
 324:	00 00                	add    %al,(%eax)
 326:	03 00                	add    (%eax),%eax
 328:	08 20                	or     %ah,(%eax)
 32a:	9f                   	lahf   
	...
 333:	1e                   	push   %ds
 334:	00 00                	add    %al,(%eax)
 336:	00 20                	add    %ah,(%eax)
 338:	00 00                	add    %al,(%eax)
 33a:	00 02                	add    %al,(%edx)
 33c:	00 41 9f             	add    %al,-0x61(%ecx)
	...
 347:	1e                   	push   %ds
 348:	00 00                	add    %al,(%eax)
 34a:	00 20                	add    %ah,(%eax)
 34c:	00 00                	add    %al,(%eax)
 34e:	00 03                	add    %al,(%ebx)
 350:	00 08                	add    %cl,(%eax)
 352:	a0 9f 00 00 00       	mov    0x9f,%al
 357:	00 00                	add    %al,(%eax)
 359:	00 00                	add    %al,(%eax)
 35b:	00 22                	add    %ah,(%edx)
 35d:	00 00                	add    %al,(%eax)
 35f:	00 26                	add    %ah,(%esi)
 361:	00 00                	add    %al,(%eax)
 363:	00 03                	add    %al,(%ebx)
 365:	00 08                	add    %cl,(%eax)
 367:	30 9f 00 00 00 00    	xor    %bl,0x0(%edi)
 36d:	00 00                	add    %al,(%eax)
 36f:	00 00                	add    %al,(%eax)
 371:	22 00                	and    (%eax),%al
 373:	00 00                	add    %al,(%eax)
 375:	26 00 00             	add    %al,%es:(%eax)
 378:	00 03                	add    %al,(%ebx)
 37a:	00 08                	add    %cl,(%eax)
 37c:	21 9f 00 00 00 00    	and    %ebx,0x0(%edi)
 382:	00 00                	add    %al,(%eax)
 384:	00 00                	add    %al,(%eax)
 386:	28 00                	sub    %al,(%eax)
 388:	00 00                	add    %al,(%eax)
 38a:	2c 00                	sub    $0x0,%al
 38c:	00 00                	add    %al,(%eax)
 38e:	03 00                	add    (%eax),%eax
 390:	08 38                	or     %bh,(%eax)
 392:	9f                   	lahf   
	...
 39b:	28 00                	sub    %al,(%eax)
 39d:	00 00                	add    %al,(%eax)
 39f:	2c 00                	sub    $0x0,%al
 3a1:	00 00                	add    %al,(%eax)
 3a3:	03 00                	add    (%eax),%eax
 3a5:	08 a1 9f 00 00 00    	or     %ah,0x9f(%ecx)
 3ab:	00 00                	add    %al,(%eax)
 3ad:	00 00                	add    %al,(%eax)
 3af:	00 2e                	add    %ch,(%esi)
 3b1:	00 00                	add    %al,(%eax)
 3b3:	00 32                	add    %dh,(%edx)
 3b5:	00 00                	add    %al,(%eax)
 3b7:	00 02                	add    %al,(%edx)
 3b9:	00 34 9f             	add    %dh,(%edi,%ebx,4)
	...
 3c4:	2e 00 00             	add    %al,%cs:(%eax)
 3c7:	00 32                	add    %dh,(%edx)
 3c9:	00 00                	add    %al,(%eax)
 3cb:	00 03                	add    %al,(%ebx)
 3cd:	00 08                	add    %cl,(%eax)
 3cf:	21 9f 00 00 00 00    	and    %ebx,0x0(%edi)
 3d5:	00 00                	add    %al,(%eax)
 3d7:	00 00                	add    %al,(%eax)
 3d9:	34 00                	xor    $0x0,%al
 3db:	00 00                	add    %al,(%eax)
 3dd:	38 00                	cmp    %al,(%eax)
 3df:	00 00                	add    %al,(%eax)
 3e1:	02 00                	add    (%eax),%al
 3e3:	32 9f 00 00 00 00    	xor    0x0(%edi),%bl
 3e9:	00 00                	add    %al,(%eax)
 3eb:	00 00                	add    %al,(%eax)
 3ed:	34 00                	xor    $0x0,%al
 3ef:	00 00                	add    %al,(%eax)
 3f1:	38 00                	cmp    %al,(%eax)
 3f3:	00 00                	add    %al,(%eax)
 3f5:	03 00                	add    (%eax),%eax
 3f7:	08 a1 9f 00 00 00    	or     %ah,0x9f(%ecx)
 3fd:	00 00                	add    %al,(%eax)
 3ff:	00 00                	add    %al,(%eax)
 401:	00 3a                	add    %bh,(%edx)
 403:	00 00                	add    %al,(%eax)
 405:	00 3e                	add    %bh,(%esi)
 407:	00 00                	add    %al,(%eax)
 409:	00 02                	add    %al,(%edx)
 40b:	00 31                	add    %dh,(%ecx)
 40d:	9f                   	lahf   
	...
 416:	3a 00                	cmp    (%eax),%al
 418:	00 00                	add    %al,(%eax)
 41a:	3e 00 00             	add    %al,%ds:(%eax)
 41d:	00 03                	add    %al,(%ebx)
 41f:	00 08                	add    %cl,(%eax)
 421:	21 9f 00 00 00 00    	and    %ebx,0x0(%edi)
 427:	00 00                	add    %al,(%eax)
 429:	00 00                	add    %al,(%eax)
 42b:	40                   	inc    %eax
 42c:	00 00                	add    %al,(%eax)
 42e:	00 42 00             	add    %al,0x0(%edx)
 431:	00 00                	add    %al,(%eax)
 433:	02 00                	add    (%eax),%al
 435:	31 9f 00 00 00 00    	xor    %ebx,0x0(%edi)
 43b:	00 00                	add    %al,(%eax)
 43d:	00 00                	add    %al,(%eax)
 43f:	40                   	inc    %eax
 440:	00 00                	add    %al,(%eax)
 442:	00 42 00             	add    %al,0x0(%edx)
 445:	00 00                	add    %al,(%eax)
 447:	03 00                	add    (%eax),%eax
 449:	08 a1 9f 00 00 00    	or     %ah,0x9f(%ecx)
 44f:	00 00                	add    %al,(%eax)
 451:	00 00                	add    %al,(%eax)
 453:	00 44 00 00          	add    %al,0x0(%eax,%eax,1)
 457:	00 48 00             	add    %cl,0x0(%eax)
 45a:	00 00                	add    %al,(%eax)
 45c:	01 00                	add    %eax,(%eax)
 45e:	51                   	push   %ecx
	...
 467:	44                   	inc    %esp
 468:	00 00                	add    %al,(%eax)
 46a:	00 48 00             	add    %cl,0x0(%eax)
 46d:	00 00                	add    %al,(%eax)
 46f:	03 00                	add    (%eax),%eax
 471:	08 21                	or     %ah,(%ecx)
 473:	9f                   	lahf   
	...
 47c:	48                   	dec    %eax
 47d:	00 00                	add    %al,(%eax)
 47f:	00 4c 00 00          	add    %cl,0x0(%eax,%eax,1)
 483:	00 01                	add    %al,(%ecx)
 485:	00 52 00             	add    %dl,0x0(%edx)
 488:	00 00                	add    %al,(%eax)
 48a:	00 00                	add    %al,(%eax)
 48c:	00 00                	add    %al,(%eax)
 48e:	00 48 00             	add    %cl,0x0(%eax)
 491:	00 00                	add    %al,(%eax)
 493:	4c                   	dec    %esp
 494:	00 00                	add    %al,(%eax)
 496:	00 03                	add    %al,(%ebx)
 498:	00 08                	add    %cl,(%eax)
 49a:	a1 9f 00 00 00       	mov    0x9f,%eax
 49f:	00 00                	add    %al,(%eax)
 4a1:	00 00                	add    %al,(%eax)
 4a3:	00 54 00 00          	add    %dl,0x0(%eax,%eax,1)
 4a7:	00 59 00             	add    %bl,0x0(%ecx)
 4aa:	00 00                	add    %al,(%eax)
 4ac:	01 00                	add    %eax,(%eax)
 4ae:	50                   	push   %eax
	...
 4b7:	4c                   	dec    %esp
 4b8:	00 00                	add    %al,(%eax)
 4ba:	00 51 00             	add    %dl,0x0(%ecx)
 4bd:	00 00                	add    %al,(%eax)
 4bf:	06                   	push   %es
 4c0:	00 11                	add    %dl,(%ecx)
 4c2:	f0 81 80 77 9f 00 00 	lock addl $0x0,0x9f77(%eax)
 4c9:	00 00 00 00 
 4cd:	00 00                	add    %al,(%eax)
 4cf:	54                   	push   %esp
 4d0:	00 00                	add    %al,(%eax)
 4d2:	00 59 00             	add    %bl,0x0(%ecx)
 4d5:	00 00                	add    %al,(%eax)
 4d7:	06                   	push   %es
 4d8:	00 11                	add    %dl,(%ecx)
 4da:	f0 81 80 77 9f 00 00 	lock addl $0x0,0x9f77(%eax)
 4e1:	00 00 00 00 
 4e5:	00 00                	add    %al,(%eax)
 4e7:	59                   	pop    %ecx
 4e8:	00 00                	add    %al,(%eax)
 4ea:	00 5d 00             	add    %bl,0x0(%ebp)
 4ed:	00 00                	add    %al,(%eax)
 4ef:	03 00                	add    (%eax),%eax
 4f1:	09 ff                	or     %edi,%edi
 4f3:	9f                   	lahf   
	...
 4fc:	59                   	pop    %ecx
 4fd:	00 00                	add    %al,(%eax)
 4ff:	00 5d 00             	add    %bl,0x0(%ebp)
 502:	00 00                	add    %al,(%eax)
 504:	03 00                	add    (%eax),%eax
 506:	08 21                	or     %ah,(%ecx)
 508:	9f                   	lahf   
	...
 511:	5d                   	pop    %ebp
 512:	00 00                	add    %al,(%eax)
 514:	00 5f 00             	add    %bl,0x0(%edi)
 517:	00 00                	add    %al,(%eax)
 519:	03 00                	add    (%eax),%eax
 51b:	09 ff                	or     %edi,%edi
 51d:	9f                   	lahf   
	...
 526:	5d                   	pop    %ebp
 527:	00 00                	add    %al,(%eax)
 529:	00 5f 00             	add    %bl,0x0(%edi)
 52c:	00 00                	add    %al,(%eax)
 52e:	03 00                	add    (%eax),%eax
 530:	08 a1 9f 00 00 00    	or     %ah,0x9f(%ecx)
 536:	00 00                	add    %al,(%eax)
 538:	00 00                	add    %al,(%eax)
 53a:	00 14 00             	add    %dl,(%eax,%eax,1)
 53d:	00 00                	add    %al,(%eax)
 53f:	44                   	inc    %esp
 540:	00 00                	add    %al,(%eax)
 542:	00 02                	add    %al,(%edx)
 544:	00 30                	add    %dh,(%eax)
 546:	9f                   	lahf   
	...
 54f:	44                   	inc    %esp
 550:	00 00                	add    %al,(%eax)
 552:	00 72 00             	add    %dh,0x0(%edx)
 555:	00 00                	add    %al,(%eax)
 557:	03 00                	add    (%eax),%eax
 559:	09 cf                	or     %ecx,%edi
 55b:	9f                   	lahf   
	...
 564:	44                   	inc    %esp
 565:	00 00                	add    %al,(%eax)
 567:	00 72 00             	add    %dh,0x0(%edx)
 56a:	00 00                	add    %al,(%eax)
 56c:	03 00                	add    (%eax),%eax
 56e:	09 9a 9f 00 00 00    	or     %ebx,0x9f(%edx)
 574:	00 00                	add    %al,(%eax)
 576:	00 00                	add    %al,(%eax)
 578:	00 44 00 00          	add    %al,0x0(%eax,%eax,1)
 57c:	00 72 00             	add    %dh,0x0(%edx)
 57f:	00 00                	add    %al,(%eax)
 581:	03 00                	add    (%eax),%eax
 583:	09 ff                	or     %edi,%edi
 585:	9f                   	lahf   
	...
 58e:	44                   	inc    %esp
 58f:	00 00                	add    %al,(%eax)
 591:	00 72 00             	add    %dh,0x0(%edx)
 594:	00 00                	add    %al,(%eax)
 596:	02 00                	add    (%eax),%al
 598:	30 9f 00 00 00 00    	xor    %bl,0x0(%edi)
 59e:	00 00                	add    %al,(%eax)
 5a0:	00 00                	add    %al,(%eax)
 5a2:	44                   	inc    %esp
 5a3:	00 00                	add    %al,(%eax)
 5a5:	00 72 00             	add    %dh,0x0(%edx)
 5a8:	00 00                	add    %al,(%eax)
 5aa:	02 00                	add    (%eax),%al
 5ac:	31 9f 00 00 00 00    	xor    %ebx,0x0(%edi)
 5b2:	00 00                	add    %al,(%eax)
 5b4:	00 00                	add    %al,(%eax)
 5b6:	72 00                	jb     5b8 <_scga-0xb7a48>
 5b8:	00 00                	add    %al,(%eax)
 5ba:	a0 00 00 00 03       	mov    0x3000000,%al
 5bf:	00 09                	add    %cl,(%ecx)
 5c1:	cf                   	iret   
 5c2:	9f                   	lahf   
	...
 5cb:	72 00                	jb     5cd <_scga-0xb7a33>
 5cd:	00 00                	add    %al,(%eax)
 5cf:	a0 00 00 00 03       	mov    0x3000000,%al
 5d4:	00 09                	add    %cl,(%ecx)
 5d6:	92                   	xchg   %eax,%edx
 5d7:	9f                   	lahf   
	...
 5e0:	72 00                	jb     5e2 <_scga-0xb7a1e>
 5e2:	00 00                	add    %al,(%eax)
 5e4:	a0 00 00 00 03       	mov    0x3000000,%al
 5e9:	00 09                	add    %cl,(%ecx)
 5eb:	ff 9f 00 00 00 00    	lcall  *0x0(%edi)
 5f1:	00 00                	add    %al,(%eax)
 5f3:	00 00                	add    %al,(%eax)
 5f5:	72 00                	jb     5f7 <_scga-0xb7a09>
 5f7:	00 00                	add    %al,(%eax)
 5f9:	a0 00 00 00 02       	mov    0x2000000,%al
 5fe:	00 30                	add    %dh,(%eax)
 600:	9f                   	lahf   
	...
 609:	72 00                	jb     60b <_scga-0xb79f5>
 60b:	00 00                	add    %al,(%eax)
 60d:	a0 00 00 00 02       	mov    0x2000000,%al
 612:	00 32                	add    %dh,(%edx)
 614:	9f                   	lahf   
	...
 61d:	a0 00 00 00 ce       	mov    0xce000000,%al
 622:	00 00                	add    %al,(%eax)
 624:	00 03                	add    %al,(%ebx)
 626:	00 09                	add    %cl,(%ecx)
 628:	cf                   	iret   
 629:	9f                   	lahf   
	...
 632:	a0 00 00 00 ce       	mov    0xce000000,%al
 637:	00 00                	add    %al,(%eax)
 639:	00 03                	add    %al,(%ebx)
 63b:	00 09                	add    %cl,(%ecx)
 63d:	fa                   	cli    
 63e:	9f                   	lahf   
	...
 647:	a0 00 00 00 ce       	mov    0xce000000,%al
 64c:	00 00                	add    %al,(%eax)
 64e:	00 03                	add    %al,(%ebx)
 650:	00 09                	add    %cl,(%ecx)
 652:	ff 9f 00 00 00 00    	lcall  *0x0(%edi)
 658:	00 00                	add    %al,(%eax)
 65a:	00 00                	add    %al,(%eax)
 65c:	a0 00 00 00 ce       	mov    0xce000000,%al
 661:	00 00                	add    %al,(%eax)
 663:	00 02                	add    %al,(%edx)
 665:	00 30                	add    %dh,(%eax)
 667:	9f                   	lahf   
	...
 670:	a0 00 00 00 ce       	mov    0xce000000,%al
 675:	00 00                	add    %al,(%eax)
 677:	00 02                	add    %al,(%edx)
 679:	00 33                	add    %dh,(%ebx)
 67b:	9f                   	lahf   
	...
 684:	ce                   	into   
 685:	00 00                	add    %al,(%eax)
 687:	00 fc                	add    %bh,%ah
 689:	00 00                	add    %al,(%eax)
 68b:	00 03                	add    %al,(%ebx)
 68d:	00 09                	add    %cl,(%ecx)
 68f:	cf                   	iret   
 690:	9f                   	lahf   
	...
 699:	ce                   	into   
 69a:	00 00                	add    %al,(%eax)
 69c:	00 fc                	add    %bh,%ah
 69e:	00 00                	add    %al,(%eax)
 6a0:	00 03                	add    %al,(%ebx)
 6a2:	00 09                	add    %cl,(%ecx)
 6a4:	f2 9f                	repnz lahf 
	...
 6ae:	ce                   	into   
 6af:	00 00                	add    %al,(%eax)
 6b1:	00 fc                	add    %bh,%ah
 6b3:	00 00                	add    %al,(%eax)
 6b5:	00 03                	add    %al,(%ebx)
 6b7:	00 09                	add    %cl,(%ecx)
 6b9:	ff 9f 00 00 00 00    	lcall  *0x0(%edi)
 6bf:	00 00                	add    %al,(%eax)
 6c1:	00 00                	add    %al,(%eax)
 6c3:	ce                   	into   
 6c4:	00 00                	add    %al,(%eax)
 6c6:	00 fc                	add    %bh,%ah
 6c8:	00 00                	add    %al,(%eax)
 6ca:	00 02                	add    %al,(%edx)
 6cc:	00 30                	add    %dh,(%eax)
 6ce:	9f                   	lahf   
	...
 6d7:	ce                   	into   
 6d8:	00 00                	add    %al,(%eax)
 6da:	00 fc                	add    %bh,%ah
 6dc:	00 00                	add    %al,(%eax)
 6de:	00 02                	add    %al,(%edx)
 6e0:	00 34 9f             	add    %dh,(%edi,%ebx,4)
	...
 6eb:	05 00 00 00 1e       	add    $0x1e000000,%eax
 6f0:	00 00                	add    %al,(%eax)
 6f2:	00 02                	add    %al,(%edx)
 6f4:	00 91 00 00 00 00    	add    %dl,0x0(%ecx)
 6fa:	00 00                	add    %al,(%eax)
 6fc:	00 00                	add    %al,(%eax)
 6fe:	00 05 00 00 00 1e    	add    %al,0x1e000000
 704:	00 00                	add    %al,(%eax)
 706:	00 02                	add    %al,(%edx)
 708:	00 91 04 1e 00 00    	add    %dl,0x1e04(%ecx)
 70e:	00 26                	add    %ah,(%esi)
 710:	00 00                	add    %al,(%eax)
 712:	00 01                	add    %al,(%ecx)
 714:	00 52 00             	add    %dl,0x0(%edx)
 717:	00 00                	add    %al,(%eax)
 719:	00 00                	add    %al,(%eax)
 71b:	00 00                	add    %al,(%eax)
 71d:	00 08                	add    %cl,(%eax)
 71f:	00 00                	add    %al,(%eax)
 721:	00 24 00             	add    %ah,(%eax,%eax,1)
 724:	00 00                	add    %al,(%eax)
 726:	02 00                	add    (%eax),%al
 728:	30 9f 00 00 00 00    	xor    %bl,0x0(%edi)
 72e:	00 00                	add    %al,(%eax)
 730:	00 00                	add    %al,(%eax)
 732:	08 00                	or     %al,(%eax)
 734:	00 00                	add    %al,(%eax)
 736:	1e                   	push   %ds
 737:	00 00                	add    %al,(%eax)
 739:	00 02                	add    %al,(%edx)
 73b:	00 91 04 1e 00 00    	add    %dl,0x1e04(%ecx)
 741:	00 24 00             	add    %ah,(%eax,%eax,1)
 744:	00 00                	add    %al,(%eax)
 746:	01 00                	add    %eax,(%eax)
 748:	52                   	push   %edx
	...
 751:	08 00                	or     %al,(%eax)
 753:	00 00                	add    %al,(%eax)
 755:	1e                   	push   %ds
 756:	00 00                	add    %al,(%eax)
 758:	00 02                	add    %al,(%edx)
 75a:	00 91 00 00 00 00    	add    %dl,0x0(%ecx)
 760:	00 00                	add    %al,(%eax)
 762:	00 00                	add    %al,(%eax)
 764:	00 08                	add    %cl,(%eax)
 766:	00 00                	add    %al,(%eax)
 768:	00 1e                	add    %bl,(%esi)
 76a:	00 00                	add    %al,(%eax)
 76c:	00 09                	add    %cl,(%ecx)
 76e:	00 91 00 94 01 23    	add    %dl,0x23019400(%ecx)
 774:	08 31                	or     %dh,(%ecx)
 776:	24 9f                	and    $0x9f,%al
	...
 780:	10 00                	adc    %al,(%eax)
 782:	00 00                	add    %al,(%eax)
 784:	24 00                	and    $0x0,%al
 786:	00 00                	add    %al,(%eax)
 788:	01 00                	add    %eax,(%eax)
 78a:	52                   	push   %edx
	...
 793:	10 00                	adc    %al,(%eax)
 795:	00 00                	add    %al,(%eax)
 797:	1e                   	push   %ds
 798:	00 00                	add    %al,(%eax)
 79a:	00 09                	add    %cl,(%ecx)
 79c:	00 91 00 94 01 23    	add    %dl,0x23019400(%ecx)
 7a2:	08 31                	or     %dh,(%ecx)
 7a4:	24 9f                	and    $0x9f,%al
	...
 7ae:	26 00 00             	add    %al,%es:(%eax)
 7b1:	00 52 00             	add    %dl,0x0(%edx)
 7b4:	00 00                	add    %al,(%eax)
 7b6:	02 00                	add    (%eax),%al
 7b8:	91                   	xchg   %eax,%ecx
	...
 7c1:	00 26                	add    %ah,(%esi)
 7c3:	00 00                	add    %al,(%eax)
 7c5:	00 52 00             	add    %dl,0x0(%edx)
 7c8:	00 00                	add    %al,(%eax)
 7ca:	02 00                	add    (%eax),%al
 7cc:	91                   	xchg   %eax,%ecx
 7cd:	04 00                	add    $0x0,%al
 7cf:	00 00                	add    %al,(%eax)
 7d1:	00 00                	add    %al,(%eax)
 7d3:	00 00                	add    %al,(%eax)
 7d5:	00 26                	add    %ah,(%esi)
 7d7:	00 00                	add    %al,(%eax)
 7d9:	00 52 00             	add    %dl,0x0(%edx)
 7dc:	00 00                	add    %al,(%eax)
 7de:	02 00                	add    (%eax),%al
 7e0:	91                   	xchg   %eax,%ecx
 7e1:	0c 00                	or     $0x0,%al
 7e3:	00 00                	add    %al,(%eax)
 7e5:	00 00                	add    %al,(%eax)
 7e7:	00 00                	add    %al,(%eax)
 7e9:	00 29                	add    %ch,(%ecx)
 7eb:	00 00                	add    %al,(%eax)
 7ed:	00 52 00             	add    %dl,0x0(%edx)
 7f0:	00 00                	add    %al,(%eax)
 7f2:	09 00                	or     %eax,(%eax)
 7f4:	91                   	xchg   %eax,%ecx
 7f5:	00 94 01 23 08 31 24 	add    %dl,0x24310823(%ecx,%eax,1)
 7fc:	9f                   	lahf   
	...
 805:	3e 00 00             	add    %al,%ds:(%eax)
 808:	00 57 00             	add    %dl,0x0(%edi)
 80b:	00 00                	add    %al,(%eax)
 80d:	01 00                	add    %eax,(%eax)
 80f:	50                   	push   %eax
	...
 818:	3e 00 00             	add    %al,%ds:(%eax)
 81b:	00 52 00             	add    %dl,0x0(%edx)
 81e:	00 00                	add    %al,(%eax)
 820:	09 00                	or     %eax,(%eax)
 822:	91                   	xchg   %eax,%ecx
 823:	00 94 01 23 08 31 24 	add    %dl,0x24310823(%ecx,%eax,1)
 82a:	9f                   	lahf   
	...
 833:	55                   	push   %ebp
 834:	00 00                	add    %al,(%eax)
 836:	00 85 00 00 00 02    	add    %al,0x2000000(%ebp)
 83c:	00 91 00 00 00 00    	add    %dl,0x0(%ecx)
 842:	00 00                	add    %al,(%eax)
 844:	00 00                	add    %al,(%eax)
 846:	00 55 00             	add    %dl,0x0(%ebp)
 849:	00 00                	add    %al,(%eax)
 84b:	64 00 00             	add    %al,%fs:(%eax)
 84e:	00 02                	add    %al,(%edx)
 850:	00 91 04 64 00 00    	add    %dl,0x6404(%ecx)
 856:	00 93 00 00 00 01    	add    %dl,0x1000000(%ebx)
 85c:	00 56 00             	add    %dl,0x0(%esi)
 85f:	00 00                	add    %al,(%eax)
 861:	00 00                	add    %al,(%eax)
 863:	00 00                	add    %al,(%eax)
 865:	00 47 00             	add    %al,0x0(%edi)
 868:	00 00                	add    %al,(%eax)
 86a:	4d                   	dec    %ebp
 86b:	00 00                	add    %al,(%eax)
 86d:	00 06                	add    %al,(%esi)
 86f:	00 70 00             	add    %dh,0x0(%eax)
 872:	08 20                	or     %ah,(%eax)
 874:	1a 9f 00 00 00 00    	sbb    0x0(%edi),%bl
 87a:	00 00                	add    %al,(%eax)
 87c:	00 00                	add    %al,(%eax)
 87e:	46                   	inc    %esi
 87f:	00 00                	add    %al,(%eax)
 881:	00 47 00             	add    %al,0x0(%edi)
 884:	00 00                	add    %al,(%eax)
 886:	03 00                	add    (%eax),%eax
 888:	71 05                	jno    88f <_scga-0xb7771>
 88a:	9f                   	lahf   
	...
 893:	4b                   	dec    %ebx
 894:	00 00                	add    %al,(%eax)
 896:	00 50 00             	add    %dl,0x0(%eax)
 899:	00 00                	add    %al,(%eax)
 89b:	01 00                	add    %eax,(%eax)
 89d:	53                   	push   %ebx
	...
 8a6:	4b                   	dec    %ebx
 8a7:	00 00                	add    %al,(%eax)
 8a9:	00 50 00             	add    %dl,0x0(%eax)
 8ac:	00 00                	add    %al,(%eax)
 8ae:	01 00                	add    %eax,(%eax)
 8b0:	51                   	push   %ecx
	...
 8b9:	0d 00 00 00 10       	or     $0x10000000,%eax
 8be:	00 00                	add    %al,(%eax)
 8c0:	00 02                	add    %al,(%edx)
 8c2:	00 30                	add    %dh,(%eax)
 8c4:	9f                   	lahf   
	...
 8cd:	0d 00 00 00 10       	or     $0x10000000,%eax
 8d2:	00 00                	add    %al,(%eax)
 8d4:	00 01                	add    %al,(%ecx)
 8d6:	00 56 00             	add    %dl,0x0(%esi)
 8d9:	00 00                	add    %al,(%eax)
 8db:	00 00                	add    %al,(%eax)
 8dd:	00 00                	add    %al,(%eax)
 8df:	00 13                	add    %dl,(%ebx)
 8e1:	00 00                	add    %al,(%eax)
 8e3:	00 18                	add    %bl,(%eax)
 8e5:	00 00                	add    %al,(%eax)
 8e7:	00 03                	add    %al,(%ebx)
 8e9:	00 09                	add    %cl,(%ecx)
 8eb:	80 9f 00 00 00 00 00 	sbbb   $0x0,0x0(%edi)
 8f2:	00 00                	add    %al,(%eax)
 8f4:	00 13                	add    %dl,(%ebx)
 8f6:	00 00                	add    %al,(%eax)
 8f8:	00 18                	add    %bl,(%eax)
 8fa:	00 00                	add    %al,(%eax)
 8fc:	00 01                	add    %al,(%ecx)
 8fe:	00 53 00             	add    %dl,0x0(%ebx)
 901:	00 00                	add    %al,(%eax)
 903:	00 00                	add    %al,(%eax)
 905:	00 00                	add    %al,(%eax)
 907:	00 18                	add    %bl,(%eax)
 909:	00 00                	add    %al,(%eax)
 90b:	00 1d 00 00 00 02    	add    %bl,0x2000000
 911:	00 33                	add    %dh,(%ebx)
 913:	9f                   	lahf   
	...
 91c:	18 00                	sbb    %al,(%eax)
 91e:	00 00                	add    %al,(%eax)
 920:	1d 00 00 00 01       	sbb    $0x1000000,%eax
 925:	00 51 00             	add    %dl,0x0(%ecx)
 928:	00 00                	add    %al,(%eax)
 92a:	00 00                	add    %al,(%eax)
 92c:	00 00                	add    %al,(%eax)
 92e:	00 1d 00 00 00 22    	add    %bl,0x22000000
 934:	00 00                	add    %al,(%eax)
 936:	00 02                	add    %al,(%edx)
 938:	00 30                	add    %dh,(%eax)
 93a:	9f                   	lahf   
	...
 943:	1d 00 00 00 22       	sbb    $0x22000000,%eax
 948:	00 00                	add    %al,(%eax)
 94a:	00 01                	add    %al,(%ecx)
 94c:	00 56 00             	add    %dl,0x0(%esi)
 94f:	00 00                	add    %al,(%eax)
 951:	00 00                	add    %al,(%eax)
 953:	00 00                	add    %al,(%eax)
 955:	00 22                	add    %ah,(%edx)
 957:	00 00                	add    %al,(%eax)
 959:	00 27                	add    %ah,(%edi)
 95b:	00 00                	add    %al,(%eax)
 95d:	00 02                	add    %al,(%edx)
 95f:	00 33                	add    %dh,(%ebx)
 961:	9f                   	lahf   
	...
 96a:	22 00                	and    (%eax),%al
 96c:	00 00                	add    %al,(%eax)
 96e:	27                   	daa    
 96f:	00 00                	add    %al,(%eax)
 971:	00 01                	add    %al,(%ecx)
 973:	00 53 00             	add    %dl,0x0(%ebx)
 976:	00 00                	add    %al,(%eax)
 978:	00 00                	add    %al,(%eax)
 97a:	00 00                	add    %al,(%eax)
 97c:	00 27                	add    %ah,(%edi)
 97e:	00 00                	add    %al,(%eax)
 980:	00 2d 00 00 00 03    	add    %ch,0x3000000
 986:	00 09                	add    %cl,(%ecx)
 988:	c7                   	(bad)  
 989:	9f                   	lahf   
	...
 992:	27                   	daa    
 993:	00 00                	add    %al,(%eax)
 995:	00 2d 00 00 00 03    	add    %ch,0x3000000
 99b:	00 71 02             	add    %dh,0x2(%ecx)
 99e:	9f                   	lahf   
	...
 9a7:	2d 00 00 00 33       	sub    $0x33000000,%eax
 9ac:	00 00                	add    %al,(%eax)
 9ae:	00 02                	add    %al,(%edx)
 9b0:	00 3b                	add    %bh,(%ebx)
 9b2:	9f                   	lahf   
	...
 9bb:	2d 00 00 00 33       	sub    $0x33000000,%eax
 9c0:	00 00                	add    %al,(%eax)
 9c2:	00 03                	add    %al,(%ebx)
 9c4:	00 71 04             	add    %dh,0x4(%ecx)
 9c7:	9f                   	lahf   
	...
